---
triple:          'arm64-apple-darwin'
binary-path:     '/Users/paul/Workspace/Java/jdk/build/macosx-aarch64-server-release/support/modules_libs/java.desktop/libfontmanager.dylib'
relocations:
  - { offset: 0x26, size: 0x8, addend: 0x0, symName: _Java_sun_font_ColorGlyphSurfaceData_initOps, symObjAddr: 0x0, symBinAddr: 0x1B38, symSize: 0x54 }
  - { offset: 0x2BBE, size: 0x8, addend: 0x0, symName: _Java_sun_font_ColorGlyphSurfaceData_initOps, symObjAddr: 0x0, symBinAddr: 0x1B38, symSize: 0x54 }
  - { offset: 0x2C5E, size: 0x8, addend: 0x0, symName: _Glyph_Lock, symObjAddr: 0x54, symBinAddr: 0x1B8C, symSize: 0x64 }
  - { offset: 0x2D1C, size: 0x8, addend: 0x0, symName: _Glyph_GetRasInfo, symObjAddr: 0xB8, symBinAddr: 0x1BF0, symSize: 0x24 }
  - { offset: 0x2D66, size: 0x8, addend: 0x0, symName: _Java_sun_font_ColorGlyphSurfaceData_setCurrentGlyph, symObjAddr: 0xDC, symBinAddr: 0x1C14, symSize: 0x28 }
  - { offset: 0x2E11, size: 0x8, addend: 0x0, symName: _setupBlitVector, symObjAddr: 0x0, symBinAddr: 0x1C3C, symSize: 0x348 }
  - { offset: 0x2E2B, size: 0x8, addend: 0x0, symName: _defaultGammaLUT, symObjAddr: 0x1310, symBinAddr: 0x108288, symSize: 0x0 }
  - { offset: 0x2E67, size: 0x8, addend: 0x0, symName: _defaultInvGammaLUT, symObjAddr: 0x1410, symBinAddr: 0x108388, symSize: 0x0 }
  - { offset: 0x2E7D, size: 0x8, addend: 0x0, symName: _lcdGammaLUT, symBinAddr: 0x108C38, symSize: 0x0 }
  - { offset: 0x2EA4, size: 0x8, addend: 0x0, symName: _lcdInvGammaLUT, symBinAddr: 0x1090F0, symSize: 0x0 }
  - { offset: 0x3087, size: 0x8, addend: 0x0, symName: _setupBlitVector, symObjAddr: 0x0, symBinAddr: 0x1C3C, symSize: 0x348 }
  - { offset: 0x3384, size: 0x8, addend: 0x0, symName: _RefineBounds, symObjAddr: 0x348, symBinAddr: 0x1F84, symSize: 0x11C }
  - { offset: 0x3463, size: 0x8, addend: 0x0, symName: _Java_sun_java2d_loops_DrawGlyphList_DrawGlyphList, symObjAddr: 0x464, symBinAddr: 0x20A0, symSize: 0xCC }
  - { offset: 0x666D, size: 0x8, addend: 0x0, symName: _drawGlyphList, symObjAddr: 0x530, symBinAddr: 0x216C, symSize: 0x280 }
  - { offset: 0x6ADC, size: 0x8, addend: 0x0, symName: _Java_sun_java2d_loops_DrawGlyphListAA_DrawGlyphListAA, symObjAddr: 0x7B0, symBinAddr: 0x23EC, symSize: 0xCC }
  - { offset: 0x6D7E, size: 0x8, addend: 0x0, symName: _Java_sun_java2d_loops_DrawGlyphListLCD_DrawGlyphListLCD, symObjAddr: 0x87C, symBinAddr: 0x24B8, symSize: 0x3B0 }
  - { offset: 0x71B2, size: 0x8, addend: 0x0, symName: _setupLCDBlitVector, symObjAddr: 0xC2C, symBinAddr: 0x2868, symSize: 0x520 }
  - { offset: 0x7545, size: 0x8, addend: 0x0, symName: _initLUT, symObjAddr: 0x114C, symBinAddr: 0x2D88, symSize: 0x134 }
  - { offset: 0x7614, size: 0x8, addend: 0x0, symName: _initLCDGammaTables, symObjAddr: 0x1280, symBinAddr: 0x2EBC, symSize: 0x58 }
  - { offset: 0x7650, size: 0x8, addend: 0x0, symName: _storeGVData, symObjAddr: 0x0, symBinAddr: 0x2F14, symSize: 0x5DC }
  - { offset: 0x7677, size: 0x8, addend: 0x0, symName: __MergedGlobals, symObjAddr: 0xA0F0, symBinAddr: 0x109958, symSize: 0x0 }
  - { offset: 0x76A4, size: 0x8, addend: 0x0, symName: __MergedGlobals, symObjAddr: 0xA0F0, symBinAddr: 0x109958, symSize: 0x0 }
  - { offset: 0x76DB, size: 0x8, addend: 0x0, symName: __MergedGlobals, symObjAddr: 0xA0F0, symBinAddr: 0x109958, symSize: 0x0 }
  - { offset: 0x7707, size: 0x8, addend: 0x0, symName: __MergedGlobals, symObjAddr: 0xA0F0, symBinAddr: 0x109958, symSize: 0x0 }
  - { offset: 0x771E, size: 0x8, addend: 0x0, symName: __MergedGlobals, symObjAddr: 0xA0F0, symBinAddr: 0x109958, symSize: 0x0 }
  - { offset: 0x7735, size: 0x8, addend: 0x0, symName: __MergedGlobals, symObjAddr: 0xA0F0, symBinAddr: 0x109958, symSize: 0x0 }
  - { offset: 0x774C, size: 0x8, addend: 0x0, symName: __MergedGlobals, symObjAddr: 0xA0F0, symBinAddr: 0x109958, symSize: 0x0 }
  - { offset: 0x7763, size: 0x8, addend: 0x0, symName: __MergedGlobals, symObjAddr: 0xA0F0, symBinAddr: 0x109958, symSize: 0x0 }
  - { offset: 0xA7DD, size: 0x8, addend: 0x0, symName: _storeGVData, symObjAddr: 0x0, symBinAddr: 0x2F14, symSize: 0x5DC }
  - { offset: 0xAD65, size: 0x8, addend: 0x0, symName: _createJDKFontInfo, symObjAddr: 0x5DC, symBinAddr: 0x34F0, symSize: 0x1E4 }
  - { offset: 0xAEC1, size: 0x8, addend: 0x0, symName: _Java_sun_font_SunLayoutEngine_shape, symObjAddr: 0x7C0, symBinAddr: 0x36D4, symSize: 0x2AC }
  - { offset: 0xB7E1, size: 0x8, addend: 0x0, symName: _jdk_hb_shape, symObjAddr: 0x0, symBinAddr: 0x3980, symSize: 0x348 }
  - { offset: 0xBF89, size: 0x8, addend: 0x0, symName: _jdk_hb_shape, symObjAddr: 0x0, symBinAddr: 0x3980, symSize: 0x348 }
  - { offset: 0xC981, size: 0x8, addend: 0x0, symName: _Java_sun_font_FreetypeFontScaler_initIDs, symObjAddr: 0x0, symBinAddr: 0x3CC8, symSize: 0x78 }
  - { offset: 0xC9A8, size: 0x8, addend: 0x0, symName: __MergedGlobals, symObjAddr: 0x15468, symBinAddr: 0x109998, symSize: 0x0 }
  - { offset: 0xC9D4, size: 0x8, addend: 0x0, symName: __MergedGlobals, symObjAddr: 0x15468, symBinAddr: 0x109998, symSize: 0x0 }
  - { offset: 0xC9EF, size: 0x8, addend: 0x0, symName: _getGlyphImageNativeInternal, symObjAddr: 0xC10, symBinAddr: 0x48D8, symSize: 0x43C }
  - { offset: 0x103E3, size: 0x8, addend: 0x0, symName: _Java_sun_font_FreetypeFontScaler_initIDs, symObjAddr: 0x0, symBinAddr: 0x3CC8, symSize: 0x78 }
  - { offset: 0x104D5, size: 0x8, addend: 0x0, symName: _Java_sun_font_FreetypeFontScaler_initNativeScaler, symObjAddr: 0x78, symBinAddr: 0x3D40, symSize: 0x254 }
  - { offset: 0x10972, size: 0x8, addend: 0x0, symName: _ReadTTFontFileFunc, symObjAddr: 0x2CC, symBinAddr: 0x3F94, symSize: 0x288 }
  - { offset: 0x10BAC, size: 0x8, addend: 0x0, symName: _Java_sun_font_FreetypeFontScaler_createScalerContextNative, symObjAddr: 0x554, symBinAddr: 0x421C, symSize: 0x254 }
  - { offset: 0x10D4C, size: 0x8, addend: 0x0, symName: _invalidateJavaScaler, symObjAddr: 0x7A8, symBinAddr: 0x4470, symSize: 0x90 }
  - { offset: 0x10E17, size: 0x8, addend: 0x0, symName: _Java_sun_font_FreetypeFontScaler_getFontMetricsNative, symObjAddr: 0x838, symBinAddr: 0x4500, symSize: 0x2DC }
  - { offset: 0x1100C, size: 0x8, addend: 0x0, symName: _setupFTContext, symObjAddr: 0xB14, symBinAddr: 0x47DC, symSize: 0xB8 }
  - { offset: 0x111D5, size: 0x8, addend: 0x0, symName: _Java_sun_font_FreetypeFontScaler_getGlyphAdvanceNative, symObjAddr: 0xBCC, symBinAddr: 0x4894, symSize: 0x44 }
  - { offset: 0x1136A, size: 0x8, addend: 0x0, symName: _GlyphSlot_Embolden, symObjAddr: 0x1BF4, symBinAddr: 0x58BC, symSize: 0x104 }
  - { offset: 0x11439, size: 0x8, addend: 0x0, symName: _CopyBW2Grey8, symObjAddr: 0x1CF8, symBinAddr: 0x59C0, symSize: 0x238 }
  - { offset: 0x11544, size: 0x8, addend: 0x0, symName: _CopyGrey4ToGrey8, symObjAddr: 0x1F30, symBinAddr: 0x5BF8, symSize: 0x688 }
  - { offset: 0x1161B, size: 0x8, addend: 0x0, symName: _CopyFTSubpixelVToSubpixel, symObjAddr: 0x25B8, symBinAddr: 0x6280, symSize: 0x358 }
  - { offset: 0x116DC, size: 0x8, addend: 0x0, symName: _Java_sun_font_FreetypeFontScaler_getGlyphMetricsNative, symObjAddr: 0x104C, symBinAddr: 0x4D14, symSize: 0xC8 }
  - { offset: 0x11820, size: 0x8, addend: 0x0, symName: _Java_sun_font_FreetypeFontScaler_getGlyphImageNative, symObjAddr: 0x1114, symBinAddr: 0x4DDC, symSize: 0x8 }
  - { offset: 0x11922, size: 0x8, addend: 0x0, symName: _Java_sun_font_FreetypeFontScaler_disposeNativeScaler, symObjAddr: 0x111C, symBinAddr: 0x4DE4, symSize: 0x6C }
  - { offset: 0x11A4B, size: 0x8, addend: 0x0, symName: _Java_sun_font_FreetypeFontScaler_getNumGlyphsNative, symObjAddr: 0x1188, symBinAddr: 0x4E50, symSize: 0xB4 }
  - { offset: 0x11B81, size: 0x8, addend: 0x0, symName: _Java_sun_font_FreetypeFontScaler_getMissingGlyphCodeNative, symObjAddr: 0x123C, symBinAddr: 0x4F04, symSize: 0x8 }
  - { offset: 0x11BC8, size: 0x8, addend: 0x0, symName: _Java_sun_font_FreetypeFontScaler_getGlyphCodeNative, symObjAddr: 0x1244, symBinAddr: 0x4F0C, symSize: 0x40 }
  - { offset: 0x11E2A, size: 0x8, addend: 0x0, symName: _Java_sun_font_FreetypeFontScaler_getGlyphOutlineNative, symObjAddr: 0x1284, symBinAddr: 0x4F4C, symSize: 0x1B8 }
  - { offset: 0x120EB, size: 0x8, addend: 0x0, symName: _getFTOutline, symObjAddr: 0x1608, symBinAddr: 0x52D0, symSize: 0xF0 }
  - { offset: 0x121D3, size: 0x8, addend: 0x0, symName: _allocateSpaceForGP, symObjAddr: 0x1978, symBinAddr: 0x5640, symSize: 0x144 }
  - { offset: 0x12340, size: 0x8, addend: 0x0, symName: _Java_sun_font_FreetypeFontScaler_getGlyphOutlineBoundsNative, symObjAddr: 0x143C, symBinAddr: 0x5104, symSize: 0x1CC }
  - { offset: 0x12551, size: 0x8, addend: 0x0, symName: _Java_sun_font_FreetypeFontScaler_getGlyphVectorOutlineNative, symObjAddr: 0x16F8, symBinAddr: 0x53C0, symSize: 0x280 }
  - { offset: 0x127FA, size: 0x8, addend: 0x0, symName: _Java_sun_font_FreetypeFontScaler_getUnitsPerEMNative, symObjAddr: 0x1ABC, symBinAddr: 0x5784, symSize: 0x18 }
  - { offset: 0x1284F, size: 0x8, addend: 0x0, symName: _Java_sun_font_FreetypeFontScaler_getGlyphPointNative, symObjAddr: 0x1AD4, symBinAddr: 0x579C, symSize: 0x120 }
  - { offset: 0x12A32, size: 0x8, addend: 0x0, symName: _moveTo, symObjAddr: 0x2910, symBinAddr: 0x65D8, symSize: 0x64 }
  - { offset: 0x12AC0, size: 0x8, addend: 0x0, symName: _lineTo, symObjAddr: 0x2974, symBinAddr: 0x663C, symSize: 0x44 }
  - { offset: 0x12B29, size: 0x8, addend: 0x0, symName: _conicTo, symObjAddr: 0x29B8, symBinAddr: 0x6680, symSize: 0x50 }
  - { offset: 0x12BB5, size: 0x8, addend: 0x0, symName: _cubicTo, symObjAddr: 0x2A08, symBinAddr: 0x66D0, symSize: 0x74 }
  - { offset: 0x12E4A, size: 0x8, addend: 0x0, symName: __ZL16feature_mappings, symObjAddr: 0x1E838, symBinAddr: 0xE1048, symSize: 0x0 }
  - { offset: 0xCC547, size: 0x8, addend: 0x0, symName: __ZNK3AAT11FeatureName18get_selector_infosEjPjP37hb_aat_layout_feature_selector_info_tS1_PKv, symObjAddr: 0x1B8C, symBinAddr: 0x82D0, symSize: 0x1DC }
  - { offset: 0xD0553, size: 0x8, addend: 0x0, symName: __ZNK3AAT5ChainINS_13ExtendedTypesEE5applyEPNS_22hb_aat_apply_context_tEPKNS_33hb_aat_layout_chain_accelerator_tE, symObjAddr: 0xBC48, symBinAddr: 0x1238C, symSize: 0x40C }
  - { offset: 0xD11CD, size: 0x8, addend: 0x0, symName: __ZNK3AAT5ChainINS_13ObsoleteTypesEE5applyEPNS_22hb_aat_apply_context_tEPKNS_33hb_aat_layout_chain_accelerator_tE, symObjAddr: 0x11DB8, symBinAddr: 0x184FC, symSize: 0x3E8 }
  - { offset: 0xD1CCB, size: 0x8, addend: 0x0, symName: __ZNK3AAT9KerxTableINS_4kerxEE8sanitizeEP21hb_sanitize_context_t, symObjAddr: 0x15A78, symBinAddr: 0x1C1BC, symSize: 0x24C }
  - { offset: 0xD2390, size: 0x8, addend: 0x0, symName: __ZNK3AAT9KerxTableINS_4kerxEE5applyEPNS_22hb_aat_apply_context_tERK11hb_vector_tI9hb_pair_tI12hb_bit_set_tS7_ELb0EE, symObjAddr: 0x19114, symBinAddr: 0x1F858, symSize: 0x498 }
  - { offset: 0xD2FD5, size: 0x8, addend: 0x0, symName: __ZN3AAT22hb_aat_apply_context_tC2EPK18hb_ot_shape_plan_tP9hb_font_tP11hb_buffer_tP9hb_blob_t, symObjAddr: 0x0, symBinAddr: 0x6744, symSize: 0x150 }
  - { offset: 0xD331E, size: 0x8, addend: 0x0, symName: __ZNK16hb_lazy_loader_tIN2OT18GDEF_accelerator_tE21hb_face_lazy_loader_tIS1_Lj24EE9hb_face_tLj24ES1_E3getEv, symObjAddr: 0x1D68, symBinAddr: 0x84AC, symSize: 0xDC }
  - { offset: 0xD36B4, size: 0x8, addend: 0x0, symName: __ZN12hb_bit_set_tD1Ev, symObjAddr: 0x150, symBinAddr: 0x6894, symSize: 0x58 }
  - { offset: 0xD3855, size: 0x8, addend: 0x0, symName: __ZN21hb_sanitize_context_tD1Ev, symObjAddr: 0x1A8, symBinAddr: 0x68EC, symSize: 0x3C }
  - { offset: 0xD3A2C, size: 0x8, addend: 0x0, symName: __ZN3AAT22hb_aat_apply_context_tC1EPK18hb_ot_shape_plan_tP9hb_font_tP11hb_buffer_tP9hb_blob_t, symObjAddr: 0x1E4, symBinAddr: 0x6928, symSize: 0x4 }
  - { offset: 0xD3A6F, size: 0x8, addend: 0x0, symName: __ZN3AAT22hb_aat_apply_context_tC1EPK18hb_ot_shape_plan_tP9hb_font_tP11hb_buffer_tP9hb_blob_t, symObjAddr: 0x1E4, symBinAddr: 0x6928, symSize: 0x4 }
  - { offset: 0xD3AD2, size: 0x8, addend: 0x0, symName: __ZN3AAT22hb_aat_apply_context_tD2Ev, symObjAddr: 0x1E8, symBinAddr: 0x692C, symSize: 0x98 }
  - { offset: 0xD3CEF, size: 0x8, addend: 0x0, symName: __ZN3AAT22hb_aat_apply_context_tD1Ev, symObjAddr: 0x290, symBinAddr: 0x69D4, symSize: 0x4 }
  - { offset: 0xD3D12, size: 0x8, addend: 0x0, symName: __ZN3AAT22hb_aat_apply_context_tD1Ev, symObjAddr: 0x290, symBinAddr: 0x69D4, symSize: 0x4 }
  - { offset: 0xD3D25, size: 0x8, addend: 0x0, symName: __ZN3AAT22hb_aat_apply_context_t14set_ankr_tableEPKNS_4ankrE, symObjAddr: 0x294, symBinAddr: 0x69D8, symSize: 0x8 }
  - { offset: 0xD3F6F, size: 0x8, addend: 0x0, symName: __Z34hb_aat_layout_find_feature_mappingj, symObjAddr: 0x29C, symBinAddr: 0x69E0, symSize: 0x58 }
  - { offset: 0xD4298, size: 0x8, addend: 0x0, symName: __ZNK3AAT4morx14is_blocklistedEP9hb_blob_tP9hb_face_t, symObjAddr: 0x2F4, symBinAddr: 0x6A38, symSize: 0x100 }
  - { offset: 0xD4587, size: 0x8, addend: 0x0, symName: __ZN16hb_lazy_loader_tIN2OT18GSUB_accelerator_tE21hb_face_lazy_loader_tIS1_Lj25EE9hb_face_tLj25ES1_E7destroyEPS1_, symObjAddr: 0x6D80, symBinAddr: 0xD4C4, symSize: 0x98 }
  - { offset: 0xD46FB, size: 0x8, addend: 0x0, symName: __ZN2OT8GSUBGPOS13accelerator_tINS_6Layout4GSUBEEC2EP9hb_face_t, symObjAddr: 0x34CC, symBinAddr: 0x9C10, symSize: 0x18C }
  - { offset: 0xD4DCC, size: 0x8, addend: 0x0, symName: __ZNK3AAT4mort14is_blocklistedEP9hb_blob_tP9hb_face_t, symObjAddr: 0x3F4, symBinAddr: 0x6B38, symSize: 0x8 }
  - { offset: 0xD5372, size: 0x8, addend: 0x0, symName: __Z25hb_aat_layout_compile_mapPK20hb_aat_map_builder_tP12hb_aat_map_t, symObjAddr: 0x3FC, symBinAddr: 0x6B40, symSize: 0x1C4 }
  - { offset: 0xD5B45, size: 0x8, addend: 0x0, symName: __ZNK3AAT8mortmorxINS_4morxENS_13ExtendedTypesELj1836020344EE13compile_flagsEPK20hb_aat_map_builder_tP12hb_aat_map_t, symObjAddr: 0x5C0, symBinAddr: 0x6D04, symSize: 0x1A4 }
  - { offset: 0xD5E33, size: 0x8, addend: 0x0, symName: __ZN3AAT8mortmorxINS_4mortENS_13ObsoleteTypesELj1836020340EE13accelerator_tC2EP9hb_face_t, symObjAddr: 0xA068, symBinAddr: 0x107AC, symSize: 0x114 }
  - { offset: 0xD630C, size: 0x8, addend: 0x0, symName: __ZN3AAT8mortmorxINS_4mortENS_13ObsoleteTypesELj1836020340EE13accelerator_tD2Ev, symObjAddr: 0xB918, symBinAddr: 0x1205C, symSize: 0xF4 }
  - { offset: 0xD6585, size: 0x8, addend: 0x0, symName: __ZN3AAT8mortmorxINS_4morxENS_13ExtendedTypesELj1836020344EE13accelerator_tD2Ev, symObjAddr: 0x97E0, symBinAddr: 0xFF24, symSize: 0xF4 }
  - { offset: 0xD67FE, size: 0x8, addend: 0x0, symName: __ZN3AAT8mortmorxINS_4morxENS_13ExtendedTypesELj1836020344EE13accelerator_tC2EP9hb_face_t, symObjAddr: 0x6E18, symBinAddr: 0xD55C, symSize: 0x13C }
  - { offset: 0xD6CF0, size: 0x8, addend: 0x0, symName: __ZNK3AAT8mortmorxINS_4mortENS_13ObsoleteTypesELj1836020340EE13compile_flagsEPK20hb_aat_map_builder_tP12hb_aat_map_t, symObjAddr: 0x764, symBinAddr: 0x6EA8, symSize: 0x1A4 }
  - { offset: 0xD7300, size: 0x8, addend: 0x0, symName: __ZN11hb_vector_tIS_IN12hb_aat_map_t13range_flags_tELb1EELb0EE6resizeEibb, symObjAddr: 0x98D4, symBinAddr: 0x10018, symSize: 0x168 }
  - { offset: 0xD755F, size: 0x8, addend: 0x0, symName: __ZNK3AAT5ChainINS_13ExtendedTypesEE13compile_flagsEPK20hb_aat_map_builder_t, symObjAddr: 0x9A3C, symBinAddr: 0x10180, symSize: 0x23C }
  - { offset: 0xD7D80, size: 0x8, addend: 0x0, symName: __ZNK3AAT5ChainINS_13ObsoleteTypesEE13compile_flagsEPK20hb_aat_map_builder_t, symObjAddr: 0xBA0C, symBinAddr: 0x12150, symSize: 0x23C }
  - { offset: 0xD8537, size: 0x8, addend: 0x0, symName: _hb_aat_layout_has_substitution, symObjAddr: 0x908, symBinAddr: 0x704C, symSize: 0x190 }
  - { offset: 0xD90FD, size: 0x8, addend: 0x0, symName: __Z24hb_aat_layout_substitutePK18hb_ot_shape_plan_tP9hb_font_tP11hb_buffer_tPK12hb_feature_tj, symObjAddr: 0xA98, symBinAddr: 0x71DC, symSize: 0x45C }
  - { offset: 0xDA43E, size: 0x8, addend: 0x0, symName: __ZN11hb_buffer_t7messageEP9hb_font_tPKcz, symObjAddr: 0xEF4, symBinAddr: 0x7638, symSize: 0x40 }
  - { offset: 0xDA4C5, size: 0x8, addend: 0x0, symName: __ZNK3AAT8mortmorxINS_4morxENS_13ExtendedTypesELj1836020344EE5applyEPNS_22hb_aat_apply_context_tERK12hb_aat_map_tRKNS3_13accelerator_tE, symObjAddr: 0xF34, symBinAddr: 0x7678, symSize: 0x220 }
  - { offset: 0xDA933, size: 0x8, addend: 0x0, symName: __ZNK3AAT8mortmorxINS_4mortENS_13ObsoleteTypesELj1836020340EE5applyEPNS_22hb_aat_apply_context_tERK12hb_aat_map_tRKNS3_13accelerator_tE, symObjAddr: 0x1154, symBinAddr: 0x7898, symSize: 0x220 }
  - { offset: 0xDADA1, size: 0x8, addend: 0x0, symName: __ZN12hb_aat_map_tD1Ev, symObjAddr: 0x1374, symBinAddr: 0x7AB8, symSize: 0x7C }
  - { offset: 0xDAF3E, size: 0x8, addend: 0x0, symName: __ZN20hb_aat_map_builder_tD1Ev, symObjAddr: 0x13F0, symBinAddr: 0x7B34, symSize: 0x58 }
  - { offset: 0xDB387, size: 0x8, addend: 0x0, symName: __ZNK11hb_buffer_t18collect_codepointsI12hb_bit_set_tEEvRT_, symObjAddr: 0xC7D8, symBinAddr: 0x12F1C, symSize: 0xE0 }
  - { offset: 0xDB5E7, size: 0x8, addend: 0x0, symName: __ZN3AAT33hb_aat_layout_chain_accelerator_t6createINS_5ChainINS_13ExtendedTypesEEEEEPS0_RKT_j, symObjAddr: 0xCC8C, symBinAddr: 0x133D0, symSize: 0xA8 }
  - { offset: 0xDB944, size: 0x8, addend: 0x0, symName: __ZN3AAT33hb_aat_layout_chain_accelerator_t6createINS_5ChainINS_13ObsoleteTypesEEEEEPS0_RKT_j, symObjAddr: 0x121A0, symBinAddr: 0x188E4, symSize: 0xA4 }
  - { offset: 0xDBC5F, size: 0x8, addend: 0x0, symName: __Z39hb_aat_layout_zero_width_deleted_glyphsP11hb_buffer_t, symObjAddr: 0x1448, symBinAddr: 0x7B8C, symSize: 0x44 }
  - { offset: 0xDBCDC, size: 0x8, addend: 0x0, symName: __Z35hb_aat_layout_remove_deleted_glyphsP11hb_buffer_t, symObjAddr: 0x148C, symBinAddr: 0x7BD0, symSize: 0xC }
  - { offset: 0xDBD07, size: 0x8, addend: 0x0, symName: __ZL16is_deleted_glyphPK15hb_glyph_info_t, symObjAddr: 0x1498, symBinAddr: 0x7BDC, symSize: 0x14 }
  - { offset: 0xDBDE9, size: 0x8, addend: 0x0, symName: _hb_aat_layout_has_positioning, symObjAddr: 0x14AC, symBinAddr: 0x7BF0, symSize: 0x4C }
  - { offset: 0xDBF70, size: 0x8, addend: 0x0, symName: __ZNK16hb_lazy_loader_tIN3AAT18kerx_accelerator_tE21hb_face_lazy_loader_tIS1_Lj30EE9hb_face_tLj30ES1_E3getEv, symObjAddr: 0x153C0, symBinAddr: 0x1BB04, symSize: 0xE4 }
  - { offset: 0xDC54A, size: 0x8, addend: 0x0, symName: __Z22hb_aat_layout_positionPK18hb_ot_shape_plan_tP9hb_font_tP11hb_buffer_t, symObjAddr: 0x14F8, symBinAddr: 0x7C3C, symSize: 0x1DC }
  - { offset: 0xDCCFE, size: 0x8, addend: 0x0, symName: __ZN22hb_table_lazy_loader_tIN3AAT4ankrELj31ELb0EE6createEP9hb_face_t, symObjAddr: 0x18354, symBinAddr: 0x1EA98, symSize: 0xA4 }
  - { offset: 0xDD048, size: 0x8, addend: 0x0, symName: _hb_aat_layout_has_tracking, symObjAddr: 0x16D4, symBinAddr: 0x7E18, symSize: 0xD0 }
  - { offset: 0xDD316, size: 0x8, addend: 0x0, symName: __ZN22hb_table_lazy_loader_tIN3AAT4trakELj32ELb0EE6createEP9hb_face_t, symObjAddr: 0x1D92C, symBinAddr: 0x24070, symSize: 0xA4 }
  - { offset: 0xDD9F1, size: 0x8, addend: 0x0, symName: _hb_aat_layout_get_feature_types, symObjAddr: 0x17A4, symBinAddr: 0x7EE8, symSize: 0x154 }
  - { offset: 0xDDF99, size: 0x8, addend: 0x0, symName: __ZN22hb_table_lazy_loader_tIN3AAT4featELj34ELb0EE6createEP9hb_face_t, symObjAddr: 0x1DE54, symBinAddr: 0x24598, symSize: 0xA4 }
  - { offset: 0xDE427, size: 0x8, addend: 0x0, symName: _hb_aat_layout_feature_type_get_name_id, symObjAddr: 0x18F8, symBinAddr: 0x803C, symSize: 0x13C }
  - { offset: 0xDE933, size: 0x8, addend: 0x0, symName: _hb_aat_layout_feature_type_get_selector_infos, symObjAddr: 0x1A34, symBinAddr: 0x8178, symSize: 0x158 }
  - { offset: 0xDF548, size: 0x8, addend: 0x0, symName: __ZN2OT4GDEF13accelerator_tC2EP9hb_face_t, symObjAddr: 0x1E44, symBinAddr: 0x8588, symSize: 0x1C8 }
  - { offset: 0xDFF5F, size: 0x8, addend: 0x0, symName: __ZN21hb_sanitize_context_t13sanitize_blobIN2OT4GDEFEEEP9hb_blob_tS4_, symObjAddr: 0x200C, symBinAddr: 0x8750, symSize: 0x288 }
  - { offset: 0xE030F, size: 0x8, addend: 0x0, symName: __ZNK2OT20MarkGlyphSetsFormat116collect_coverageI15hb_set_digest_tEEvR11hb_vector_tIT_Lb0EE, symObjAddr: 0x3128, symBinAddr: 0x986C, symSize: 0x3A4 }
  - { offset: 0xE0B0C, size: 0x8, addend: 0x0, symName: __ZNK2OT14GDEFVersion1_2INS_6Layout10SmallTypesEE8sanitizeEP21hb_sanitize_context_t, symObjAddr: 0x2294, symBinAddr: 0x89D8, symSize: 0x2A0 }
  - { offset: 0xE263D, size: 0x8, addend: 0x0, symName: __ZNK2OT8ClassDef8sanitizeEP21hb_sanitize_context_t, symObjAddr: 0x2534, symBinAddr: 0x8C78, symSize: 0xF4 }
  - { offset: 0xE2683, size: 0x8, addend: 0x0, symName: __ZNK2OT8ClassDef8sanitizeEP21hb_sanitize_context_t, symObjAddr: 0x2534, symBinAddr: 0x8C78, symSize: 0xF4 }
  - { offset: 0xE26A9, size: 0x8, addend: 0x0, symName: __ZNK2OT8ClassDef8sanitizeEP21hb_sanitize_context_t, symObjAddr: 0x2534, symBinAddr: 0x8C78, symSize: 0xF4 }
  - { offset: 0xE26CE, size: 0x8, addend: 0x0, symName: __ZNK2OT8ClassDef8sanitizeEP21hb_sanitize_context_t, symObjAddr: 0x2534, symBinAddr: 0x8C78, symSize: 0xF4 }
  - { offset: 0xE2A9B, size: 0x8, addend: 0x0, symName: __ZNK2OT10AttachList8sanitizeEP21hb_sanitize_context_t, symObjAddr: 0x2628, symBinAddr: 0x8D6C, symSize: 0x1B4 }
  - { offset: 0xE34C3, size: 0x8, addend: 0x0, symName: __ZNK2OT12LigCaretList8sanitizeEP21hb_sanitize_context_t, symObjAddr: 0x28D0, symBinAddr: 0x9014, symSize: 0x174 }
  - { offset: 0xE3D29, size: 0x8, addend: 0x0, symName: __ZN21hb_sanitize_context_t8dispatchIN2OT13MarkGlyphSetsEJEEEDTcl9_dispatchfp_cv11hb_priorityILj16EE_Espclsr3stdE7forwardIT0_Efp0_EEERKT_DpOS5_, symObjAddr: 0x2CBC, symBinAddr: 0x9400, symSize: 0x48 }
  - { offset: 0xE3DA5, size: 0x8, addend: 0x0, symName: __ZN21hb_sanitize_context_t8dispatchIN2OT13MarkGlyphSetsEJEEEDTcl9_dispatchfp_cv11hb_priorityILj16EE_Espclsr3stdE7forwardIT0_Efp0_EEERKT_DpOS5_, symObjAddr: 0x2CBC, symBinAddr: 0x9400, symSize: 0x48 }
  - { offset: 0xE3DCB, size: 0x8, addend: 0x0, symName: __ZN21hb_sanitize_context_t8dispatchIN2OT13MarkGlyphSetsEJEEEDTcl9_dispatchfp_cv11hb_priorityILj16EE_Espclsr3stdE7forwardIT0_Efp0_EEERKT_DpOS5_, symObjAddr: 0x2CBC, symBinAddr: 0x9400, symSize: 0x48 }
  - { offset: 0xE3DF0, size: 0x8, addend: 0x0, symName: __ZN21hb_sanitize_context_t8dispatchIN2OT13MarkGlyphSetsEJEEEDTcl9_dispatchfp_cv11hb_priorityILj16EE_Espclsr3stdE7forwardIT0_Efp0_EEERKT_DpOS5_, symObjAddr: 0x2CBC, symBinAddr: 0x9400, symSize: 0x48 }
  - { offset: 0xE3E94, size: 0x8, addend: 0x0, symName: __ZNK2OT18ItemVariationStore8sanitizeEP21hb_sanitize_context_t, symObjAddr: 0x2E24, symBinAddr: 0x9568, symSize: 0x20C }
  - { offset: 0xE51EC, size: 0x8, addend: 0x0, symName: __ZN21hb_sanitize_context_t9_dispatchIN2OT6Layout6Common8CoverageEJEEEDTcldtfp_8sanitizefpTspclsr3stdE7forwardIT0_Efp1_EEERKT_11hb_priorityILj1EEDpOS5_, symObjAddr: 0x27DC, symBinAddr: 0x8F20, symSize: 0xF4 }
  - { offset: 0xE524D, size: 0x8, addend: 0x0, symName: __ZN21hb_sanitize_context_t9_dispatchIN2OT6Layout6Common8CoverageEJEEEDTcldtfp_8sanitizefpTspclsr3stdE7forwardIT0_Efp1_EEERKT_11hb_priorityILj1EEDpOS5_, symObjAddr: 0x27DC, symBinAddr: 0x8F20, symSize: 0xF4 }
  - { offset: 0xE5272, size: 0x8, addend: 0x0, symName: __ZN21hb_sanitize_context_t9_dispatchIN2OT6Layout6Common8CoverageEJEEEDTcldtfp_8sanitizefpTspclsr3stdE7forwardIT0_Efp1_EEERKT_11hb_priorityILj1EEDpOS5_, symObjAddr: 0x27DC, symBinAddr: 0x8F20, symSize: 0xF4 }
  - { offset: 0xE5297, size: 0x8, addend: 0x0, symName: __ZN21hb_sanitize_context_t9_dispatchIN2OT6Layout6Common8CoverageEJEEEDTcldtfp_8sanitizefpTspclsr3stdE7forwardIT0_Efp1_EEERKT_11hb_priorityILj1EEDpOS5_, symObjAddr: 0x27DC, symBinAddr: 0x8F20, symSize: 0xF4 }
  - { offset: 0xE5AB4, size: 0x8, addend: 0x0, symName: __ZNK2OT8LigGlyph8sanitizeEP21hb_sanitize_context_t, symObjAddr: 0x2A44, symBinAddr: 0x9188, symSize: 0x17C }
  - { offset: 0xE6442, size: 0x8, addend: 0x0, symName: __ZNK2OT17CaretValueFormat38sanitizeEP21hb_sanitize_context_t, symObjAddr: 0x2BC0, symBinAddr: 0x9304, symSize: 0xFC }
  - { offset: 0xE6486, size: 0x8, addend: 0x0, symName: __ZNK2OT17CaretValueFormat38sanitizeEP21hb_sanitize_context_t, symObjAddr: 0x2BC0, symBinAddr: 0x9304, symSize: 0xFC }
  - { offset: 0xE64AB, size: 0x8, addend: 0x0, symName: __ZNK2OT17CaretValueFormat38sanitizeEP21hb_sanitize_context_t, symObjAddr: 0x2BC0, symBinAddr: 0x9304, symSize: 0xFC }
  - { offset: 0xE6BA5, size: 0x8, addend: 0x0, symName: __ZNK2OT20MarkGlyphSetsFormat18sanitizeEP21hb_sanitize_context_t, symObjAddr: 0x2D04, symBinAddr: 0x9448, symSize: 0x120 }
  - { offset: 0xE7AD4, size: 0x8, addend: 0x0, symName: __ZNK2OT7VarData8sanitizeEP21hb_sanitize_context_t, symObjAddr: 0x3030, symBinAddr: 0x9774, symSize: 0xF8 }
  - { offset: 0xE7B1A, size: 0x8, addend: 0x0, symName: __ZNK2OT7VarData8sanitizeEP21hb_sanitize_context_t, symObjAddr: 0x3030, symBinAddr: 0x9774, symSize: 0xF8 }
  - { offset: 0xE86A7, size: 0x8, addend: 0x0, symName: __ZN21hb_sanitize_context_t13sanitize_blobIN2OT6Layout4GSUBEEEP9hb_blob_tS5_, symObjAddr: 0x3658, symBinAddr: 0x9D9C, symSize: 0x288 }
  - { offset: 0xE8B4E, size: 0x8, addend: 0x0, symName: __ZNK2OT18GSUBGPOSVersion1_2INS_6Layout10SmallTypesEE8sanitizeINS1_9GSUB_impl11SubstLookupEEEbP21hb_sanitize_context_t, symObjAddr: 0x38E0, symBinAddr: 0xA024, symSize: 0x1A0 }
  - { offset: 0xE9E1D, size: 0x8, addend: 0x0, symName: __ZNK2OT12RecordListOfINS_6ScriptEE8sanitizeEP21hb_sanitize_context_t, symObjAddr: 0x3A80, symBinAddr: 0xA1C4, symSize: 0x150 }
  - { offset: 0xEA46F, size: 0x8, addend: 0x0, symName: __ZNK2OT12RecordListOfINS_7FeatureEE8sanitizeEP21hb_sanitize_context_t, symObjAddr: 0x3DC8, symBinAddr: 0xA50C, symSize: 0x150 }
  - { offset: 0xEAAC1, size: 0x8, addend: 0x0, symName: __ZNK2OT16List16OfOffsetToINS_6Layout9GSUB_impl11SubstLookupENS_7IntTypeItLj2EEEE8sanitizeIJEEEbP21hb_sanitize_context_tDpOT_, symObjAddr: 0x4248, symBinAddr: 0xA98C, symSize: 0x120 }
  - { offset: 0xEB01B, size: 0x8, addend: 0x0, symName: __ZNK2OT17FeatureVariations8sanitizeEP21hb_sanitize_context_t, symObjAddr: 0x6544, symBinAddr: 0xCC88, symSize: 0x140 }
  - { offset: 0xEB787, size: 0x8, addend: 0x0, symName: __ZNK2OT6Script8sanitizeEP21hb_sanitize_context_tPKNS_25Record_sanitize_closure_tE, symObjAddr: 0x3BD0, symBinAddr: 0xA314, symSize: 0x1F8 }
  - { offset: 0xEB804, size: 0x8, addend: 0x0, symName: __ZNK2OT6Script8sanitizeEP21hb_sanitize_context_tPKNS_25Record_sanitize_closure_tE, symObjAddr: 0x3BD0, symBinAddr: 0xA314, symSize: 0x1F8 }
  - { offset: 0xEB832, size: 0x8, addend: 0x0, symName: __ZNK2OT6Script8sanitizeEP21hb_sanitize_context_tPKNS_25Record_sanitize_closure_tE, symObjAddr: 0x3BD0, symBinAddr: 0xA314, symSize: 0x1F8 }
  - { offset: 0xEB858, size: 0x8, addend: 0x0, symName: __ZNK2OT6Script8sanitizeEP21hb_sanitize_context_tPKNS_25Record_sanitize_closure_tE, symObjAddr: 0x3BD0, symBinAddr: 0xA314, symSize: 0x1F8 }
  - { offset: 0xECB65, size: 0x8, addend: 0x0, symName: __ZNK2OT7Feature8sanitizeEP21hb_sanitize_context_tPKNS_25Record_sanitize_closure_tE, symObjAddr: 0x3F18, symBinAddr: 0xA65C, symSize: 0x1E8 }
  - { offset: 0xED66C, size: 0x8, addend: 0x0, symName: __ZNK2OT13FeatureParams8sanitizeEP21hb_sanitize_context_tj, symObjAddr: 0x4100, symBinAddr: 0xA844, symSize: 0x148 }
  - { offset: 0xEE05B, size: 0x8, addend: 0x0, symName: __ZNK2OT6Lookup8sanitizeINS_6Layout9GSUB_impl19SubstLookupSubTableEEEbP21hb_sanitize_context_t, symObjAddr: 0x4368, symBinAddr: 0xAAAC, symSize: 0x2F4 }
  - { offset: 0xEF3C7, size: 0x8, addend: 0x0, symName: __ZNK2OT6Layout9GSUB_impl19SubstLookupSubTable8dispatchI21hb_sanitize_context_tJEEENT_8return_tEPS5_jDpOT0_, symObjAddr: 0x465C, symBinAddr: 0xADA0, symSize: 0x224 }
  - { offset: 0xF0C3C, size: 0x8, addend: 0x0, symName: __ZNK2OT6Layout9GSUB_impl11SingleSubst8dispatchI21hb_sanitize_context_tJEEENT_8return_tEPS5_DpOT0_, symObjAddr: 0x48A0, symBinAddr: 0xAFE4, symSize: 0x14C }
  - { offset: 0xF125D, size: 0x8, addend: 0x0, symName: __ZNK2OT6Layout9GSUB_impl22MultipleSubstFormat1_2INS0_10SmallTypesEE8sanitizeEP21hb_sanitize_context_t, symObjAddr: 0x4C50, symBinAddr: 0xB394, symSize: 0x1B4 }
  - { offset: 0xF1CBF, size: 0x8, addend: 0x0, symName: __ZNK2OT6Layout9GSUB_impl23AlternateSubstFormat1_2INS0_10SmallTypesEE8sanitizeEP21hb_sanitize_context_t, symObjAddr: 0x4E04, symBinAddr: 0xB548, symSize: 0x1B4 }
  - { offset: 0xF2721, size: 0x8, addend: 0x0, symName: __ZNK2OT6Layout9GSUB_impl22LigatureSubstFormat1_2INS0_10SmallTypesEE8sanitizeEP21hb_sanitize_context_t, symObjAddr: 0x4FB8, symBinAddr: 0xB6FC, symSize: 0x174 }
  - { offset: 0xF2F95, size: 0x8, addend: 0x0, symName: __ZNK2OT16ContextFormat1_4INS_6Layout10SmallTypesEE8sanitizeEP21hb_sanitize_context_t, symObjAddr: 0x5280, symBinAddr: 0xB9C4, symSize: 0x174 }
  - { offset: 0xF380D, size: 0x8, addend: 0x0, symName: __ZNK2OT21ChainContextFormat1_4INS_6Layout10SmallTypesEE8sanitizeEP21hb_sanitize_context_t, symObjAddr: 0x5888, symBinAddr: 0xBFCC, symSize: 0x174 }
  - { offset: 0xF4085, size: 0x8, addend: 0x0, symName: __ZNK2OT6Layout9GSUB_impl30ReverseChainSingleSubstFormat18sanitizeEP21hb_sanitize_context_t, symObjAddr: 0x625C, symBinAddr: 0xC9A0, symSize: 0x2E8 }
  - { offset: 0xF50C3, size: 0x8, addend: 0x0, symName: __ZNK2OT14ContextFormat38sanitizeEP21hb_sanitize_context_t, symObjAddr: 0x5714, symBinAddr: 0xBE58, symSize: 0x174 }
  - { offset: 0xF5655, size: 0x8, addend: 0x0, symName: __ZNK2OT16ContextFormat2_5INS_6Layout10SmallTypesEE8sanitizeEP21hb_sanitize_context_t, symObjAddr: 0x554C, symBinAddr: 0xBC90, symSize: 0x1C8 }
  - { offset: 0xF618F, size: 0x8, addend: 0x0, symName: __ZNK2OT19ChainContextFormat38sanitizeEP21hb_sanitize_context_t, symObjAddr: 0x5E88, symBinAddr: 0xC5CC, symSize: 0x3D4 }
  - { offset: 0xF73C9, size: 0x8, addend: 0x0, symName: __ZNK2OT21ChainContextFormat2_5INS_6Layout10SmallTypesEE8sanitizeEP21hb_sanitize_context_t, symObjAddr: 0x5C18, symBinAddr: 0xC35C, symSize: 0x270 }
  - { offset: 0xF85DB, size: 0x8, addend: 0x0, symName: __ZNK2OT6Layout9GSUB_impl20SingleSubstFormat1_3INS0_10SmallTypesEE8sanitizeEP21hb_sanitize_context_t, symObjAddr: 0x49EC, symBinAddr: 0xB130, symSize: 0x264 }
  - { offset: 0xF96DC, size: 0x8, addend: 0x0, symName: __ZNK2OT6Layout9GSUB_impl11LigatureSetINS0_10SmallTypesEE8sanitizeEP21hb_sanitize_context_t, symObjAddr: 0x512C, symBinAddr: 0xB870, symSize: 0x154 }
  - { offset: 0xF9720, size: 0x8, addend: 0x0, symName: __ZNK2OT6Layout9GSUB_impl11LigatureSetINS0_10SmallTypesEE8sanitizeEP21hb_sanitize_context_t, symObjAddr: 0x512C, symBinAddr: 0xB870, symSize: 0x154 }
  - { offset: 0xF974F, size: 0x8, addend: 0x0, symName: __ZNK2OT6Layout9GSUB_impl11LigatureSetINS0_10SmallTypesEE8sanitizeEP21hb_sanitize_context_t, symObjAddr: 0x512C, symBinAddr: 0xB870, symSize: 0x154 }
  - { offset: 0xF9775, size: 0x8, addend: 0x0, symName: __ZNK2OT6Layout9GSUB_impl11LigatureSetINS0_10SmallTypesEE8sanitizeEP21hb_sanitize_context_t, symObjAddr: 0x512C, symBinAddr: 0xB870, symSize: 0x154 }
  - { offset: 0xF979B, size: 0x8, addend: 0x0, symName: __ZNK2OT6Layout9GSUB_impl11LigatureSetINS0_10SmallTypesEE8sanitizeEP21hb_sanitize_context_t, symObjAddr: 0x512C, symBinAddr: 0xB870, symSize: 0x154 }
  - { offset: 0xFA534, size: 0x8, addend: 0x0, symName: __ZNK2OT7RuleSetINS_6Layout10SmallTypesEE8sanitizeEP21hb_sanitize_context_t, symObjAddr: 0x53F4, symBinAddr: 0xBB38, symSize: 0x158 }
  - { offset: 0xFA57A, size: 0x8, addend: 0x0, symName: __ZNK2OT7RuleSetINS_6Layout10SmallTypesEE8sanitizeEP21hb_sanitize_context_t, symObjAddr: 0x53F4, symBinAddr: 0xBB38, symSize: 0x158 }
  - { offset: 0xFA5AA, size: 0x8, addend: 0x0, symName: __ZNK2OT7RuleSetINS_6Layout10SmallTypesEE8sanitizeEP21hb_sanitize_context_t, symObjAddr: 0x53F4, symBinAddr: 0xBB38, symSize: 0x158 }
  - { offset: 0xFA5D0, size: 0x8, addend: 0x0, symName: __ZNK2OT7RuleSetINS_6Layout10SmallTypesEE8sanitizeEP21hb_sanitize_context_t, symObjAddr: 0x53F4, symBinAddr: 0xBB38, symSize: 0x158 }
  - { offset: 0xFA5F6, size: 0x8, addend: 0x0, symName: __ZNK2OT7RuleSetINS_6Layout10SmallTypesEE8sanitizeEP21hb_sanitize_context_t, symObjAddr: 0x53F4, symBinAddr: 0xBB38, symSize: 0x158 }
  - { offset: 0xFB4FC, size: 0x8, addend: 0x0, symName: __ZNK2OT12ChainRuleSetINS_6Layout10SmallTypesEE8sanitizeEP21hb_sanitize_context_t, symObjAddr: 0x59FC, symBinAddr: 0xC140, symSize: 0x120 }
  - { offset: 0xFBD6B, size: 0x8, addend: 0x0, symName: __ZNK2OT9ChainRuleINS_6Layout10SmallTypesEE8sanitizeEP21hb_sanitize_context_t, symObjAddr: 0x5B1C, symBinAddr: 0xC260, symSize: 0xFC }
  - { offset: 0xFBDE4, size: 0x8, addend: 0x0, symName: __ZNK2OT9ChainRuleINS_6Layout10SmallTypesEE8sanitizeEP21hb_sanitize_context_t, symObjAddr: 0x5B1C, symBinAddr: 0xC260, symSize: 0xFC }
  - { offset: 0xFBE0A, size: 0x8, addend: 0x0, symName: __ZNK2OT9ChainRuleINS_6Layout10SmallTypesEE8sanitizeEP21hb_sanitize_context_t, symObjAddr: 0x5B1C, symBinAddr: 0xC260, symSize: 0xFC }
  - { offset: 0xFBE2F, size: 0x8, addend: 0x0, symName: __ZNK2OT9ChainRuleINS_6Layout10SmallTypesEE8sanitizeEP21hb_sanitize_context_t, symObjAddr: 0x5B1C, symBinAddr: 0xC260, symSize: 0xFC }
  - { offset: 0xFCA4D, size: 0x8, addend: 0x0, symName: __ZNK2OT22FeatureVariationRecord8sanitizeEP21hb_sanitize_context_tPKv, symObjAddr: 0x6684, symBinAddr: 0xCDC8, symSize: 0xEC }
  - { offset: 0xFD3C9, size: 0x8, addend: 0x0, symName: __ZNK2OT12ConditionSet8sanitizeEP21hb_sanitize_context_t, symObjAddr: 0x6770, symBinAddr: 0xCEB4, symSize: 0x120 }
  - { offset: 0xFD8F8, size: 0x8, addend: 0x0, symName: __ZNK2OT24FeatureTableSubstitution8sanitizeEP21hb_sanitize_context_t, symObjAddr: 0x6C2C, symBinAddr: 0xD370, symSize: 0x154 }
  - { offset: 0xFE244, size: 0x8, addend: 0x0, symName: __ZNK2OT9Condition8sanitizeEP21hb_sanitize_context_t, symObjAddr: 0x6890, symBinAddr: 0xCFD4, symSize: 0x130 }
  - { offset: 0xFE8D2, size: 0x8, addend: 0x0, symName: __ZNK2OT12ConditionAnd8sanitizeEP21hb_sanitize_context_t, symObjAddr: 0x69D4, symBinAddr: 0xD118, symSize: 0x12C }
  - { offset: 0xFEEC9, size: 0x8, addend: 0x0, symName: __ZNK2OT11ConditionOr8sanitizeEP21hb_sanitize_context_t, symObjAddr: 0x6B00, symBinAddr: 0xD244, symSize: 0x12C }
  - { offset: 0xFFC8D, size: 0x8, addend: 0x0, symName: __ZN21hb_sanitize_context_t13sanitize_blobIN3AAT4morxEEEP9hb_blob_tS4_, symObjAddr: 0x6F54, symBinAddr: 0xD698, symSize: 0x264 }
  - { offset: 0x10047A, size: 0x8, addend: 0x0, symName: __ZNK3AAT5ChainINS_13ExtendedTypesEE8sanitizeEP21hb_sanitize_context_tj, symObjAddr: 0x71B8, symBinAddr: 0xD8FC, symSize: 0x1D8 }
  - { offset: 0x100B90, size: 0x8, addend: 0x0, symName: __ZNK3AAT13ChainSubtableINS_13ExtendedTypesEE8dispatchI21hb_sanitize_context_tJEEENT_8return_tEPS5_DpOT0_, symObjAddr: 0x7478, symBinAddr: 0xDBBC, symSize: 0x130 }
  - { offset: 0x1010A0, size: 0x8, addend: 0x0, symName: __ZNK3AAT21SubtableGlyphCoverage8sanitizeEP21hb_sanitize_context_tj, symObjAddr: 0x7390, symBinAddr: 0xDAD4, symSize: 0xE8 }
  - { offset: 0x101106, size: 0x8, addend: 0x0, symName: __ZNK3AAT21SubtableGlyphCoverage8sanitizeEP21hb_sanitize_context_tj, symObjAddr: 0x7390, symBinAddr: 0xDAD4, symSize: 0xE8 }
  - { offset: 0x101134, size: 0x8, addend: 0x0, symName: __ZNK3AAT21SubtableGlyphCoverage8sanitizeEP21hb_sanitize_context_tj, symObjAddr: 0x7390, symBinAddr: 0xDAD4, symSize: 0xE8 }
  - { offset: 0x101B8A, size: 0x8, addend: 0x0, symName: __ZNK3AAT10StateTableINS_13ExtendedTypesEvE8sanitizeEP21hb_sanitize_context_tPj, symObjAddr: 0x75C0, symBinAddr: 0xDD04, symSize: 0x700 }
  - { offset: 0x102183, size: 0x8, addend: 0x0, symName: __ZNK3AAT18ContextualSubtableINS_13ExtendedTypesEE8sanitizeEP21hb_sanitize_context_t, symObjAddr: 0x80C0, symBinAddr: 0xE804, symSize: 0x210 }
  - { offset: 0x1027A1, size: 0x8, addend: 0x0, symName: __ZNK3AAT6LookupIN2OT11HBGlyphID16EE8sanitizeEP21hb_sanitize_context_t, symObjAddr: 0x886C, symBinAddr: 0xEFB0, symSize: 0x1C4 }
  - { offset: 0x1027E7, size: 0x8, addend: 0x0, symName: __ZNK3AAT6LookupIN2OT11HBGlyphID16EE8sanitizeEP21hb_sanitize_context_t, symObjAddr: 0x886C, symBinAddr: 0xEFB0, symSize: 0x1C4 }
  - { offset: 0x10280D, size: 0x8, addend: 0x0, symName: __ZNK3AAT6LookupIN2OT11HBGlyphID16EE8sanitizeEP21hb_sanitize_context_t, symObjAddr: 0x886C, symBinAddr: 0xEFB0, symSize: 0x1C4 }
  - { offset: 0x103192, size: 0x8, addend: 0x0, symName: __ZNK3AAT10StateTableINS_13ExtendedTypesENS_13LigatureEntryILb1EE9EntryDataEE8sanitizeEP21hb_sanitize_context_tPj, symObjAddr: 0x8C6C, symBinAddr: 0xF3B0, symSize: 0x5D8 }
  - { offset: 0x10378B, size: 0x8, addend: 0x0, symName: __ZNK3AAT10StateTableINS_13ExtendedTypesENS_17InsertionSubtableIS1_E9EntryDataEE8sanitizeEP21hb_sanitize_context_tPj, symObjAddr: 0x9244, symBinAddr: 0xF988, symSize: 0x59C }
  - { offset: 0x103FDF, size: 0x8, addend: 0x0, symName: __ZNK3AAT6LookupIN2OT7IntTypeItLj2EEEE8sanitizeEP21hb_sanitize_context_t, symObjAddr: 0x7CC0, symBinAddr: 0xE404, symSize: 0x1C4 }
  - { offset: 0x104025, size: 0x8, addend: 0x0, symName: __ZNK3AAT6LookupIN2OT7IntTypeItLj2EEEE8sanitizeEP21hb_sanitize_context_t, symObjAddr: 0x7CC0, symBinAddr: 0xE404, symSize: 0x1C4 }
  - { offset: 0x10404B, size: 0x8, addend: 0x0, symName: __ZNK3AAT6LookupIN2OT7IntTypeItLj2EEEE8sanitizeEP21hb_sanitize_context_t, symObjAddr: 0x7CC0, symBinAddr: 0xE404, symSize: 0x1C4 }
  - { offset: 0x104D30, size: 0x8, addend: 0x0, symName: __ZNK3AAT13LookupFormat4IN2OT7IntTypeItLj2EEEE8sanitizeEP21hb_sanitize_context_t, symObjAddr: 0x7EB0, symBinAddr: 0xE5F4, symSize: 0x210 }
  - { offset: 0x104D76, size: 0x8, addend: 0x0, symName: __ZNK3AAT13LookupFormat4IN2OT7IntTypeItLj2EEEE8sanitizeEP21hb_sanitize_context_t, symObjAddr: 0x7EB0, symBinAddr: 0xE5F4, symSize: 0x210 }
  - { offset: 0x104DA8, size: 0x8, addend: 0x0, symName: __ZNK3AAT13LookupFormat4IN2OT7IntTypeItLj2EEEE8sanitizeEP21hb_sanitize_context_t, symObjAddr: 0x7EB0, symBinAddr: 0xE5F4, symSize: 0x210 }
  - { offset: 0x104DD0, size: 0x8, addend: 0x0, symName: __ZNK3AAT13LookupFormat4IN2OT7IntTypeItLj2EEEE8sanitizeEP21hb_sanitize_context_t, symObjAddr: 0x7EB0, symBinAddr: 0xE5F4, symSize: 0x210 }
  - { offset: 0x104DF8, size: 0x8, addend: 0x0, symName: __ZNK3AAT13LookupFormat4IN2OT7IntTypeItLj2EEEE8sanitizeEP21hb_sanitize_context_t, symObjAddr: 0x7EB0, symBinAddr: 0xE5F4, symSize: 0x210 }
  - { offset: 0x105E97, size: 0x8, addend: 0x0, symName: __ZNK3AAT10StateTableINS_13ExtendedTypesENS_18ContextualSubtableIS1_E9EntryDataEE8sanitizeEP21hb_sanitize_context_tPj, symObjAddr: 0x82D0, symBinAddr: 0xEA14, symSize: 0x59C }
  - { offset: 0x106889, size: 0x8, addend: 0x0, symName: __ZNK3AAT13LookupFormat4IN2OT11HBGlyphID16EE8sanitizeEP21hb_sanitize_context_t, symObjAddr: 0x8A5C, symBinAddr: 0xF1A0, symSize: 0x210 }
  - { offset: 0x1068CF, size: 0x8, addend: 0x0, symName: __ZNK3AAT13LookupFormat4IN2OT11HBGlyphID16EE8sanitizeEP21hb_sanitize_context_t, symObjAddr: 0x8A5C, symBinAddr: 0xF1A0, symSize: 0x210 }
  - { offset: 0x106901, size: 0x8, addend: 0x0, symName: __ZNK3AAT13LookupFormat4IN2OT11HBGlyphID16EE8sanitizeEP21hb_sanitize_context_t, symObjAddr: 0x8A5C, symBinAddr: 0xF1A0, symSize: 0x210 }
  - { offset: 0x106929, size: 0x8, addend: 0x0, symName: __ZNK3AAT13LookupFormat4IN2OT11HBGlyphID16EE8sanitizeEP21hb_sanitize_context_t, symObjAddr: 0x8A5C, symBinAddr: 0xF1A0, symSize: 0x210 }
  - { offset: 0x106951, size: 0x8, addend: 0x0, symName: __ZNK3AAT13LookupFormat4IN2OT11HBGlyphID16EE8sanitizeEP21hb_sanitize_context_t, symObjAddr: 0x8A5C, symBinAddr: 0xF1A0, symSize: 0x210 }
  - { offset: 0x107D4D, size: 0x8, addend: 0x0, symName: __ZN22hb_table_lazy_loader_tIN3AAT4ltagELj33ELb0EE6createEP9hb_face_t, symObjAddr: 0x9C78, symBinAddr: 0x103BC, symSize: 0xA4 }
  - { offset: 0x107F4D, size: 0x8, addend: 0x0, symName: __ZN21hb_sanitize_context_t13sanitize_blobIN3AAT4ltagEEEP9hb_blob_tS4_, symObjAddr: 0x9D1C, symBinAddr: 0x10460, symSize: 0x21C }
  - { offset: 0x10817C, size: 0x8, addend: 0x0, symName: __ZNK3AAT4ltag8sanitizeEP21hb_sanitize_context_t, symObjAddr: 0x9F38, symBinAddr: 0x1067C, symSize: 0x130 }
  - { offset: 0x1081C0, size: 0x8, addend: 0x0, symName: __ZNK3AAT4ltag8sanitizeEP21hb_sanitize_context_t, symObjAddr: 0x9F38, symBinAddr: 0x1067C, symSize: 0x130 }
  - { offset: 0x108A4A, size: 0x8, addend: 0x0, symName: __ZN21hb_sanitize_context_t13sanitize_blobIN3AAT4mortEEEP9hb_blob_tS4_, symObjAddr: 0xA17C, symBinAddr: 0x108C0, symSize: 0x264 }
  - { offset: 0x109237, size: 0x8, addend: 0x0, symName: __ZNK3AAT5ChainINS_13ObsoleteTypesEE8sanitizeEP21hb_sanitize_context_tj, symObjAddr: 0xA3E0, symBinAddr: 0x10B24, symSize: 0x1D0 }
  - { offset: 0x109867, size: 0x8, addend: 0x0, symName: __ZNK3AAT13ChainSubtableINS_13ObsoleteTypesEE8dispatchI21hb_sanitize_context_tJEEENT_8return_tEPS5_DpOT0_, symObjAddr: 0xA5B0, symBinAddr: 0x10CF4, symSize: 0x1C8 }
  - { offset: 0x10A7A0, size: 0x8, addend: 0x0, symName: __ZNK3AAT10StateTableINS_13ObsoleteTypesEvE8sanitizeEP21hb_sanitize_context_tPj, symObjAddr: 0xA790, symBinAddr: 0x10ED4, symSize: 0x5D8 }
  - { offset: 0x10B075, size: 0x8, addend: 0x0, symName: __ZNK3AAT10StateTableINS_13ObsoleteTypesENS_18ContextualSubtableIS1_E9EntryDataEE8sanitizeEP21hb_sanitize_context_tPj, symObjAddr: 0xAD68, symBinAddr: 0x114AC, symSize: 0x5D8 }
  - { offset: 0x10B94A, size: 0x8, addend: 0x0, symName: __ZNK3AAT10StateTableINS_13ObsoleteTypesENS_17InsertionSubtableIS1_E9EntryDataEE8sanitizeEP21hb_sanitize_context_tPj, symObjAddr: 0xB340, symBinAddr: 0x11A84, symSize: 0x5D8 }
  - { offset: 0x10DDD3, size: 0x8, addend: 0x0, symName: __ZNK3AAT13ChainSubtableINS_13ExtendedTypesEE8dispatchINS_22hb_aat_apply_context_tEJEEENT_8return_tEPS5_DpOT0_, symObjAddr: 0xE8B4, symBinAddr: 0x14FF8, symSize: 0x13C }
  - { offset: 0x10E205, size: 0x8, addend: 0x0, symName: __ZN11hb_buffer_t16_set_glyph_flagsEjjjbb, symObjAddr: 0xC054, symBinAddr: 0x12798, symSize: 0x658 }
  - { offset: 0x10E52C, size: 0x8, addend: 0x0, symName: __ZN11hb_buffer_t22_infos_set_glyph_flagsEP15hb_glyph_info_tjjjj, symObjAddr: 0xC6AC, symBinAddr: 0x12DF0, symSize: 0x12C }
  - { offset: 0x10E8BF, size: 0x8, addend: 0x0, symName: __ZN12hb_bit_set_t6resizeEjbb, symObjAddr: 0xC8B8, symBinAddr: 0x12FFC, symSize: 0x138 }
  - { offset: 0x10EA83, size: 0x8, addend: 0x0, symName: __ZN12hb_bit_set_t8page_forEjb, symObjAddr: 0xCB34, symBinAddr: 0x13278, symSize: 0x158 }
  - { offset: 0x10EEE3, size: 0x8, addend: 0x0, symName: __ZN11hb_vector_tI13hb_bit_page_tLb0EE6resizeEibb, symObjAddr: 0xC9F0, symBinAddr: 0x13134, symSize: 0x144 }
  - { offset: 0x10F5D2, size: 0x8, addend: 0x0, symName: __ZNK3AAT13ChainSubtableINS_13ExtendedTypesEE8dispatchINS_33hb_accelerate_subtables_context_tEJEEENT_8return_tEPS5_DpOT0_, symObjAddr: 0xCD34, symBinAddr: 0x13478, symSize: 0x1C8 }
  - { offset: 0x1100D3, size: 0x8, addend: 0x0, symName: __ZNK3AAT10StateTableINS_13ExtendedTypesEvE22collect_initial_glyphsI12hb_bit_set_tNS_21RearrangementSubtableIS1_EEEEvRT_jRKT0_, symObjAddr: 0xD104, symBinAddr: 0x13848, symSize: 0xFC }
  - { offset: 0x1105A0, size: 0x8, addend: 0x0, symName: __ZN10hb_cache_tILj15ELj8ELj7ELb1EE5clearEv, symObjAddr: 0xCEFC, symBinAddr: 0x13640, symSize: 0x208 }
  - { offset: 0x110668, size: 0x8, addend: 0x0, symName: __ZNK3AAT10StateTableINS_13ExtendedTypesENS_18ContextualSubtableIS1_E9EntryDataEE22collect_initial_glyphsI12hb_bit_set_tS3_EEvRT_jRKT0_, symObjAddr: 0xE090, symBinAddr: 0x147D4, symSize: 0x118 }
  - { offset: 0x110B8A, size: 0x8, addend: 0x0, symName: __ZNK3AAT10StateTableINS_13ExtendedTypesENS_13LigatureEntryILb1EE9EntryDataEE22collect_initial_glyphsI12hb_bit_set_tNS_16LigatureSubtableIS1_EEEEvRT_jRKT0_, symObjAddr: 0xE1A8, symBinAddr: 0x148EC, symSize: 0xFC }
  - { offset: 0x11102D, size: 0x8, addend: 0x0, symName: __ZNK3AAT6LookupIN2OT11HBGlyphID16EE14collect_glyphsI12hb_bit_set_tEEvRT_j, symObjAddr: 0xE2A4, symBinAddr: 0x149E8, symSize: 0xA0 }
  - { offset: 0x111079, size: 0x8, addend: 0x0, symName: __ZNK3AAT6LookupIN2OT11HBGlyphID16EE14collect_glyphsI12hb_bit_set_tEEvRT_j, symObjAddr: 0xE2A4, symBinAddr: 0x149E8, symSize: 0xA0 }
  - { offset: 0x111097, size: 0x8, addend: 0x0, symName: __ZNK3AAT6LookupIN2OT11HBGlyphID16EE14collect_glyphsI12hb_bit_set_tEEvRT_j, symObjAddr: 0xE2A4, symBinAddr: 0x149E8, symSize: 0xA0 }
  - { offset: 0x111388, size: 0x8, addend: 0x0, symName: __ZNK3AAT10StateTableINS_13ExtendedTypesENS_17InsertionSubtableIS1_E9EntryDataEE22collect_initial_glyphsI12hb_bit_set_tS3_EEvRT_jRKT0_, symObjAddr: 0xE78C, symBinAddr: 0x14ED0, symSize: 0x128 }
  - { offset: 0x111A17, size: 0x8, addend: 0x0, symName: __ZNK3AAT6LookupIN2OT7IntTypeItLj2EEEE23collect_glyphs_filteredI12hb_bit_set_t13hb_bit_page_tEEvRT_jRKT0_, symObjAddr: 0xD2CC, symBinAddr: 0x13A10, symSize: 0x168 }
  - { offset: 0x111D7A, size: 0x8, addend: 0x0, symName: __ZNK3AAT6LookupIN2OT7IntTypeItLj2EEEE14collect_glyphsI12hb_bit_set_tEEvRT_j, symObjAddr: 0xD200, symBinAddr: 0x13944, symSize: 0xA0 }
  - { offset: 0x111DC6, size: 0x8, addend: 0x0, symName: __ZNK3AAT6LookupIN2OT7IntTypeItLj2EEEE14collect_glyphsI12hb_bit_set_tEEvRT_j, symObjAddr: 0xD200, symBinAddr: 0x13944, symSize: 0xA0 }
  - { offset: 0x111DE4, size: 0x8, addend: 0x0, symName: __ZNK3AAT6LookupIN2OT7IntTypeItLj2EEEE14collect_glyphsI12hb_bit_set_tEEvRT_j, symObjAddr: 0xD200, symBinAddr: 0x13944, symSize: 0xA0 }
  - { offset: 0x112164, size: 0x8, addend: 0x0, symName: __ZN12hb_bit_set_t9add_rangeEjj, symObjAddr: 0xD874, symBinAddr: 0x13FB8, symSize: 0x21C }
  - { offset: 0x1125CD, size: 0x8, addend: 0x0, symName: __ZNK3AAT13LookupFormat2IN2OT7IntTypeItLj2EEEE14collect_glyphsI12hb_bit_set_tEEvRT_, symObjAddr: 0xD458, symBinAddr: 0x13B9C, symSize: 0x15C }
  - { offset: 0x1129E9, size: 0x8, addend: 0x0, symName: __ZNK3AAT13LookupFormat4IN2OT7IntTypeItLj2EEEE14collect_glyphsI12hb_bit_set_tEEvRT_, symObjAddr: 0xD5B4, symBinAddr: 0x13CF8, symSize: 0x15C }
  - { offset: 0x112E0D, size: 0x8, addend: 0x0, symName: __ZNK3AAT13LookupFormat6IN2OT7IntTypeItLj2EEEE14collect_glyphsI12hb_bit_set_tEEvRT_, symObjAddr: 0xD710, symBinAddr: 0x13E54, symSize: 0x164 }
  - { offset: 0x113367, size: 0x8, addend: 0x0, symName: __ZNK3AAT13LookupFormat2IN2OT7IntTypeItLj2EEEE23collect_glyphs_filteredI12hb_bit_set_t13hb_bit_page_tEEvRT_RKT0_, symObjAddr: 0xDA90, symBinAddr: 0x141D4, symSize: 0x164 }
  - { offset: 0x113837, size: 0x8, addend: 0x0, symName: __ZNK3AAT13LookupFormat4IN2OT7IntTypeItLj2EEEE23collect_glyphs_filteredI12hb_bit_set_t13hb_bit_page_tEEvRT_RKT0_, symObjAddr: 0xDBF4, symBinAddr: 0x14338, symSize: 0x138 }
  - { offset: 0x113BF0, size: 0x8, addend: 0x0, symName: __ZNK3AAT13LookupFormat6IN2OT7IntTypeItLj2EEEE23collect_glyphs_filteredI12hb_bit_set_t13hb_bit_page_tEEvRT_RKT0_, symObjAddr: 0xDD2C, symBinAddr: 0x14470, symSize: 0x17C }
  - { offset: 0x1140B2, size: 0x8, addend: 0x0, symName: __ZNK3AAT13LookupFormat8IN2OT7IntTypeItLj2EEEE23collect_glyphs_filteredI12hb_bit_set_t13hb_bit_page_tEEvRT_RKT0_, symObjAddr: 0xDEA8, symBinAddr: 0x145EC, symSize: 0xF8 }
  - { offset: 0x11460A, size: 0x8, addend: 0x0, symName: __ZNK3AAT18LookupSegmentArrayIN2OT7IntTypeItLj2EEEE23collect_glyphs_filteredI12hb_bit_set_t13hb_bit_page_tEEvRT_PKvRKT0_, symObjAddr: 0xDFA0, symBinAddr: 0x146E4, symSize: 0xF0 }
  - { offset: 0x114AFE, size: 0x8, addend: 0x0, symName: __ZNK3AAT13LookupFormat2IN2OT11HBGlyphID16EE14collect_glyphsI12hb_bit_set_tEEvRT_, symObjAddr: 0xE370, symBinAddr: 0x14AB4, symSize: 0x15C }
  - { offset: 0x114F1A, size: 0x8, addend: 0x0, symName: __ZNK3AAT13LookupFormat4IN2OT11HBGlyphID16EE14collect_glyphsI12hb_bit_set_tEEvRT_, symObjAddr: 0xE4CC, symBinAddr: 0x14C10, symSize: 0x15C }
  - { offset: 0x11533E, size: 0x8, addend: 0x0, symName: __ZNK3AAT13LookupFormat6IN2OT11HBGlyphID16EE14collect_glyphsI12hb_bit_set_tEEvRT_, symObjAddr: 0xE628, symBinAddr: 0x14D6C, symSize: 0x164 }
  - { offset: 0x115C4B, size: 0x8, addend: 0x0, symName: __ZNK3AAT22hb_aat_apply_context_t25buffer_intersects_machineEv, symObjAddr: 0xE9F0, symBinAddr: 0x15134, symSize: 0x118 }
  - { offset: 0x115EE7, size: 0x8, addend: 0x0, symName: __ZN3AAT16StateTableDriverINS_13ExtendedTypesEvNS_21RearrangementSubtableIS1_E5FlagsEE5driveINS3_16driver_context_tEEEvPT_PNS_22hb_aat_apply_context_tE, symObjAddr: 0xEB08, symBinAddr: 0x1524C, symSize: 0x404 }
  - { offset: 0x1168BE, size: 0x8, addend: 0x0, symName: __ZNK3AAT18ContextualSubtableINS_13ExtendedTypesEE5applyEPNS_22hb_aat_apply_context_tE, symObjAddr: 0xF718, symBinAddr: 0x15E5C, symSize: 0xF4 }
  - { offset: 0x116BE3, size: 0x8, addend: 0x0, symName: __ZNK3AAT16LigatureSubtableINS_13ExtendedTypesEE5applyEPNS_22hb_aat_apply_context_tE, symObjAddr: 0x108A0, symBinAddr: 0x16FE4, symSize: 0xDC }
  - { offset: 0x116FA1, size: 0x8, addend: 0x0, symName: __ZNK3AAT21NoncontextualSubtableINS_13ExtendedTypesEE5applyEPNS_22hb_aat_apply_context_tE, symObjAddr: 0x110D0, symBinAddr: 0x17814, symSize: 0x26C }
  - { offset: 0x117429, size: 0x8, addend: 0x0, symName: __ZNK3AAT17InsertionSubtableINS_13ExtendedTypesEE5applyEPNS_22hb_aat_apply_context_tE, symObjAddr: 0x1133C, symBinAddr: 0x17A80, symSize: 0xC4 }
  - { offset: 0x117784, size: 0x8, addend: 0x0, symName: __ZNK12hb_bit_set_t10intersectsERKS_, symObjAddr: 0xEF0C, symBinAddr: 0x15650, symSize: 0x158 }
  - { offset: 0x117B4A, size: 0x8, addend: 0x0, symName: __ZNK3AAT6LookupIN2OT7IntTypeItLj2EEEE9get_valueEjj, symObjAddr: 0xF350, symBinAddr: 0x15A94, symSize: 0x278 }
  - { offset: 0x11825E, size: 0x8, addend: 0x0, symName: __ZN3AAT21RearrangementSubtableINS_13ExtendedTypesEE16driver_context_t10transitionEP11hb_buffer_tPNS_16StateTableDriverIS1_vNS2_5FlagsEEERKNS_5EntryIvEE, symObjAddr: 0xF064, symBinAddr: 0x157A8, symSize: 0x2EC }
  - { offset: 0x11886E, size: 0x8, addend: 0x0, symName: __ZNK3AAT13LookupFormat4IN2OT7IntTypeItLj2EEEE9get_valueEj, symObjAddr: 0xF5EC, symBinAddr: 0x15D30, symSize: 0x12C }
  - { offset: 0x118F0F, size: 0x8, addend: 0x0, symName: __ZN3AAT16StateTableDriverINS_13ExtendedTypesENS_18ContextualSubtableIS1_E9EntryDataENS3_5FlagsEE5driveINS3_16driver_context_tEEEvPT_PNS_22hb_aat_apply_context_tE, symObjAddr: 0xF80C, symBinAddr: 0x15F50, symSize: 0x454 }
  - { offset: 0x119A68, size: 0x8, addend: 0x0, symName: __ZN3AAT18ContextualSubtableINS_13ExtendedTypesEE16driver_context_t10transitionEP11hb_buffer_tPNS_16StateTableDriverIS1_NS2_9EntryDataENS2_5FlagsEEERKNS_5EntryIS7_EE, symObjAddr: 0xFC60, symBinAddr: 0x163A4, symSize: 0x43C }
  - { offset: 0x11A521, size: 0x8, addend: 0x0, symName: __ZNK3AAT6LookupIN2OT11HBGlyphID16EE9get_valueEjj, symObjAddr: 0x1009C, symBinAddr: 0x167E0, symSize: 0x278 }
  - { offset: 0x11AC35, size: 0x8, addend: 0x0, symName: __ZNK2OT4GDEF15get_glyph_classEj, symObjAddr: 0x105D8, symBinAddr: 0x16D1C, symSize: 0x164 }
  - { offset: 0x11AC6E, size: 0x8, addend: 0x0, symName: __ZNK2OT4GDEF15get_glyph_classEj, symObjAddr: 0x105D8, symBinAddr: 0x16D1C, symSize: 0x164 }
  - { offset: 0x11AC8C, size: 0x8, addend: 0x0, symName: __ZNK2OT4GDEF15get_glyph_classEj, symObjAddr: 0x105D8, symBinAddr: 0x16D1C, symSize: 0x164 }
  - { offset: 0x11ACAA, size: 0x8, addend: 0x0, symName: __ZNK2OT4GDEF15get_glyph_classEj, symObjAddr: 0x105D8, symBinAddr: 0x16D1C, symSize: 0x164 }
  - { offset: 0x11B193, size: 0x8, addend: 0x0, symName: __ZNK2OT4GDEF24get_mark_attachment_typeEj, symObjAddr: 0x1073C, symBinAddr: 0x16E80, symSize: 0x164 }
  - { offset: 0x11B1CC, size: 0x8, addend: 0x0, symName: __ZNK2OT4GDEF24get_mark_attachment_typeEj, symObjAddr: 0x1073C, symBinAddr: 0x16E80, symSize: 0x164 }
  - { offset: 0x11B1EA, size: 0x8, addend: 0x0, symName: __ZNK2OT4GDEF24get_mark_attachment_typeEj, symObjAddr: 0x1073C, symBinAddr: 0x16E80, symSize: 0x164 }
  - { offset: 0x11B208, size: 0x8, addend: 0x0, symName: __ZNK2OT4GDEF24get_mark_attachment_typeEj, symObjAddr: 0x1073C, symBinAddr: 0x16E80, symSize: 0x164 }
  - { offset: 0x11B936, size: 0x8, addend: 0x0, symName: __ZNK3AAT13LookupFormat4IN2OT11HBGlyphID16EE9get_valueEj, symObjAddr: 0x104AC, symBinAddr: 0x16BF0, symSize: 0x12C }
  - { offset: 0x11BD82, size: 0x8, addend: 0x0, symName: __ZN11hb_buffer_t15unsafe_to_breakEjj, symObjAddr: 0x10338, symBinAddr: 0x16A7C, symSize: 0x174 }
  - { offset: 0x11BE04, size: 0x8, addend: 0x0, symName: __ZN11hb_buffer_t15unsafe_to_breakEjj, symObjAddr: 0x10338, symBinAddr: 0x16A7C, symSize: 0x174 }
  - { offset: 0x11C55E, size: 0x8, addend: 0x0, symName: __ZN3AAT16StateTableDriverINS_13ExtendedTypesENS_13LigatureEntryILb1EE9EntryDataENS_16LigatureSubtableIS1_E5FlagsEE5driveINS6_16driver_context_tEEEvPT_PNS_22hb_aat_apply_context_tE, symObjAddr: 0x1097C, symBinAddr: 0x170C0, symSize: 0x3F0 }
  - { offset: 0x11CFB3, size: 0x8, addend: 0x0, symName: __ZN3AAT16LigatureSubtableINS_13ExtendedTypesEE16driver_context_t10transitionEP11hb_buffer_tPNS_16StateTableDriverIS1_NS_13LigatureEntryILb1EE9EntryDataENS2_5FlagsEEERKNS_5EntryIS9_EE, symObjAddr: 0x10D6C, symBinAddr: 0x174B0, symSize: 0x364 }
  - { offset: 0x11D8B4, size: 0x8, addend: 0x0, symName: __ZN3AAT16StateTableDriverINS_13ExtendedTypesENS_17InsertionSubtableIS1_E9EntryDataENS3_5FlagsEE5driveINS3_16driver_context_tEEEvPT_PNS_22hb_aat_apply_context_tE, symObjAddr: 0x11400, symBinAddr: 0x17B44, symSize: 0x46C }
  - { offset: 0x11E448, size: 0x8, addend: 0x0, symName: __ZN3AAT17InsertionSubtableINS_13ExtendedTypesEE16driver_context_t10transitionEP11hb_buffer_tPNS_16StateTableDriverIS1_NS2_9EntryDataENS2_5FlagsEEERKNS_5EntryIS7_EE, symObjAddr: 0x1186C, symBinAddr: 0x17FB0, symSize: 0x54C }
  - { offset: 0x11EF29, size: 0x8, addend: 0x0, symName: __ZNK3AAT13ChainSubtableINS_13ObsoleteTypesEE8dispatchINS_22hb_aat_apply_context_tEJEEENT_8return_tEPS5_DpOT0_, symObjAddr: 0x12C7C, symBinAddr: 0x193C0, symSize: 0x198 }
  - { offset: 0x11F538, size: 0x8, addend: 0x0, symName: __ZNK3AAT13ChainSubtableINS_13ObsoleteTypesEE8dispatchINS_33hb_accelerate_subtables_context_tEJEEENT_8return_tEPS5_DpOT0_, symObjAddr: 0x12244, symBinAddr: 0x18988, symSize: 0x1C8 }
  - { offset: 0x120023, size: 0x8, addend: 0x0, symName: __ZNK3AAT10StateTableINS_13ObsoleteTypesEvE22collect_initial_glyphsI12hb_bit_set_tNS_21RearrangementSubtableIS1_EEEEvRT_jRKT0_, symObjAddr: 0x1240C, symBinAddr: 0x18B50, symSize: 0x1D8 }
  - { offset: 0x120731, size: 0x8, addend: 0x0, symName: __ZNK3AAT10StateTableINS_13ObsoleteTypesENS_18ContextualSubtableIS1_E9EntryDataEE22collect_initial_glyphsI12hb_bit_set_tS3_EEvRT_jRKT0_, symObjAddr: 0x126A8, symBinAddr: 0x18DEC, symSize: 0x1F4 }
  - { offset: 0x120E94, size: 0x8, addend: 0x0, symName: __ZNK3AAT10StateTableINS_13ObsoleteTypesEvE22collect_initial_glyphsI12hb_bit_set_tNS_16LigatureSubtableIS1_EEEEvRT_jRKT0_, symObjAddr: 0x1289C, symBinAddr: 0x18FE0, symSize: 0x1DC }
  - { offset: 0x1215D2, size: 0x8, addend: 0x0, symName: __ZNK3AAT10StateTableINS_13ObsoleteTypesENS_17InsertionSubtableIS1_E9EntryDataEE22collect_initial_glyphsI12hb_bit_set_tS3_EEvRT_jRKT0_, symObjAddr: 0x12A78, symBinAddr: 0x191BC, symSize: 0x204 }
  - { offset: 0x121ECB, size: 0x8, addend: 0x0, symName: __ZNK3AAT10ClassTableIN2OT7IntTypeIhLj1EEEE14collect_glyphsI12hb_bit_set_tEEvRT_j, symObjAddr: 0x125E4, symBinAddr: 0x18D28, symSize: 0xC4 }
  - { offset: 0x122582, size: 0x8, addend: 0x0, symName: __ZN3AAT16StateTableDriverINS_13ObsoleteTypesEvNS_21RearrangementSubtableIS1_E5FlagsEE5driveINS3_16driver_context_tEEEvPT_PNS_22hb_aat_apply_context_tE, symObjAddr: 0x12E14, symBinAddr: 0x19558, symSize: 0x414 }
  - { offset: 0x12309D, size: 0x8, addend: 0x0, symName: __ZNK3AAT18ContextualSubtableINS_13ObsoleteTypesEE5applyEPNS_22hb_aat_apply_context_tE, symObjAddr: 0x13514, symBinAddr: 0x19C58, symSize: 0xF4 }
  - { offset: 0x1233C2, size: 0x8, addend: 0x0, symName: __ZNK3AAT16LigatureSubtableINS_13ObsoleteTypesEE5applyEPNS_22hb_aat_apply_context_tE, symObjAddr: 0x13ED0, symBinAddr: 0x1A614, symSize: 0xE0 }
  - { offset: 0x123780, size: 0x8, addend: 0x0, symName: __ZNK3AAT21NoncontextualSubtableINS_13ObsoleteTypesEE5applyEPNS_22hb_aat_apply_context_tE, symObjAddr: 0x14780, symBinAddr: 0x1AEC4, symSize: 0x26C }
  - { offset: 0x123C08, size: 0x8, addend: 0x0, symName: __ZN3AAT16StateTableDriverINS_13ObsoleteTypesENS_17InsertionSubtableIS1_E9EntryDataENS3_5FlagsEE5driveINS3_16driver_context_tEEEvPT_PNS_22hb_aat_apply_context_tE, symObjAddr: 0x149EC, symBinAddr: 0x1B130, symSize: 0x488 }
  - { offset: 0x1248C3, size: 0x8, addend: 0x0, symName: __ZN3AAT21RearrangementSubtableINS_13ObsoleteTypesEE16driver_context_t10transitionEP11hb_buffer_tPNS_16StateTableDriverIS1_vNS2_5FlagsEEERKNS_5EntryIvEE, symObjAddr: 0x13228, symBinAddr: 0x1996C, symSize: 0x2EC }
  - { offset: 0x124C05, size: 0x8, addend: 0x0, symName: __ZN3AAT16StateTableDriverINS_13ObsoleteTypesENS_18ContextualSubtableIS1_E9EntryDataENS3_5FlagsEE5driveINS3_16driver_context_tEEEvPT_PNS_22hb_aat_apply_context_tE, symObjAddr: 0x13608, symBinAddr: 0x19D4C, symSize: 0x450 }
  - { offset: 0x125815, size: 0x8, addend: 0x0, symName: __ZN3AAT18ContextualSubtableINS_13ObsoleteTypesEE16driver_context_t10transitionEP11hb_buffer_tPNS_16StateTableDriverIS1_NS2_9EntryDataENS2_5FlagsEEERKNS_5EntryIS7_EE, symObjAddr: 0x13A58, symBinAddr: 0x1A19C, symSize: 0x478 }
  - { offset: 0x126315, size: 0x8, addend: 0x0, symName: __ZN3AAT16StateTableDriverINS_13ObsoleteTypesEvNS_16LigatureSubtableIS1_E5FlagsEE5driveINS3_16driver_context_tEEEvPT_PNS_22hb_aat_apply_context_tE, symObjAddr: 0x13FB0, symBinAddr: 0x1A6F4, symSize: 0x420 }
  - { offset: 0x126DDE, size: 0x8, addend: 0x0, symName: __ZN3AAT16LigatureSubtableINS_13ObsoleteTypesEE16driver_context_t10transitionEP11hb_buffer_tPNS_16StateTableDriverIS1_vNS2_5FlagsEEERKNS_5EntryIvEE, symObjAddr: 0x143D0, symBinAddr: 0x1AB14, symSize: 0x3B0 }
  - { offset: 0x12761A, size: 0x8, addend: 0x0, symName: __ZN3AAT17InsertionSubtableINS_13ObsoleteTypesEE16driver_context_t10transitionEP11hb_buffer_tPNS_16StateTableDriverIS1_NS2_9EntryDataENS2_5FlagsEEERKNS_5EntryIS7_EE, symObjAddr: 0x14E74, symBinAddr: 0x1B5B8, symSize: 0x54C }
  - { offset: 0x12803B, size: 0x8, addend: 0x0, symName: __ZN3AAT9KerxTableINS_4kerxEE13accelerator_tC2EP9hb_face_t, symObjAddr: 0x154A4, symBinAddr: 0x1BBE8, symSize: 0x154 }
  - { offset: 0x12854A, size: 0x8, addend: 0x0, symName: __ZN11hb_vector_tI9hb_pair_tI12hb_bit_set_tS1_ELb0EE13shrink_vectorEj, symObjAddr: 0x18280, symBinAddr: 0x1E9C4, symSize: 0xD4 }
  - { offset: 0x1289A2, size: 0x8, addend: 0x0, symName: __ZN21hb_sanitize_context_t13sanitize_blobIN3AAT4kerxEEEP9hb_blob_tS4_, symObjAddr: 0x1585C, symBinAddr: 0x1BFA0, symSize: 0x21C }
  - { offset: 0x128BD1, size: 0x8, addend: 0x0, symName: __ZNK3AAT9KerxTableINS_4kerxEE23create_accelerator_dataEj, symObjAddr: 0x155F8, symBinAddr: 0x1BD3C, symSize: 0x224 }
  - { offset: 0x1292A3, size: 0x8, addend: 0x0, symName: __ZN11hb_vector_tI9hb_pair_tI12hb_bit_set_tS1_ELb0EED1Ev, symObjAddr: 0x1581C, symBinAddr: 0x1BF60, symSize: 0x40 }
  - { offset: 0x129679, size: 0x8, addend: 0x0, symName: __ZNK3AAT12KerxSubTable14collect_glyphsI12hb_bit_set_tEEvRT_S4_j, symObjAddr: 0x1703C, symBinAddr: 0x1D780, symSize: 0xF8 }
  - { offset: 0x129945, size: 0x8, addend: 0x0, symName: __ZN9hb_pair_tIR12hb_bit_set_tS1_EcvS_IT_T0_EIS0_S0_LPv0EEEv, symObjAddr: 0x17EC4, symBinAddr: 0x1E608, symSize: 0x1F8 }
  - { offset: 0x12A352, size: 0x8, addend: 0x0, symName: __ZN11hb_vector_tI9hb_pair_tI12hb_bit_set_tS1_ELb0EE14realloc_vectorIS2_LPv0EEEPS2_j11hb_priorityILj0EE, symObjAddr: 0x17C4C, symBinAddr: 0x1E390, symSize: 0x134 }
  - { offset: 0x12ABCE, size: 0x8, addend: 0x0, symName: __ZNK3AAT12KerxSubTable8dispatchI21hb_sanitize_context_tJEEENT_8return_tEPS3_DpOT0_, symObjAddr: 0x15CC4, symBinAddr: 0x1C408, symSize: 0xF4 }
  - { offset: 0x12AC25, size: 0x8, addend: 0x0, symName: __ZNK3AAT12KerxSubTable8dispatchI21hb_sanitize_context_tJEEENT_8return_tEPS3_DpOT0_, symObjAddr: 0x15CC4, symBinAddr: 0x1C408, symSize: 0xF4 }
  - { offset: 0x12AC43, size: 0x8, addend: 0x0, symName: __ZNK3AAT12KerxSubTable8dispatchI21hb_sanitize_context_tJEEENT_8return_tEPS3_DpOT0_, symObjAddr: 0x15CC4, symBinAddr: 0x1C408, symSize: 0xF4 }
  - { offset: 0x12AC63, size: 0x8, addend: 0x0, symName: __ZNK3AAT12KerxSubTable8dispatchI21hb_sanitize_context_tJEEENT_8return_tEPS3_DpOT0_, symObjAddr: 0x15CC4, symBinAddr: 0x1C408, symSize: 0xF4 }
  - { offset: 0x12B57C, size: 0x8, addend: 0x0, symName: __ZNK3AAT10StateTableINS_13ExtendedTypesENS_12Format1EntryILb1EE9EntryDataEE8sanitizeEP21hb_sanitize_context_tPj, symObjAddr: 0x15DD4, symBinAddr: 0x1C518, symSize: 0x5D8 }
  - { offset: 0x12BB75, size: 0x8, addend: 0x0, symName: __ZNK3AAT19KerxSubTableFormat2INS_18KerxSubTableHeaderEE8sanitizeEP21hb_sanitize_context_t, symObjAddr: 0x163AC, symBinAddr: 0x1CAF0, symSize: 0xE4 }
  - { offset: 0x12BFAA, size: 0x8, addend: 0x0, symName: __ZNK3AAT10StateTableINS_13ExtendedTypesENS_19KerxSubTableFormat4INS_18KerxSubTableHeaderEE9EntryDataEE8sanitizeEP21hb_sanitize_context_tPj, symObjAddr: 0x16490, symBinAddr: 0x1CBD4, symSize: 0x5D8 }
  - { offset: 0x12C5A3, size: 0x8, addend: 0x0, symName: __ZNK3AAT19KerxSubTableFormat6INS_18KerxSubTableHeaderEE8sanitizeEP21hb_sanitize_context_t, symObjAddr: 0x16A68, symBinAddr: 0x1D1AC, symSize: 0x1D0 }
  - { offset: 0x12D174, size: 0x8, addend: 0x0, symName: __ZNK3AAT6LookupIN2OT7IntTypeIjLj4EEEE8sanitizeEP21hb_sanitize_context_t, symObjAddr: 0x16C38, symBinAddr: 0x1D37C, symSize: 0x1C8 }
  - { offset: 0x12D1BA, size: 0x8, addend: 0x0, symName: __ZNK3AAT6LookupIN2OT7IntTypeIjLj4EEEE8sanitizeEP21hb_sanitize_context_t, symObjAddr: 0x16C38, symBinAddr: 0x1D37C, symSize: 0x1C8 }
  - { offset: 0x12D1E0, size: 0x8, addend: 0x0, symName: __ZNK3AAT6LookupIN2OT7IntTypeIjLj4EEEE8sanitizeEP21hb_sanitize_context_t, symObjAddr: 0x16C38, symBinAddr: 0x1D37C, symSize: 0x1C8 }
  - { offset: 0x12DEA1, size: 0x8, addend: 0x0, symName: __ZNK3AAT13LookupFormat4IN2OT7IntTypeIjLj4EEEE8sanitizeEP21hb_sanitize_context_t, symObjAddr: 0x16E2C, symBinAddr: 0x1D570, symSize: 0x210 }
  - { offset: 0x12DEE7, size: 0x8, addend: 0x0, symName: __ZNK3AAT13LookupFormat4IN2OT7IntTypeIjLj4EEEE8sanitizeEP21hb_sanitize_context_t, symObjAddr: 0x16E2C, symBinAddr: 0x1D570, symSize: 0x210 }
  - { offset: 0x12DF19, size: 0x8, addend: 0x0, symName: __ZNK3AAT13LookupFormat4IN2OT7IntTypeIjLj4EEEE8sanitizeEP21hb_sanitize_context_t, symObjAddr: 0x16E2C, symBinAddr: 0x1D570, symSize: 0x210 }
  - { offset: 0x12DF41, size: 0x8, addend: 0x0, symName: __ZNK3AAT13LookupFormat4IN2OT7IntTypeIjLj4EEEE8sanitizeEP21hb_sanitize_context_t, symObjAddr: 0x16E2C, symBinAddr: 0x1D570, symSize: 0x210 }
  - { offset: 0x12DF69, size: 0x8, addend: 0x0, symName: __ZNK3AAT13LookupFormat4IN2OT7IntTypeIjLj4EEEE8sanitizeEP21hb_sanitize_context_t, symObjAddr: 0x16E2C, symBinAddr: 0x1D570, symSize: 0x210 }
  - { offset: 0x12EB3D, size: 0x8, addend: 0x0, symName: __ZNK3AAT19KerxSubTableFormat0INS_18KerxSubTableHeaderEE14collect_glyphsI12hb_bit_set_tEEvRT_S6_j, symObjAddr: 0x17134, symBinAddr: 0x1D878, symSize: 0xF4 }
  - { offset: 0x12EE0F, size: 0x8, addend: 0x0, symName: __ZNK3AAT19KerxSubTableFormat1INS_18KerxSubTableHeaderEE14collect_glyphsI12hb_bit_set_tEEvRT_S6_j, symObjAddr: 0x17228, symBinAddr: 0x1D96C, symSize: 0xB8 }
  - { offset: 0x12F166, size: 0x8, addend: 0x0, symName: __ZNK3AAT19KerxSubTableFormat4INS_18KerxSubTableHeaderEE14collect_glyphsI12hb_bit_set_tEEvRT_S6_j, symObjAddr: 0x172E0, symBinAddr: 0x1DA24, symSize: 0xB8 }
  - { offset: 0x12F4BD, size: 0x8, addend: 0x0, symName: __ZNK3AAT19KerxSubTableFormat6INS_18KerxSubTableHeaderEE14collect_glyphsI12hb_bit_set_tEEvRT_S6_j, symObjAddr: 0x17398, symBinAddr: 0x1DADC, symSize: 0x84 }
  - { offset: 0x12F7A5, size: 0x8, addend: 0x0, symName: __ZN12hb_bit_set_t6union_ERKS_, symObjAddr: 0x1741C, symBinAddr: 0x1DB60, symSize: 0x348 }
  - { offset: 0x12FB98, size: 0x8, addend: 0x0, symName: __ZNK3AAT6LookupIN2OT7IntTypeIjLj4EEEE14collect_glyphsI12hb_bit_set_tEEvRT_j, symObjAddr: 0x17764, symBinAddr: 0x1DEA8, symSize: 0xA0 }
  - { offset: 0x12FBE4, size: 0x8, addend: 0x0, symName: __ZNK3AAT6LookupIN2OT7IntTypeIjLj4EEEE14collect_glyphsI12hb_bit_set_tEEvRT_j, symObjAddr: 0x17764, symBinAddr: 0x1DEA8, symSize: 0xA0 }
  - { offset: 0x12FC02, size: 0x8, addend: 0x0, symName: __ZNK3AAT6LookupIN2OT7IntTypeIjLj4EEEE14collect_glyphsI12hb_bit_set_tEEvRT_j, symObjAddr: 0x17764, symBinAddr: 0x1DEA8, symSize: 0xA0 }
  - { offset: 0x1301BE, size: 0x8, addend: 0x0, symName: __ZNK3AAT13LookupFormat2IN2OT7IntTypeIjLj4EEEE14collect_glyphsI12hb_bit_set_tEEvRT_, symObjAddr: 0x17830, symBinAddr: 0x1DF74, symSize: 0x15C }
  - { offset: 0x1305DA, size: 0x8, addend: 0x0, symName: __ZNK3AAT13LookupFormat4IN2OT7IntTypeIjLj4EEEE14collect_glyphsI12hb_bit_set_tEEvRT_, symObjAddr: 0x1798C, symBinAddr: 0x1E0D0, symSize: 0x15C }
  - { offset: 0x1309FE, size: 0x8, addend: 0x0, symName: __ZNK3AAT13LookupFormat6IN2OT7IntTypeIjLj4EEEE14collect_glyphsI12hb_bit_set_tEEvRT_, symObjAddr: 0x17AE8, symBinAddr: 0x1E22C, symSize: 0x164 }
  - { offset: 0x131113, size: 0x8, addend: 0x0, symName: __ZN9hb_pair_tI12hb_bit_set_tS0_EaSEOS1_, symObjAddr: 0x17D80, symBinAddr: 0x1E4C4, symSize: 0x144 }
  - { offset: 0x131C5A, size: 0x8, addend: 0x0, symName: __ZN12hb_bit_set_t3setERKS_b, symObjAddr: 0x180BC, symBinAddr: 0x1E800, symSize: 0x1C4 }
  - { offset: 0x132261, size: 0x8, addend: 0x0, symName: __ZN21hb_sanitize_context_t13sanitize_blobIN3AAT4ankrEEEP9hb_blob_tS4_, symObjAddr: 0x183F8, symBinAddr: 0x1EB3C, symSize: 0x21C }
  - { offset: 0x132490, size: 0x8, addend: 0x0, symName: __ZNK3AAT4ankr8sanitizeEP21hb_sanitize_context_t, symObjAddr: 0x18614, symBinAddr: 0x1ED58, symSize: 0xF0 }
  - { offset: 0x132AB6, size: 0x8, addend: 0x0, symName: __ZNK3AAT6LookupIN2OT8OffsetToINS1_7ArrayOfINS_6AnchorENS1_7IntTypeIjLj4EEEEENS5_ItLj2EEEvLb0EEEE8sanitizeEP21hb_sanitize_context_tPKv, symObjAddr: 0x18704, symBinAddr: 0x1EE48, symSize: 0x6C }
  - { offset: 0x132B0B, size: 0x8, addend: 0x0, symName: __ZNK3AAT6LookupIN2OT8OffsetToINS1_7ArrayOfINS_6AnchorENS1_7IntTypeIjLj4EEEEENS5_ItLj2EEEvLb0EEEE8sanitizeEP21hb_sanitize_context_tPKv, symObjAddr: 0x18704, symBinAddr: 0x1EE48, symSize: 0x6C }
  - { offset: 0x132B31, size: 0x8, addend: 0x0, symName: __ZNK3AAT6LookupIN2OT8OffsetToINS1_7ArrayOfINS_6AnchorENS1_7IntTypeIjLj4EEEEENS5_ItLj2EEEvLb0EEEE8sanitizeEP21hb_sanitize_context_tPKv, symObjAddr: 0x18704, symBinAddr: 0x1EE48, symSize: 0x6C }
  - { offset: 0x132B56, size: 0x8, addend: 0x0, symName: __ZNK3AAT6LookupIN2OT8OffsetToINS1_7ArrayOfINS_6AnchorENS1_7IntTypeIjLj4EEEEENS5_ItLj2EEEvLb0EEEE8sanitizeEP21hb_sanitize_context_tPKv, symObjAddr: 0x18704, symBinAddr: 0x1EE48, symSize: 0x6C }
  - { offset: 0x132CFA, size: 0x8, addend: 0x0, symName: __ZNK3AAT13LookupFormat0IN2OT8OffsetToINS1_7ArrayOfINS_6AnchorENS1_7IntTypeIjLj4EEEEENS5_ItLj2EEEvLb0EEEE8sanitizeEP21hb_sanitize_context_tPKv, symObjAddr: 0x1879C, symBinAddr: 0x1EEE0, symSize: 0x110 }
  - { offset: 0x132D4C, size: 0x8, addend: 0x0, symName: __ZNK3AAT13LookupFormat0IN2OT8OffsetToINS1_7ArrayOfINS_6AnchorENS1_7IntTypeIjLj4EEEEENS5_ItLj2EEEvLb0EEEE8sanitizeEP21hb_sanitize_context_tPKv, symObjAddr: 0x1879C, symBinAddr: 0x1EEE0, symSize: 0x110 }
  - { offset: 0x13322A, size: 0x8, addend: 0x0, symName: __ZNK3AAT13LookupFormat2IN2OT8OffsetToINS1_7ArrayOfINS_6AnchorENS1_7IntTypeIjLj4EEEEENS5_ItLj2EEEvLb0EEEE8sanitizeEP21hb_sanitize_context_tPKv, symObjAddr: 0x188AC, symBinAddr: 0x1EFF0, symSize: 0x218 }
  - { offset: 0x13327C, size: 0x8, addend: 0x0, symName: __ZNK3AAT13LookupFormat2IN2OT8OffsetToINS1_7ArrayOfINS_6AnchorENS1_7IntTypeIjLj4EEEEENS5_ItLj2EEEvLb0EEEE8sanitizeEP21hb_sanitize_context_tPKv, symObjAddr: 0x188AC, symBinAddr: 0x1EFF0, symSize: 0x218 }
  - { offset: 0x1332AD, size: 0x8, addend: 0x0, symName: __ZNK3AAT13LookupFormat2IN2OT8OffsetToINS1_7ArrayOfINS_6AnchorENS1_7IntTypeIjLj4EEEEENS5_ItLj2EEEvLb0EEEE8sanitizeEP21hb_sanitize_context_tPKv, symObjAddr: 0x188AC, symBinAddr: 0x1EFF0, symSize: 0x218 }
  - { offset: 0x1332D5, size: 0x8, addend: 0x0, symName: __ZNK3AAT13LookupFormat2IN2OT8OffsetToINS1_7ArrayOfINS_6AnchorENS1_7IntTypeIjLj4EEEEENS5_ItLj2EEEvLb0EEEE8sanitizeEP21hb_sanitize_context_tPKv, symObjAddr: 0x188AC, symBinAddr: 0x1EFF0, symSize: 0x218 }
  - { offset: 0x1332FD, size: 0x8, addend: 0x0, symName: __ZNK3AAT13LookupFormat2IN2OT8OffsetToINS1_7ArrayOfINS_6AnchorENS1_7IntTypeIjLj4EEEEENS5_ItLj2EEEvLb0EEEE8sanitizeEP21hb_sanitize_context_tPKv, symObjAddr: 0x188AC, symBinAddr: 0x1EFF0, symSize: 0x218 }
  - { offset: 0x133B02, size: 0x8, addend: 0x0, symName: __ZNK3AAT13LookupFormat4IN2OT8OffsetToINS1_7ArrayOfINS_6AnchorENS1_7IntTypeIjLj4EEEEENS5_ItLj2EEEvLb0EEEE8sanitizeEP21hb_sanitize_context_tPKv, symObjAddr: 0x18AC4, symBinAddr: 0x1F208, symSize: 0x23C }
  - { offset: 0x1343AF, size: 0x8, addend: 0x0, symName: __ZNK3AAT13LookupFormat6IN2OT8OffsetToINS1_7ArrayOfINS_6AnchorENS1_7IntTypeIjLj4EEEEENS5_ItLj2EEEvLb0EEEE8sanitizeEP21hb_sanitize_context_tPKv, symObjAddr: 0x18D00, symBinAddr: 0x1F444, symSize: 0x1F4 }
  - { offset: 0x134430, size: 0x8, addend: 0x0, symName: __ZNK3AAT13LookupFormat6IN2OT8OffsetToINS1_7ArrayOfINS_6AnchorENS1_7IntTypeIjLj4EEEEENS5_ItLj2EEEvLb0EEEE8sanitizeEP21hb_sanitize_context_tPKv, symObjAddr: 0x18D00, symBinAddr: 0x1F444, symSize: 0x1F4 }
  - { offset: 0x134458, size: 0x8, addend: 0x0, symName: __ZNK3AAT13LookupFormat6IN2OT8OffsetToINS1_7ArrayOfINS_6AnchorENS1_7IntTypeIjLj4EEEEENS5_ItLj2EEEvLb0EEEE8sanitizeEP21hb_sanitize_context_tPKv, symObjAddr: 0x18D00, symBinAddr: 0x1F444, symSize: 0x1F4 }
  - { offset: 0x134480, size: 0x8, addend: 0x0, symName: __ZNK3AAT13LookupFormat6IN2OT8OffsetToINS1_7ArrayOfINS_6AnchorENS1_7IntTypeIjLj4EEEEENS5_ItLj2EEEvLb0EEEE8sanitizeEP21hb_sanitize_context_tPKv, symObjAddr: 0x18D00, symBinAddr: 0x1F444, symSize: 0x1F4 }
  - { offset: 0x134C15, size: 0x8, addend: 0x0, symName: __ZNK3AAT13LookupFormat8IN2OT8OffsetToINS1_7ArrayOfINS_6AnchorENS1_7IntTypeIjLj4EEEEENS5_ItLj2EEEvLb0EEEE8sanitizeEP21hb_sanitize_context_tPKv, symObjAddr: 0x18EF4, symBinAddr: 0x1F638, symSize: 0x110 }
  - { offset: 0x134C6A, size: 0x8, addend: 0x0, symName: __ZNK3AAT13LookupFormat8IN2OT8OffsetToINS1_7ArrayOfINS_6AnchorENS1_7IntTypeIjLj4EEEEENS5_ItLj2EEEvLb0EEEE8sanitizeEP21hb_sanitize_context_tPKv, symObjAddr: 0x18EF4, symBinAddr: 0x1F638, symSize: 0x110 }
  - { offset: 0x135AC4, size: 0x8, addend: 0x0, symName: __ZN21hb_sanitize_context_t9_dispatchIN2OT14UnsizedArrayOfINS1_8OffsetToINS1_7ArrayOfIN3AAT6AnchorENS1_7IntTypeIjLj4EEEEENS7_ItLj2EEEvLb0EEEEEJjRPKvEEEDTcldtfp_8sanitizefpTspclsr3stdE7forwardIT0_Efp1_EEERKT_11hb_priorityILj1EEDpOSG_, symObjAddr: 0x19004, symBinAddr: 0x1F748, symSize: 0x110 }
  - { offset: 0x136217, size: 0x8, addend: 0x0, symName: __ZNK3AAT12KerxSubTable8dispatchINS_22hb_aat_apply_context_tEJEEENT_8return_tEPS3_DpOT0_, symObjAddr: 0x195AC, symBinAddr: 0x1FCF0, symSize: 0x294 }
  - { offset: 0x1372C3, size: 0x8, addend: 0x0, symName: __ZN3AAT16StateTableDriverINS_13ExtendedTypesENS_12Format1EntryILb1EE9EntryDataENS_19KerxSubTableFormat1INS_18KerxSubTableHeaderEE5FlagsEE5driveINS7_16driver_context_tEEEvPT_PNS_22hb_aat_apply_context_tE, symObjAddr: 0x1A93C, symBinAddr: 0x21080, symSize: 0x434 }
  - { offset: 0x137CFB, size: 0x8, addend: 0x0, symName: __ZNK2OT17hb_kern_machine_tIN3AAT19KerxSubTableFormat2INS1_18KerxSubTableHeaderEE13accelerator_tEE4kernEP9hb_font_tP11hb_buffer_tjb, symObjAddr: 0x1B050, symBinAddr: 0x21794, symSize: 0x5E4 }
  - { offset: 0x13887C, size: 0x8, addend: 0x0, symName: __ZN3AAT16StateTableDriverINS_13ExtendedTypesENS_19KerxSubTableFormat4INS_18KerxSubTableHeaderEE9EntryDataENS4_5FlagsEE5driveINS4_16driver_context_tEEEvPT_PNS_22hb_aat_apply_context_tE, symObjAddr: 0x1B908, symBinAddr: 0x2204C, symSize: 0x434 }
  - { offset: 0x13926D, size: 0x8, addend: 0x0, symName: __ZNK2OT17hb_kern_machine_tIN3AAT19KerxSubTableFormat6INS1_18KerxSubTableHeaderEE13accelerator_tEE4kernEP9hb_font_tP11hb_buffer_tjb, symObjAddr: 0x1CA30, symBinAddr: 0x23174, symSize: 0x5E4 }
  - { offset: 0x139DEE, size: 0x8, addend: 0x0, symName: __ZNK2OT17hb_kern_machine_tIN3AAT19KerxSubTableFormat0INS1_18KerxSubTableHeaderEE13accelerator_tEE4kernEP9hb_font_tP11hb_buffer_tjb, symObjAddr: 0x19840, symBinAddr: 0x1FF84, symSize: 0x5E4 }
  - { offset: 0x13AE1D, size: 0x8, addend: 0x0, symName: __ZN2OT21hb_ot_apply_context_tC2EjP9hb_font_tP11hb_buffer_tP9hb_blob_t, symObjAddr: 0x19FE0, symBinAddr: 0x20724, symSize: 0x55C }
  - { offset: 0x13B87A, size: 0x8, addend: 0x0, symName: __ZNK2OT4GDEF13accelerator_t15mark_set_coversEjj, symObjAddr: 0x1A53C, symBinAddr: 0x20C80, symSize: 0x14C }
  - { offset: 0x13BDC0, size: 0x8, addend: 0x0, symName: __ZNK3AAT19KerxSubTableFormat0INS_18KerxSubTableHeaderEE13accelerator_t11get_kerningEjj, symObjAddr: 0x19E24, symBinAddr: 0x20568, symSize: 0x178 }
  - { offset: 0x13C342, size: 0x8, addend: 0x0, symName: __ZN2OT21hb_ot_apply_context_tD1Ev, symObjAddr: 0x19F9C, symBinAddr: 0x206E0, symSize: 0x44 }
  - { offset: 0x13C409, size: 0x8, addend: 0x0, symName: __ZNK3AAT19KerxSubTableFormat0INS_18KerxSubTableHeaderEE11get_kerningEjjPNS_22hb_aat_apply_context_tE, symObjAddr: 0x1A7D0, symBinAddr: 0x20F14, symSize: 0x16C }
  - { offset: 0x13C494, size: 0x8, addend: 0x0, symName: __ZNK3AAT19KerxSubTableFormat0INS_18KerxSubTableHeaderEE11get_kerningEjjPNS_22hb_aat_apply_context_tE, symObjAddr: 0x1A7D0, symBinAddr: 0x20F14, symSize: 0x16C }
  - { offset: 0x13C4B4, size: 0x8, addend: 0x0, symName: __ZNK3AAT19KerxSubTableFormat0INS_18KerxSubTableHeaderEE11get_kerningEjjPNS_22hb_aat_apply_context_tE, symObjAddr: 0x1A7D0, symBinAddr: 0x20F14, symSize: 0x16C }
  - { offset: 0x13C4D4, size: 0x8, addend: 0x0, symName: __ZNK3AAT19KerxSubTableFormat0INS_18KerxSubTableHeaderEE11get_kerningEjjPNS_22hb_aat_apply_context_tE, symObjAddr: 0x1A7D0, symBinAddr: 0x20F14, symSize: 0x16C }
  - { offset: 0x13C4F4, size: 0x8, addend: 0x0, symName: __ZNK3AAT19KerxSubTableFormat0INS_18KerxSubTableHeaderEE11get_kerningEjjPNS_22hb_aat_apply_context_tE, symObjAddr: 0x1A7D0, symBinAddr: 0x20F14, symSize: 0x16C }
  - { offset: 0x13CBC0, size: 0x8, addend: 0x0, symName: __ZNK2OT6Layout6Common8Coverage12get_coverageEj, symObjAddr: 0x1A688, symBinAddr: 0x20DCC, symSize: 0x148 }
  - { offset: 0x13CBF8, size: 0x8, addend: 0x0, symName: __ZNK2OT6Layout6Common8Coverage12get_coverageEj, symObjAddr: 0x1A688, symBinAddr: 0x20DCC, symSize: 0x148 }
  - { offset: 0x13CC15, size: 0x8, addend: 0x0, symName: __ZNK2OT6Layout6Common8Coverage12get_coverageEj, symObjAddr: 0x1A688, symBinAddr: 0x20DCC, symSize: 0x148 }
  - { offset: 0x13D737, size: 0x8, addend: 0x0, symName: __ZN3AAT19KerxSubTableFormat1INS_18KerxSubTableHeaderEE16driver_context_t10transitionEP11hb_buffer_tPNS_16StateTableDriverINS_13ExtendedTypesENS_12Format1EntryILb1EE9EntryDataENS2_5FlagsEEERKNS_5EntryISA_EE, symObjAddr: 0x1AD70, symBinAddr: 0x214B4, symSize: 0x2E0 }
  - { offset: 0x13D79B, size: 0x8, addend: 0x0, symName: __ZN3AAT19KerxSubTableFormat1INS_18KerxSubTableHeaderEE16driver_context_t10transitionEP11hb_buffer_tPNS_16StateTableDriverINS_13ExtendedTypesENS_12Format1EntryILb1EE9EntryDataENS2_5FlagsEEERKNS_5EntryISA_EE, symObjAddr: 0x1AD70, symBinAddr: 0x214B4, symSize: 0x2E0 }
  - { offset: 0x13D7BB, size: 0x8, addend: 0x0, symName: __ZN3AAT19KerxSubTableFormat1INS_18KerxSubTableHeaderEE16driver_context_t10transitionEP11hb_buffer_tPNS_16StateTableDriverINS_13ExtendedTypesENS_12Format1EntryILb1EE9EntryDataENS2_5FlagsEEERKNS_5EntryISA_EE, symObjAddr: 0x1AD70, symBinAddr: 0x214B4, symSize: 0x2E0 }
  - { offset: 0x13DCC6, size: 0x8, addend: 0x0, symName: __ZNK3AAT19KerxSubTableFormat2INS_18KerxSubTableHeaderEE13accelerator_t11get_kerningEjj, symObjAddr: 0x1B634, symBinAddr: 0x21D78, symSize: 0x178 }
  - { offset: 0x13E24C, size: 0x8, addend: 0x0, symName: __ZNK3AAT19KerxSubTableFormat2INS_18KerxSubTableHeaderEE11get_kerningEjjPNS_22hb_aat_apply_context_tE, symObjAddr: 0x1B7AC, symBinAddr: 0x21EF0, symSize: 0x15C }
  - { offset: 0x13EAC2, size: 0x8, addend: 0x0, symName: __ZN3AAT19KerxSubTableFormat4INS_18KerxSubTableHeaderEE16driver_context_t10transitionEP11hb_buffer_tPNS_16StateTableDriverINS_13ExtendedTypesENS2_9EntryDataENS2_5FlagsEEERKNS_5EntryIS8_EE, symObjAddr: 0x1BD3C, symBinAddr: 0x22480, symSize: 0x4F8 }
  - { offset: 0x13FF33, size: 0x8, addend: 0x0, symName: __ZNK3AAT6LookupIN2OT8OffsetToINS1_7ArrayOfINS_6AnchorENS1_7IntTypeIjLj4EEEEENS5_ItLj2EEEvLb0EEEE9get_valueEjj, symObjAddr: 0x1C668, symBinAddr: 0x22DAC, symSize: 0x278 }
  - { offset: 0x140647, size: 0x8, addend: 0x0, symName: __ZN9hb_font_t32get_glyph_h_origin_with_fallbackEjPiS0_, symObjAddr: 0x1C308, symBinAddr: 0x22A4C, symSize: 0x1B0 }
  - { offset: 0x1408E3, size: 0x8, addend: 0x0, symName: __ZN9hb_font_t34get_glyph_contour_point_for_originEjj14hb_direction_tPiS1_, symObjAddr: 0x1C234, symBinAddr: 0x22978, symSize: 0xD4 }
  - { offset: 0x140A45, size: 0x8, addend: 0x0, symName: __ZN9hb_font_t32get_glyph_v_origin_with_fallbackEjPiS0_, symObjAddr: 0x1C4B8, symBinAddr: 0x22BFC, symSize: 0x1B0 }
  - { offset: 0x141065, size: 0x8, addend: 0x0, symName: __ZNK3AAT13LookupFormat4IN2OT8OffsetToINS1_7ArrayOfINS_6AnchorENS1_7IntTypeIjLj4EEEEENS5_ItLj2EEEvLb0EEEE9get_valueEj, symObjAddr: 0x1C904, symBinAddr: 0x23048, symSize: 0x12C }
  - { offset: 0x1415F1, size: 0x8, addend: 0x0, symName: __ZNK3AAT19KerxSubTableFormat6INS_18KerxSubTableHeaderEE13accelerator_t11get_kerningEjj, symObjAddr: 0x1D014, symBinAddr: 0x23758, symSize: 0x178 }
  - { offset: 0x141B77, size: 0x8, addend: 0x0, symName: __ZNK3AAT19KerxSubTableFormat6INS_18KerxSubTableHeaderEE11get_kerningEjjPNS_22hb_aat_apply_context_tE, symObjAddr: 0x1D18C, symBinAddr: 0x238D0, symSize: 0x328 }
  - { offset: 0x142C42, size: 0x8, addend: 0x0, symName: __ZNK3AAT6LookupIN2OT7IntTypeIjLj4EEEE17get_value_or_nullEjj, symObjAddr: 0x1D4B4, symBinAddr: 0x23BF8, symSize: 0xB0 }
  - { offset: 0x142F0E, size: 0x8, addend: 0x0, symName: __ZNK3AAT6LookupIN2OT7IntTypeIjLj4EEEE9get_valueEjj, symObjAddr: 0x1D564, symBinAddr: 0x23CA8, symSize: 0x278 }
  - { offset: 0x143844, size: 0x8, addend: 0x0, symName: __ZNK3AAT13LookupFormat4IN2OT7IntTypeIjLj4EEEE9get_valueEj, symObjAddr: 0x1D800, symBinAddr: 0x23F44, symSize: 0x12C }
  - { offset: 0x143DB3, size: 0x8, addend: 0x0, symName: __ZN21hb_sanitize_context_t13sanitize_blobIN3AAT4trakEEEP9hb_blob_tS4_, symObjAddr: 0x1D9D0, symBinAddr: 0x24114, symSize: 0x21C }
  - { offset: 0x143FE2, size: 0x8, addend: 0x0, symName: __ZNK3AAT4trak8sanitizeEP21hb_sanitize_context_t, symObjAddr: 0x1DBEC, symBinAddr: 0x24330, symSize: 0x118 }
  - { offset: 0x1448A1, size: 0x8, addend: 0x0, symName: __ZNK3AAT9TrackData8sanitizeEP21hb_sanitize_context_tPKv, symObjAddr: 0x1DD04, symBinAddr: 0x24448, symSize: 0x150 }
  - { offset: 0x1448F5, size: 0x8, addend: 0x0, symName: __ZNK3AAT9TrackData8sanitizeEP21hb_sanitize_context_tPKv, symObjAddr: 0x1DD04, symBinAddr: 0x24448, symSize: 0x150 }
  - { offset: 0x1457D6, size: 0x8, addend: 0x0, symName: __ZN21hb_sanitize_context_t13sanitize_blobIN3AAT4featEEEP9hb_blob_tS4_, symObjAddr: 0x1DEF8, symBinAddr: 0x2463C, symSize: 0x21C }
  - { offset: 0x145A05, size: 0x8, addend: 0x0, symName: __ZNK3AAT4feat8sanitizeEP21hb_sanitize_context_t, symObjAddr: 0x1E114, symBinAddr: 0x24858, symSize: 0x104 }
  - { offset: 0x145A49, size: 0x8, addend: 0x0, symName: __ZNK3AAT4feat8sanitizeEP21hb_sanitize_context_t, symObjAddr: 0x1E114, symBinAddr: 0x24858, symSize: 0x104 }
  - { offset: 0x15241F, size: 0x8, addend: 0x0, symName: __ZN20hb_aat_map_builder_t11add_featureERK12hb_feature_t, symObjAddr: 0x0, symBinAddr: 0x2495C, symSize: 0x670 }
  - { offset: 0x15478C, size: 0x8, addend: 0x0, symName: __ZN20hb_aat_map_builder_t7compileER12hb_aat_map_t, symObjAddr: 0x670, symBinAddr: 0x24FCC, symSize: 0x7FC }
  - { offset: 0x155563, size: 0x8, addend: 0x0, symName: __ZL13sort_r_simpleIJEEvPvmmPFiPKvS2_DpT_ES4_, symObjAddr: 0x136C, symBinAddr: 0x258B8, symSize: 0xE70 }
  - { offset: 0x155ACA, size: 0x8, addend: 0x0, symName: __ZN20hb_aat_map_builder_t15feature_event_t3cmpEPKvS2_, symObjAddr: 0xE6C, symBinAddr: 0x257C8, symSize: 0x9C }
  - { offset: 0x155B51, size: 0x8, addend: 0x0, symName: __ZN20hb_aat_map_builder_t14feature_info_t3cmpEPKvS2_, symObjAddr: 0xF08, symBinAddr: 0x25864, symSize: 0x54 }
  - { offset: 0x159EC9, size: 0x8, addend: 0x0, symName: _hb_blob_create, symObjAddr: 0x0, symBinAddr: 0x26728, symSize: 0x44 }
  - { offset: 0x159F33, size: 0x8, addend: 0x0, symName: _hb_blob_create_or_fail, symObjAddr: 0x50, symBinAddr: 0x26778, symSize: 0x164 }
  - { offset: 0x15A52D, size: 0x8, addend: 0x0, symName: _hb_blob_get_empty, symObjAddr: 0x44, symBinAddr: 0x2676C, symSize: 0xC }
  - { offset: 0x15A8B9, size: 0x8, addend: 0x0, symName: __ZN17hb_lockable_set_tIN20hb_user_data_array_t19hb_user_data_item_tE10hb_mutex_tE4finiERS2_, symObjAddr: 0x958, symBinAddr: 0x27080, symSize: 0xD4 }
  - { offset: 0x15AB6E, size: 0x8, addend: 0x0, symName: __ZN9hb_blob_t17try_make_writableEv, symObjAddr: 0x1B4, symBinAddr: 0x268DC, symSize: 0xBC }
  - { offset: 0x15AC36, size: 0x8, addend: 0x0, symName: __ZN9hb_blob_t30try_make_writable_inplace_unixEv, symObjAddr: 0x728, symBinAddr: 0x26E50, symSize: 0x8C }
  - { offset: 0x15ACE4, size: 0x8, addend: 0x0, symName: _hb_blob_destroy, symObjAddr: 0x270, symBinAddr: 0x26998, symSize: 0x94 }
  - { offset: 0x15B18F, size: 0x8, addend: 0x0, symName: _hb_blob_create_sub_blob, symObjAddr: 0x304, symBinAddr: 0x26A2C, symSize: 0xE0 }
  - { offset: 0x15B692, size: 0x8, addend: 0x0, symName: _hb_blob_make_immutable, symObjAddr: 0x3E4, symBinAddr: 0x26B0C, symSize: 0x10 }
  - { offset: 0x15B6B2, size: 0x8, addend: 0x0, symName: _hb_blob_make_immutable, symObjAddr: 0x3E4, symBinAddr: 0x26B0C, symSize: 0x10 }
  - { offset: 0x15B6D0, size: 0x8, addend: 0x0, symName: _hb_blob_make_immutable, symObjAddr: 0x3E4, symBinAddr: 0x26B0C, symSize: 0x10 }
  - { offset: 0x15B6F0, size: 0x8, addend: 0x0, symName: _hb_blob_make_immutable, symObjAddr: 0x3E4, symBinAddr: 0x26B0C, symSize: 0x10 }
  - { offset: 0x15B769, size: 0x8, addend: 0x0, symName: _hb_blob_reference, symObjAddr: 0x3F4, symBinAddr: 0x26B1C, symSize: 0x1C }
  - { offset: 0x15B789, size: 0x8, addend: 0x0, symName: _hb_blob_reference, symObjAddr: 0x3F4, symBinAddr: 0x26B1C, symSize: 0x1C }
  - { offset: 0x15B7A6, size: 0x8, addend: 0x0, symName: _hb_blob_reference, symObjAddr: 0x3F4, symBinAddr: 0x26B1C, symSize: 0x1C }
  - { offset: 0x15B8D3, size: 0x8, addend: 0x0, symName: __ZL16_hb_blob_destroyPv, symObjAddr: 0x410, symBinAddr: 0x26B38, symSize: 0x4 }
  - { offset: 0x15B8FE, size: 0x8, addend: 0x0, symName: __ZL16_hb_blob_destroyPv, symObjAddr: 0x410, symBinAddr: 0x26B38, symSize: 0x4 }
  - { offset: 0x15B911, size: 0x8, addend: 0x0, symName: _hb_blob_copy_writable_or_fail, symObjAddr: 0x414, symBinAddr: 0x26B3C, symSize: 0x4C }
  - { offset: 0x15BADF, size: 0x8, addend: 0x0, symName: _hb_blob_set_user_data, symObjAddr: 0x460, symBinAddr: 0x26B88, symSize: 0xE0 }
  - { offset: 0x15BDE4, size: 0x8, addend: 0x0, symName: __ZN20hb_user_data_array_t3setEP18hb_user_data_key_tPvPFvS2_Ei, symObjAddr: 0xA3C, symBinAddr: 0x27154, symSize: 0x140 }
  - { offset: 0x15C2B9, size: 0x8, addend: 0x0, symName: _hb_blob_get_user_data, symObjAddr: 0x540, symBinAddr: 0x26C68, symSize: 0xCC }
  - { offset: 0x15C542, size: 0x8, addend: 0x0, symName: _hb_blob_is_immutable, symObjAddr: 0x60C, symBinAddr: 0x26D34, symSize: 0x10 }
  - { offset: 0x15C572, size: 0x8, addend: 0x0, symName: _hb_blob_is_immutable, symObjAddr: 0x60C, symBinAddr: 0x26D34, symSize: 0x10 }
  - { offset: 0x15C590, size: 0x8, addend: 0x0, symName: _hb_blob_is_immutable, symObjAddr: 0x60C, symBinAddr: 0x26D34, symSize: 0x10 }
  - { offset: 0x15C5B0, size: 0x8, addend: 0x0, symName: _hb_blob_is_immutable, symObjAddr: 0x60C, symBinAddr: 0x26D34, symSize: 0x10 }
  - { offset: 0x15C5CF, size: 0x8, addend: 0x0, symName: _hb_blob_get_length, symObjAddr: 0x61C, symBinAddr: 0x26D44, symSize: 0x8 }
  - { offset: 0x15C5FC, size: 0x8, addend: 0x0, symName: _hb_blob_get_data, symObjAddr: 0x624, symBinAddr: 0x26D4C, symSize: 0x14 }
  - { offset: 0x15C638, size: 0x8, addend: 0x0, symName: _hb_blob_get_data_writable, symObjAddr: 0x638, symBinAddr: 0x26D60, symSize: 0xF0 }
  - { offset: 0x15C7EC, size: 0x8, addend: 0x0, symName: __ZN9hb_blob_t25try_make_writable_inplaceEv, symObjAddr: 0x7B4, symBinAddr: 0x26EDC, symSize: 0x2C }
  - { offset: 0x15C824, size: 0x8, addend: 0x0, symName: _hb_blob_create_from_file, symObjAddr: 0x7E0, symBinAddr: 0x26F08, symSize: 0x24 }
  - { offset: 0x15C877, size: 0x8, addend: 0x0, symName: _hb_blob_create_from_file_or_fail, symObjAddr: 0x804, symBinAddr: 0x26F2C, symSize: 0x154 }
  - { offset: 0x15CF88, size: 0x8, addend: 0x0, symName: __ZN17hb_lockable_set_tIN20hb_user_data_array_t19hb_user_data_item_tE10hb_mutex_tE17replace_or_insertIS1_EEPS1_T_RS2_b, symObjAddr: 0xB7C, symBinAddr: 0x27294, symSize: 0x1A8 }
  - { offset: 0x15F192, size: 0x8, addend: 0x0, symName: _hb_buffer_serialize_list_formats, symObjAddr: 0x0, symBinAddr: 0x2743C, symSize: 0xC }
  - { offset: 0x15F1BE, size: 0x8, addend: 0x0, symName: __ZL28_hb_buffer_serialize_formats, symObjAddr: 0x4020, symBinAddr: 0x108488, symSize: 0x0 }
  - { offset: 0x15F26B, size: 0x8, addend: 0x0, symName: __ZL35_deserialize_text_glyphs_trans_keys, symObjAddr: 0x2585, symBinAddr: 0xE1591, symSize: 0x0 }
  - { offset: 0x15F29C, size: 0x8, addend: 0x0, symName: __ZL33_deserialize_text_glyphs_indicies, symObjAddr: 0x25BC, symBinAddr: 0xE15C8, symSize: 0x0 }
  - { offset: 0x15F2C3, size: 0x8, addend: 0x0, symName: __ZL38_deserialize_text_glyphs_index_offsets, symObjAddr: 0x2C8C, symBinAddr: 0xE1C98, symSize: 0x0 }
  - { offset: 0x15F2F4, size: 0x8, addend: 0x0, symName: __ZL34_deserialize_text_glyphs_key_spans, symObjAddr: 0x2CC2, symBinAddr: 0xE1CCE, symSize: 0x0 }
  - { offset: 0x15F31B, size: 0x8, addend: 0x0, symName: __ZL36_deserialize_text_glyphs_trans_targs, symObjAddr: 0x2CDD, symBinAddr: 0xE1CE9, symSize: 0x0 }
  - { offset: 0x15F342, size: 0x8, addend: 0x0, symName: __ZL38_deserialize_text_glyphs_trans_actions, symObjAddr: 0x2D1C, symBinAddr: 0xE1D28, symSize: 0x0 }
  - { offset: 0x15F35D, size: 0x8, addend: 0x0, symName: __ZL36_deserialize_text_glyphs_eof_actions, symObjAddr: 0x2D5B, symBinAddr: 0xE1D67, symSize: 0x0 }
  - { offset: 0x15F384, size: 0x8, addend: 0x0, symName: __ZL28_deserialize_json_trans_keys, symObjAddr: 0x2D76, symBinAddr: 0xE1D82, symSize: 0x0 }
  - { offset: 0x15F3A9, size: 0x8, addend: 0x0, symName: __ZL26_deserialize_json_indicies, symObjAddr: 0x2DED, symBinAddr: 0xE1DF9, symSize: 0x0 }
  - { offset: 0x15F3D0, size: 0x8, addend: 0x0, symName: __ZL31_deserialize_json_index_offsets, symObjAddr: 0x3B8E, symBinAddr: 0xE2B9A, symSize: 0x0 }
  - { offset: 0x15F3F5, size: 0x8, addend: 0x0, symName: __ZL27_deserialize_json_key_spans, symObjAddr: 0x3C04, symBinAddr: 0xE2C10, symSize: 0x0 }
  - { offset: 0x15F41C, size: 0x8, addend: 0x0, symName: __ZL29_deserialize_json_trans_targs, symObjAddr: 0x3C3F, symBinAddr: 0xE2C4B, symSize: 0x0 }
  - { offset: 0x15F443, size: 0x8, addend: 0x0, symName: __ZL31_deserialize_json_trans_actions, symObjAddr: 0x3CA2, symBinAddr: 0xE2CAE, symSize: 0x0 }
  - { offset: 0x15F469, size: 0x8, addend: 0x0, symName: __ZL36_deserialize_text_unicode_trans_keys, symObjAddr: 0x3D05, symBinAddr: 0xE2D11, symSize: 0x0 }
  - { offset: 0x15F48E, size: 0x8, addend: 0x0, symName: __ZL34_deserialize_text_unicode_indicies, symObjAddr: 0x3D18, symBinAddr: 0xE2D24, symSize: 0x0 }
  - { offset: 0x15F4B5, size: 0x8, addend: 0x0, symName: __ZL39_deserialize_text_unicode_index_offsets, symObjAddr: 0x3FDC, symBinAddr: 0xE2FE8, symSize: 0x0 }
  - { offset: 0x15F4DA, size: 0x8, addend: 0x0, symName: __ZL35_deserialize_text_unicode_key_spans, symObjAddr: 0x3FEE, symBinAddr: 0xE2FFA, symSize: 0x0 }
  - { offset: 0x15F4F3, size: 0x8, addend: 0x0, symName: __ZL37_deserialize_text_unicode_trans_targs, symObjAddr: 0x3FF7, symBinAddr: 0xE3003, symSize: 0x0 }
  - { offset: 0x15F50C, size: 0x8, addend: 0x0, symName: __ZL39_deserialize_text_unicode_trans_actions, symObjAddr: 0x4006, symBinAddr: 0xE3012, symSize: 0x0 }
  - { offset: 0x15F525, size: 0x8, addend: 0x0, symName: __ZL37_deserialize_text_unicode_eof_actions, symObjAddr: 0x4015, symBinAddr: 0xE3021, symSize: 0x0 }
  - { offset: 0x1602CF, size: 0x8, addend: 0x0, symName: _hb_buffer_serialize_list_formats, symObjAddr: 0x0, symBinAddr: 0x2743C, symSize: 0xC }
  - { offset: 0x1602E9, size: 0x8, addend: 0x0, symName: _hb_buffer_serialize_format_from_string, symObjAddr: 0xC, symBinAddr: 0x27448, symSize: 0x18 }
  - { offset: 0x160357, size: 0x8, addend: 0x0, symName: _hb_buffer_serialize_format_to_string, symObjAddr: 0x24, symBinAddr: 0x27460, symSize: 0x40 }
  - { offset: 0x1606CE, size: 0x8, addend: 0x0, symName: _hb_buffer_serialize_glyphs, symObjAddr: 0x64, symBinAddr: 0x274A0, symSize: 0x854 }
  - { offset: 0x160E4D, size: 0x8, addend: 0x0, symName: _hb_buffer_serialize_unicode, symObjAddr: 0x8B8, symBinAddr: 0x27CF4, symSize: 0x59C }
  - { offset: 0x1611ED, size: 0x8, addend: 0x0, symName: _hb_buffer_serialize, symObjAddr: 0xE54, symBinAddr: 0x28290, symSize: 0x88 }
  - { offset: 0x1615C0, size: 0x8, addend: 0x0, symName: _hb_buffer_deserialize_glyphs, symObjAddr: 0xEDC, symBinAddr: 0x28318, symSize: 0x9A4 }
  - { offset: 0x1620C9, size: 0x8, addend: 0x0, symName: __ZL27_hb_buffer_deserialize_jsonP11hb_buffer_tPKcjPS2_P9hb_font_t, symObjAddr: 0x1880, symBinAddr: 0x28CBC, symSize: 0x808 }
  - { offset: 0x162A93, size: 0x8, addend: 0x0, symName: _hb_buffer_deserialize_unicode, symObjAddr: 0x2088, symBinAddr: 0x294C4, symSize: 0x4AC }
  - { offset: 0x164DC3, size: 0x8, addend: 0x0, symName: __ZN11hb_buffer_t6verifyEPS_P9hb_font_tPK12hb_feature_tjPKPKc, symObjAddr: 0x0, symBinAddr: 0x29970, symSize: 0x904 }
  - { offset: 0x1666F7, size: 0x8, addend: 0x0, symName: __ZN11hb_buffer_t6verifyEPS_P9hb_font_tPK12hb_feature_tjPKPKc, symObjAddr: 0x0, symBinAddr: 0x29970, symSize: 0x904 }
  - { offset: 0x167248, size: 0x8, addend: 0x0, symName: __ZL19buffer_verify_errorP11hb_buffer_tP9hb_font_tPKcz, symObjAddr: 0x904, symBinAddr: 0x2A274, symSize: 0x8C }
  - { offset: 0x1692C6, size: 0x8, addend: 0x0, symName: _hb_segment_properties_equal, symObjAddr: 0x0, symBinAddr: 0x2A300, symSize: 0x5C }
  - { offset: 0x1692E1, size: 0x8, addend: 0x0, symName: __hb_Null_hb_buffer_t, symObjAddr: 0x4648, symBinAddr: 0x1084A0, symSize: 0x0 }
  - { offset: 0x16E1C6, size: 0x8, addend: 0x0, symName: _hb_segment_properties_equal, symObjAddr: 0x0, symBinAddr: 0x2A300, symSize: 0x5C }
  - { offset: 0x16E1FF, size: 0x8, addend: 0x0, symName: _hb_segment_properties_hash, symObjAddr: 0x5C, symBinAddr: 0x2A35C, symSize: 0x1C }
  - { offset: 0x16E22A, size: 0x8, addend: 0x0, symName: _hb_segment_properties_overlay, symObjAddr: 0x78, symBinAddr: 0x2A378, symSize: 0x74 }
  - { offset: 0x16E296, size: 0x8, addend: 0x0, symName: __ZN11hb_buffer_t7enlargeEj, symObjAddr: 0xEC, symBinAddr: 0x2A3EC, symSize: 0x150 }
  - { offset: 0x16E3EC, size: 0x8, addend: 0x0, symName: __ZN11hb_buffer_t13make_room_forEjj, symObjAddr: 0x23C, symBinAddr: 0x2A53C, symSize: 0x94 }
  - { offset: 0x16E4B3, size: 0x8, addend: 0x0, symName: __ZN11hb_buffer_t13shift_forwardEj, symObjAddr: 0x2D0, symBinAddr: 0x2A5D0, symSize: 0xAC }
  - { offset: 0x16E53D, size: 0x8, addend: 0x0, symName: __ZN11hb_buffer_t18get_scratch_bufferEPj, symObjAddr: 0x37C, symBinAddr: 0x2A67C, symSize: 0x28 }
  - { offset: 0x16E574, size: 0x8, addend: 0x0, symName: __ZN11hb_buffer_t7similarERKS_, symObjAddr: 0x3A4, symBinAddr: 0x2A6A4, symSize: 0x44 }
  - { offset: 0x16E603, size: 0x8, addend: 0x0, symName: __ZN11hb_buffer_t5resetEv, symObjAddr: 0x3E8, symBinAddr: 0x2A6E8, symSize: 0x88 }
  - { offset: 0x16E6A9, size: 0x8, addend: 0x0, symName: __ZN11hb_buffer_t5clearEv, symObjAddr: 0x470, symBinAddr: 0x2A770, symSize: 0x48 }
  - { offset: 0x16E716, size: 0x8, addend: 0x0, symName: __ZN11hb_buffer_t5enterEv, symObjAddr: 0x4B8, symBinAddr: 0x2A7B8, symSize: 0x48 }
  - { offset: 0x16E74E, size: 0x8, addend: 0x0, symName: __ZN11hb_buffer_t5enterEv, symObjAddr: 0x4B8, symBinAddr: 0x2A7B8, symSize: 0x48 }
  - { offset: 0x16E7B7, size: 0x8, addend: 0x0, symName: __ZN11hb_buffer_t5leaveEv, symObjAddr: 0x500, symBinAddr: 0x2A800, symSize: 0x14 }
  - { offset: 0x16E7FE, size: 0x8, addend: 0x0, symName: __ZN11hb_buffer_t3addEjj, symObjAddr: 0x514, symBinAddr: 0x2A814, symSize: 0x8C }
  - { offset: 0x16E89C, size: 0x8, addend: 0x0, symName: __ZN11hb_buffer_t8add_infoERK15hb_glyph_info_t, symObjAddr: 0x5A0, symBinAddr: 0x2A8A0, symSize: 0x7C }
  - { offset: 0x16E907, size: 0x8, addend: 0x0, symName: __ZN11hb_buffer_t12clear_outputEv, symObjAddr: 0x61C, symBinAddr: 0x2A91C, symSize: 0x1C }
  - { offset: 0x16E92F, size: 0x8, addend: 0x0, symName: __ZN11hb_buffer_t15clear_positionsEv, symObjAddr: 0x638, symBinAddr: 0x2A938, symSize: 0x30 }
  - { offset: 0x16E9CD, size: 0x8, addend: 0x0, symName: __ZN11hb_buffer_t4syncEv, symObjAddr: 0x668, symBinAddr: 0x2A968, symSize: 0x124 }
  - { offset: 0x16EABF, size: 0x8, addend: 0x0, symName: __ZN11hb_buffer_t11sync_so_farEv, symObjAddr: 0x78C, symBinAddr: 0x2AA8C, symSize: 0x54 }
  - { offset: 0x16EB62, size: 0x8, addend: 0x0, symName: __ZN11hb_buffer_t7move_toEj, symObjAddr: 0x7E0, symBinAddr: 0x2AAE0, symSize: 0x1F0 }
  - { offset: 0x16ECC6, size: 0x8, addend: 0x0, symName: __ZN11hb_buffer_t9set_masksEjjjj, symObjAddr: 0x9D0, symBinAddr: 0x2ACD0, symSize: 0x54 }
  - { offset: 0x16EFB0, size: 0x8, addend: 0x0, symName: __ZN11hb_buffer_t19merge_clusters_implEjj, symObjAddr: 0xA24, symBinAddr: 0x2AD24, symSize: 0x3A0 }
  - { offset: 0x16F364, size: 0x8, addend: 0x0, symName: __ZN11hb_buffer_t18merge_out_clustersEjj, symObjAddr: 0xDC4, symBinAddr: 0x2B0C4, symSize: 0x238 }
  - { offset: 0x16F4B4, size: 0x8, addend: 0x0, symName: __ZN11hb_buffer_t12delete_glyphEv, symObjAddr: 0xFFC, symBinAddr: 0x2B2FC, symSize: 0xDC }
  - { offset: 0x16F5B7, size: 0x8, addend: 0x0, symName: __ZN11hb_buffer_t21delete_glyphs_inplaceEPFbPK15hb_glyph_info_tE, symObjAddr: 0x10D8, symBinAddr: 0x2B3D8, symSize: 0x16C }
  - { offset: 0x16F72C, size: 0x8, addend: 0x0, symName: __ZN11hb_buffer_t24guess_segment_propertiesEv, symObjAddr: 0x1244, symBinAddr: 0x2B544, symSize: 0xF0 }
  - { offset: 0x16F97D, size: 0x8, addend: 0x0, symName: _hb_buffer_create, symObjAddr: 0x1334, symBinAddr: 0x2B634, symSize: 0x9C }
  - { offset: 0x16FBFC, size: 0x8, addend: 0x0, symName: _hb_buffer_get_empty, symObjAddr: 0x13D0, symBinAddr: 0x2B6D0, symSize: 0xC }
  - { offset: 0x16FC59, size: 0x8, addend: 0x0, symName: _hb_buffer_create_similar, symObjAddr: 0x13DC, symBinAddr: 0x2B6DC, symSize: 0xC0 }
  - { offset: 0x16FF67, size: 0x8, addend: 0x0, symName: _hb_buffer_reset, symObjAddr: 0x149C, symBinAddr: 0x2B79C, symSize: 0x90 }
  - { offset: 0x1700F5, size: 0x8, addend: 0x0, symName: _hb_buffer_reference, symObjAddr: 0x152C, symBinAddr: 0x2B82C, symSize: 0x1C }
  - { offset: 0x170123, size: 0x8, addend: 0x0, symName: _hb_buffer_reference, symObjAddr: 0x152C, symBinAddr: 0x2B82C, symSize: 0x1C }
  - { offset: 0x170141, size: 0x8, addend: 0x0, symName: _hb_buffer_reference, symObjAddr: 0x152C, symBinAddr: 0x2B82C, symSize: 0x1C }
  - { offset: 0x170357, size: 0x8, addend: 0x0, symName: _hb_buffer_destroy, symObjAddr: 0x1548, symBinAddr: 0x2B848, symSize: 0xA8 }
  - { offset: 0x170964, size: 0x8, addend: 0x0, symName: _hb_buffer_set_user_data, symObjAddr: 0x15F0, symBinAddr: 0x2B8F0, symSize: 0xE0 }
  - { offset: 0x171025, size: 0x8, addend: 0x0, symName: _hb_buffer_get_user_data, symObjAddr: 0x16D0, symBinAddr: 0x2B9D0, symSize: 0xCC }
  - { offset: 0x1712AE, size: 0x8, addend: 0x0, symName: _hb_buffer_set_content_type, symObjAddr: 0x179C, symBinAddr: 0x2BA9C, symSize: 0x8 }
  - { offset: 0x1712E4, size: 0x8, addend: 0x0, symName: _hb_buffer_get_content_type, symObjAddr: 0x17A4, symBinAddr: 0x2BAA4, symSize: 0x8 }
  - { offset: 0x171311, size: 0x8, addend: 0x0, symName: _hb_buffer_set_unicode_funcs, symObjAddr: 0x17AC, symBinAddr: 0x2BAAC, symSize: 0x48 }
  - { offset: 0x1713D9, size: 0x8, addend: 0x0, symName: _hb_buffer_get_unicode_funcs, symObjAddr: 0x17F4, symBinAddr: 0x2BAF4, symSize: 0x8 }
  - { offset: 0x171406, size: 0x8, addend: 0x0, symName: _hb_buffer_set_direction, symObjAddr: 0x17FC, symBinAddr: 0x2BAFC, symSize: 0x10 }
  - { offset: 0x17143F, size: 0x8, addend: 0x0, symName: _hb_buffer_set_direction, symObjAddr: 0x17FC, symBinAddr: 0x2BAFC, symSize: 0x10 }
  - { offset: 0x17145D, size: 0x8, addend: 0x0, symName: _hb_buffer_set_direction, symObjAddr: 0x17FC, symBinAddr: 0x2BAFC, symSize: 0x10 }
  - { offset: 0x17147D, size: 0x8, addend: 0x0, symName: _hb_buffer_set_direction, symObjAddr: 0x17FC, symBinAddr: 0x2BAFC, symSize: 0x10 }
  - { offset: 0x17149C, size: 0x8, addend: 0x0, symName: _hb_buffer_get_direction, symObjAddr: 0x180C, symBinAddr: 0x2BB0C, symSize: 0x8 }
  - { offset: 0x1714C9, size: 0x8, addend: 0x0, symName: _hb_buffer_set_script, symObjAddr: 0x1814, symBinAddr: 0x2BB14, symSize: 0x10 }
  - { offset: 0x171502, size: 0x8, addend: 0x0, symName: _hb_buffer_set_script, symObjAddr: 0x1814, symBinAddr: 0x2BB14, symSize: 0x10 }
  - { offset: 0x171520, size: 0x8, addend: 0x0, symName: _hb_buffer_set_script, symObjAddr: 0x1814, symBinAddr: 0x2BB14, symSize: 0x10 }
  - { offset: 0x171540, size: 0x8, addend: 0x0, symName: _hb_buffer_set_script, symObjAddr: 0x1814, symBinAddr: 0x2BB14, symSize: 0x10 }
  - { offset: 0x17155F, size: 0x8, addend: 0x0, symName: _hb_buffer_get_script, symObjAddr: 0x1824, symBinAddr: 0x2BB24, symSize: 0x8 }
  - { offset: 0x17158C, size: 0x8, addend: 0x0, symName: _hb_buffer_set_language, symObjAddr: 0x182C, symBinAddr: 0x2BB2C, symSize: 0x10 }
  - { offset: 0x1715C5, size: 0x8, addend: 0x0, symName: _hb_buffer_set_language, symObjAddr: 0x182C, symBinAddr: 0x2BB2C, symSize: 0x10 }
  - { offset: 0x1715E3, size: 0x8, addend: 0x0, symName: _hb_buffer_set_language, symObjAddr: 0x182C, symBinAddr: 0x2BB2C, symSize: 0x10 }
  - { offset: 0x171603, size: 0x8, addend: 0x0, symName: _hb_buffer_set_language, symObjAddr: 0x182C, symBinAddr: 0x2BB2C, symSize: 0x10 }
  - { offset: 0x171622, size: 0x8, addend: 0x0, symName: _hb_buffer_get_language, symObjAddr: 0x183C, symBinAddr: 0x2BB3C, symSize: 0x8 }
  - { offset: 0x17164F, size: 0x8, addend: 0x0, symName: _hb_buffer_set_segment_properties, symObjAddr: 0x1844, symBinAddr: 0x2BB44, symSize: 0x18 }
  - { offset: 0x171688, size: 0x8, addend: 0x0, symName: _hb_buffer_set_segment_properties, symObjAddr: 0x1844, symBinAddr: 0x2BB44, symSize: 0x18 }
  - { offset: 0x1716A6, size: 0x8, addend: 0x0, symName: _hb_buffer_set_segment_properties, symObjAddr: 0x1844, symBinAddr: 0x2BB44, symSize: 0x18 }
  - { offset: 0x1716C6, size: 0x8, addend: 0x0, symName: _hb_buffer_set_segment_properties, symObjAddr: 0x1844, symBinAddr: 0x2BB44, symSize: 0x18 }
  - { offset: 0x1716E5, size: 0x8, addend: 0x0, symName: _hb_buffer_get_segment_properties, symObjAddr: 0x185C, symBinAddr: 0x2BB5C, symSize: 0x10 }
  - { offset: 0x17171B, size: 0x8, addend: 0x0, symName: _hb_buffer_set_flags, symObjAddr: 0x186C, symBinAddr: 0x2BB6C, symSize: 0x10 }
  - { offset: 0x171754, size: 0x8, addend: 0x0, symName: _hb_buffer_set_flags, symObjAddr: 0x186C, symBinAddr: 0x2BB6C, symSize: 0x10 }
  - { offset: 0x171772, size: 0x8, addend: 0x0, symName: _hb_buffer_set_flags, symObjAddr: 0x186C, symBinAddr: 0x2BB6C, symSize: 0x10 }
  - { offset: 0x171792, size: 0x8, addend: 0x0, symName: _hb_buffer_set_flags, symObjAddr: 0x186C, symBinAddr: 0x2BB6C, symSize: 0x10 }
  - { offset: 0x1717B1, size: 0x8, addend: 0x0, symName: _hb_buffer_get_flags, symObjAddr: 0x187C, symBinAddr: 0x2BB7C, symSize: 0x8 }
  - { offset: 0x1717DE, size: 0x8, addend: 0x0, symName: _hb_buffer_set_cluster_level, symObjAddr: 0x1884, symBinAddr: 0x2BB84, symSize: 0x10 }
  - { offset: 0x171817, size: 0x8, addend: 0x0, symName: _hb_buffer_set_cluster_level, symObjAddr: 0x1884, symBinAddr: 0x2BB84, symSize: 0x10 }
  - { offset: 0x171835, size: 0x8, addend: 0x0, symName: _hb_buffer_set_cluster_level, symObjAddr: 0x1884, symBinAddr: 0x2BB84, symSize: 0x10 }
  - { offset: 0x171855, size: 0x8, addend: 0x0, symName: _hb_buffer_set_cluster_level, symObjAddr: 0x1884, symBinAddr: 0x2BB84, symSize: 0x10 }
  - { offset: 0x171874, size: 0x8, addend: 0x0, symName: _hb_buffer_get_cluster_level, symObjAddr: 0x1894, symBinAddr: 0x2BB94, symSize: 0x8 }
  - { offset: 0x1718A1, size: 0x8, addend: 0x0, symName: _hb_buffer_set_replacement_codepoint, symObjAddr: 0x189C, symBinAddr: 0x2BB9C, symSize: 0x10 }
  - { offset: 0x1718DA, size: 0x8, addend: 0x0, symName: _hb_buffer_set_replacement_codepoint, symObjAddr: 0x189C, symBinAddr: 0x2BB9C, symSize: 0x10 }
  - { offset: 0x1718F8, size: 0x8, addend: 0x0, symName: _hb_buffer_set_replacement_codepoint, symObjAddr: 0x189C, symBinAddr: 0x2BB9C, symSize: 0x10 }
  - { offset: 0x171918, size: 0x8, addend: 0x0, symName: _hb_buffer_set_replacement_codepoint, symObjAddr: 0x189C, symBinAddr: 0x2BB9C, symSize: 0x10 }
  - { offset: 0x171937, size: 0x8, addend: 0x0, symName: _hb_buffer_get_replacement_codepoint, symObjAddr: 0x18AC, symBinAddr: 0x2BBAC, symSize: 0x8 }
  - { offset: 0x171964, size: 0x8, addend: 0x0, symName: _hb_buffer_set_invisible_glyph, symObjAddr: 0x18B4, symBinAddr: 0x2BBB4, symSize: 0x10 }
  - { offset: 0x17199D, size: 0x8, addend: 0x0, symName: _hb_buffer_set_invisible_glyph, symObjAddr: 0x18B4, symBinAddr: 0x2BBB4, symSize: 0x10 }
  - { offset: 0x1719BB, size: 0x8, addend: 0x0, symName: _hb_buffer_set_invisible_glyph, symObjAddr: 0x18B4, symBinAddr: 0x2BBB4, symSize: 0x10 }
  - { offset: 0x1719DB, size: 0x8, addend: 0x0, symName: _hb_buffer_set_invisible_glyph, symObjAddr: 0x18B4, symBinAddr: 0x2BBB4, symSize: 0x10 }
  - { offset: 0x1719FA, size: 0x8, addend: 0x0, symName: _hb_buffer_get_invisible_glyph, symObjAddr: 0x18C4, symBinAddr: 0x2BBC4, symSize: 0x8 }
  - { offset: 0x171A27, size: 0x8, addend: 0x0, symName: _hb_buffer_set_not_found_glyph, symObjAddr: 0x18CC, symBinAddr: 0x2BBCC, symSize: 0x10 }
  - { offset: 0x171A60, size: 0x8, addend: 0x0, symName: _hb_buffer_set_not_found_glyph, symObjAddr: 0x18CC, symBinAddr: 0x2BBCC, symSize: 0x10 }
  - { offset: 0x171A7E, size: 0x8, addend: 0x0, symName: _hb_buffer_set_not_found_glyph, symObjAddr: 0x18CC, symBinAddr: 0x2BBCC, symSize: 0x10 }
  - { offset: 0x171A9E, size: 0x8, addend: 0x0, symName: _hb_buffer_set_not_found_glyph, symObjAddr: 0x18CC, symBinAddr: 0x2BBCC, symSize: 0x10 }
  - { offset: 0x171ABD, size: 0x8, addend: 0x0, symName: _hb_buffer_get_not_found_glyph, symObjAddr: 0x18DC, symBinAddr: 0x2BBDC, symSize: 0x8 }
  - { offset: 0x171AEA, size: 0x8, addend: 0x0, symName: _hb_buffer_set_not_found_variation_selector_glyph, symObjAddr: 0x18E4, symBinAddr: 0x2BBE4, symSize: 0x8 }
  - { offset: 0x171B20, size: 0x8, addend: 0x0, symName: _hb_buffer_get_not_found_variation_selector_glyph, symObjAddr: 0x18EC, symBinAddr: 0x2BBEC, symSize: 0x8 }
  - { offset: 0x171B4D, size: 0x8, addend: 0x0, symName: _hb_buffer_set_random_state, symObjAddr: 0x18F4, symBinAddr: 0x2BBF4, symSize: 0x10 }
  - { offset: 0x171B86, size: 0x8, addend: 0x0, symName: _hb_buffer_set_random_state, symObjAddr: 0x18F4, symBinAddr: 0x2BBF4, symSize: 0x10 }
  - { offset: 0x171BA4, size: 0x8, addend: 0x0, symName: _hb_buffer_set_random_state, symObjAddr: 0x18F4, symBinAddr: 0x2BBF4, symSize: 0x10 }
  - { offset: 0x171BC4, size: 0x8, addend: 0x0, symName: _hb_buffer_set_random_state, symObjAddr: 0x18F4, symBinAddr: 0x2BBF4, symSize: 0x10 }
  - { offset: 0x171BE3, size: 0x8, addend: 0x0, symName: _hb_buffer_get_random_state, symObjAddr: 0x1904, symBinAddr: 0x2BC04, symSize: 0x8 }
  - { offset: 0x171C10, size: 0x8, addend: 0x0, symName: _hb_buffer_clear_contents, symObjAddr: 0x190C, symBinAddr: 0x2BC0C, symSize: 0x50 }
  - { offset: 0x171C3A, size: 0x8, addend: 0x0, symName: _hb_buffer_clear_contents, symObjAddr: 0x190C, symBinAddr: 0x2BC0C, symSize: 0x50 }
  - { offset: 0x171C58, size: 0x8, addend: 0x0, symName: _hb_buffer_clear_contents, symObjAddr: 0x190C, symBinAddr: 0x2BC0C, symSize: 0x50 }
  - { offset: 0x171C78, size: 0x8, addend: 0x0, symName: _hb_buffer_clear_contents, symObjAddr: 0x190C, symBinAddr: 0x2BC0C, symSize: 0x50 }
  - { offset: 0x171CE6, size: 0x8, addend: 0x0, symName: _hb_buffer_pre_allocate, symObjAddr: 0x195C, symBinAddr: 0x2BC5C, symSize: 0x38 }
  - { offset: 0x171D54, size: 0x8, addend: 0x0, symName: _hb_buffer_allocation_successful, symObjAddr: 0x1994, symBinAddr: 0x2BC94, symSize: 0x8 }
  - { offset: 0x171DE4, size: 0x8, addend: 0x0, symName: _hb_buffer_add, symObjAddr: 0x199C, symBinAddr: 0x2BC9C, symSize: 0x90 }
  - { offset: 0x171EF0, size: 0x8, addend: 0x0, symName: _hb_buffer_set_length, symObjAddr: 0x1A2C, symBinAddr: 0x2BD2C, symSize: 0x104 }
  - { offset: 0x172052, size: 0x8, addend: 0x0, symName: _hb_buffer_get_length, symObjAddr: 0x1B30, symBinAddr: 0x2BE30, symSize: 0x8 }
  - { offset: 0x17207F, size: 0x8, addend: 0x0, symName: _hb_buffer_get_glyph_infos, symObjAddr: 0x1B38, symBinAddr: 0x2BE38, symSize: 0x14 }
  - { offset: 0x1720D4, size: 0x8, addend: 0x0, symName: _hb_buffer_get_glyph_positions, symObjAddr: 0x1B4C, symBinAddr: 0x2BE4C, symSize: 0x78 }
  - { offset: 0x172159, size: 0x8, addend: 0x0, symName: _hb_buffer_has_positions, symObjAddr: 0x1BC4, symBinAddr: 0x2BEC4, symSize: 0x8 }
  - { offset: 0x172186, size: 0x8, addend: 0x0, symName: _hb_glyph_info_get_glyph_flags, symObjAddr: 0x1BCC, symBinAddr: 0x2BECC, symSize: 0xC }
  - { offset: 0x17233D, size: 0x8, addend: 0x0, symName: _hb_buffer_reverse, symObjAddr: 0x1BD8, symBinAddr: 0x2BED8, symSize: 0xC4 }
  - { offset: 0x1724D2, size: 0x8, addend: 0x0, symName: _hb_buffer_reverse_range, symObjAddr: 0x1C9C, symBinAddr: 0x2BF9C, symSize: 0x104 }
  - { offset: 0x172676, size: 0x8, addend: 0x0, symName: _hb_buffer_reverse_clusters, symObjAddr: 0x1DA0, symBinAddr: 0x2C0A0, symSize: 0x10 }
  - { offset: 0x1726A0, size: 0x8, addend: 0x0, symName: _hb_buffer_reverse_clusters, symObjAddr: 0x1DA0, symBinAddr: 0x2C0A0, symSize: 0x10 }
  - { offset: 0x1726F8, size: 0x8, addend: 0x0, symName: __ZN11hb_buffer_t14reverse_groupsIFbRK15hb_glyph_info_tS3_EEEvRKT_b, symObjAddr: 0x3D4C, symBinAddr: 0x2DF20, symSize: 0x390 }
  - { offset: 0x172C02, size: 0x8, addend: 0x0, symName: _hb_buffer_guess_segment_properties, symObjAddr: 0x1DB0, symBinAddr: 0x2C0B0, symSize: 0xF0 }
  - { offset: 0x172DE3, size: 0x8, addend: 0x0, symName: _hb_buffer_add_utf8, symObjAddr: 0x1EA0, symBinAddr: 0x2C1A0, symSize: 0x2A0 }
  - { offset: 0x17317F, size: 0x8, addend: 0x0, symName: __ZN9hb_utf8_t4nextEPKhS1_Pjj, symObjAddr: 0x4498, symBinAddr: 0x2E2B0, symSize: 0x11C }
  - { offset: 0x1734F8, size: 0x8, addend: 0x0, symName: _hb_buffer_add_utf16, symObjAddr: 0x2140, symBinAddr: 0x2C440, symSize: 0x554 }
  - { offset: 0x173B26, size: 0x8, addend: 0x0, symName: _hb_buffer_add_utf32, symObjAddr: 0x2694, symBinAddr: 0x2C994, symSize: 0x35C }
  - { offset: 0x17400E, size: 0x8, addend: 0x0, symName: _hb_buffer_add_latin1, symObjAddr: 0x29F0, symBinAddr: 0x2CCF0, symSize: 0x234 }
  - { offset: 0x1744DF, size: 0x8, addend: 0x0, symName: _hb_buffer_add_codepoints, symObjAddr: 0x2C24, symBinAddr: 0x2CF24, symSize: 0x23C }
  - { offset: 0x17486D, size: 0x8, addend: 0x0, symName: _hb_buffer_append, symObjAddr: 0x2E60, symBinAddr: 0x2D160, symSize: 0x33C }
  - { offset: 0x174D86, size: 0x8, addend: 0x0, symName: _hb_buffer_normalize_glyphs, symObjAddr: 0x319C, symBinAddr: 0x2D49C, symSize: 0x5E4 }
  - { offset: 0x175001, size: 0x8, addend: 0x0, symName: __ZN11hb_buffer_t19_cluster_group_funcERK15hb_glyph_info_tS2_, symObjAddr: 0x3780, symBinAddr: 0x2DA80, symSize: 0x14 }
  - { offset: 0x175028, size: 0x8, addend: 0x0, symName: __ZN11hb_buffer_t4sortEjjPFiPK15hb_glyph_info_tS2_E, symObjAddr: 0x3794, symBinAddr: 0x2DA94, symSize: 0x160 }
  - { offset: 0x17517E, size: 0x8, addend: 0x0, symName: _hb_buffer_diff, symObjAddr: 0x38F4, symBinAddr: 0x2DBF4, symSize: 0x1FC }
  - { offset: 0x17531A, size: 0x8, addend: 0x0, symName: _hb_buffer_set_message_func, symObjAddr: 0x3AF0, symBinAddr: 0x2DDF0, symSize: 0x9C }
  - { offset: 0x1753ED, size: 0x8, addend: 0x0, symName: __ZN11hb_buffer_t12message_implEP9hb_font_tPKcPc, symObjAddr: 0x3B8C, symBinAddr: 0x2DE8C, symSize: 0x94 }
  - { offset: 0x17785F, size: 0x8, addend: 0x0, symName: __hb_options, symObjAddr: 0x2B15E0, symBinAddr: 0x1095A8, symSize: 0x0 }
  - { offset: 0x177888, size: 0x8, addend: 0x0, symName: _hb_language_get_default, symObjAddr: 0x434, symBinAddr: 0x2E800, symSize: 0x50 }
  - { offset: 0x1778B0, size: 0x8, addend: 0x0, symName: __ZZ23hb_language_get_defaultE16default_language, symObjAddr: 0x2B1868, symBinAddr: 0x1099A8, symSize: 0x0 }
  - { offset: 0x177B57, size: 0x8, addend: 0x0, symName: __hb_NullPool, symObjAddr: 0x9EA8, symBinAddr: 0xE3BC0, symSize: 0x0 }
  - { offset: 0x177B85, size: 0x8, addend: 0x0, symName: __hb_CrapPool, symObjAddr: 0x2B15E8, symBinAddr: 0x1095B0, symSize: 0x0 }
  - { offset: 0x177BA7, size: 0x8, addend: 0x0, symName: __hb_Null_OT_Index, symObjAddr: 0xA128, symBinAddr: 0xE3E40, symSize: 0x0 }
  - { offset: 0x177BD5, size: 0x8, addend: 0x0, symName: __hb_Null_OT_VarIdx, symObjAddr: 0xA12A, symBinAddr: 0xE3E42, symSize: 0x0 }
  - { offset: 0x177BF7, size: 0x8, addend: 0x0, symName: __hb_Null_OT_LangSys, symObjAddr: 0xA12E, symBinAddr: 0xE3E46, symSize: 0x0 }
  - { offset: 0x177C19, size: 0x8, addend: 0x0, symName: __hb_Null_OT_RangeRecord, symObjAddr: 0xA136, symBinAddr: 0xE3E4E, symSize: 0x0 }
  - { offset: 0x177C3B, size: 0x8, addend: 0x0, symName: __hb_Null_OT_ClipRecord, symObjAddr: 0xA13F, symBinAddr: 0xE3E57, symSize: 0x0 }
  - { offset: 0x177C5D, size: 0x8, addend: 0x0, symName: __hb_Null_OT_CmapSubtableLongGroup, symObjAddr: 0xA146, symBinAddr: 0xE3E5E, symSize: 0x0 }
  - { offset: 0x177C7F, size: 0x8, addend: 0x0, symName: __hb_Null_AAT_SettingName, symObjAddr: 0xA152, symBinAddr: 0xE3E6A, symSize: 0x0 }
  - { offset: 0x177C95, size: 0x8, addend: 0x0, symName: __hb_Null_AAT_Lookup, symObjAddr: 0xA156, symBinAddr: 0xE3E6E, symSize: 0x0 }
  - { offset: 0x177CAB, size: 0x8, addend: 0x0, symName: _minus_1, symObjAddr: 0xA158, symBinAddr: 0xE3E70, symSize: 0x0 }
  - { offset: 0x177CCD, size: 0x8, addend: 0x0, symName: _endchar_str, symObjAddr: 0xA2C8, symBinAddr: 0x108590, symSize: 0x0 }
  - { offset: 0x177CE7, size: 0x8, addend: 0x0, symName: __ZL17direction_strings, symObjAddr: 0x936C, symBinAddr: 0xE3084, symSize: 0x0 }
  - { offset: 0x177D84, size: 0x8, addend: 0x0, symName: __ZL5langs, symObjAddr: 0x2B1870, symBinAddr: 0x1099B0, symSize: 0x0 }
  - { offset: 0x177F8F, size: 0x8, addend: 0x0, symName: __ZL9canon_map, symObjAddr: 0xA15D, symBinAddr: 0xE3E75, symSize: 0x0 }
  - { offset: 0x178058, size: 0x8, addend: 0x0, symName: __ZL19_hb_ms_language_map, symObjAddr: 0x937C, symBinAddr: 0xE3094, symSize: 0x0 }
  - { offset: 0x1780D8, size: 0x8, addend: 0x0, symName: __ZL20_hb_mac_language_map, symObjAddr: 0x9AFC, symBinAddr: 0xE3814, symSize: 0x0 }
  - { offset: 0x1780FD, size: 0x8, addend: 0x0, symName: __ZL18static_endchar_str, symObjAddr: 0xA15C, symBinAddr: 0xE3E74, symSize: 0x0 }
  - { offset: 0x1BACB2, size: 0x8, addend: 0x0, symName: __ZN2OT18TupleVariationDataINS_7IntTypeItLj2EEEE16decompile_pointsERPKNS1_IhLj1EEER11hb_vector_tIjLb0EES6_, symObjAddr: 0x6030, symBinAddr: 0x343B0, symSize: 0x1D8 }
  - { offset: 0x1BB0D9, size: 0x8, addend: 0x0, symName: __Z16_hb_options_initv, symObjAddr: 0x0, symBinAddr: 0x2E3CC, symSize: 0xC8 }
  - { offset: 0x1BB23D, size: 0x8, addend: 0x0, symName: _hb_tag_from_string, symObjAddr: 0xC8, symBinAddr: 0x2E494, symSize: 0xD0 }
  - { offset: 0x1BB279, size: 0x8, addend: 0x0, symName: _hb_tag_to_string, symObjAddr: 0x198, symBinAddr: 0x2E564, symSize: 0xC }
  - { offset: 0x1BB2BE, size: 0x8, addend: 0x0, symName: _hb_direction_from_string, symObjAddr: 0x1A4, symBinAddr: 0x2E570, symSize: 0x5C }
  - { offset: 0x1BB342, size: 0x8, addend: 0x0, symName: _hb_direction_to_string, symObjAddr: 0x200, symBinAddr: 0x2E5CC, symSize: 0x24 }
  - { offset: 0x1BB3A7, size: 0x8, addend: 0x0, symName: _hb_language_from_string, symObjAddr: 0x224, symBinAddr: 0x2E5F0, symSize: 0xB4 }
  - { offset: 0x1BB443, size: 0x8, addend: 0x0, symName: __ZL19lang_find_or_insertPKc, symObjAddr: 0x2D8, symBinAddr: 0x2E6A4, symSize: 0x158 }
  - { offset: 0x1BB858, size: 0x8, addend: 0x0, symName: _hb_language_to_string, symObjAddr: 0x430, symBinAddr: 0x2E7FC, symSize: 0x4 }
  - { offset: 0x1BB931, size: 0x8, addend: 0x0, symName: _hb_language_matches, symObjAddr: 0x484, symBinAddr: 0x2E850, symSize: 0xC4 }
  - { offset: 0x1BB9FB, size: 0x8, addend: 0x0, symName: _hb_script_from_iso15924_tag, symObjAddr: 0x548, symBinAddr: 0x2E914, symSize: 0x1C8 }
  - { offset: 0x1BBA80, size: 0x8, addend: 0x0, symName: _hb_script_from_string, symObjAddr: 0x710, symBinAddr: 0x2EADC, symSize: 0x2EC }
  - { offset: 0x1BBB15, size: 0x8, addend: 0x0, symName: _hb_script_to_iso15924_tag, symObjAddr: 0x9FC, symBinAddr: 0x2EDC8, symSize: 0x4 }
  - { offset: 0x1BBB40, size: 0x8, addend: 0x0, symName: _hb_script_get_horizontal_direction, symObjAddr: 0xA00, symBinAddr: 0x2EDCC, symSize: 0x344 }
  - { offset: 0x1BBB6D, size: 0x8, addend: 0x0, symName: _hb_version, symObjAddr: 0xD44, symBinAddr: 0x2F110, symSize: 0x18 }
  - { offset: 0x1BBBB2, size: 0x8, addend: 0x0, symName: _hb_version_string, symObjAddr: 0xD5C, symBinAddr: 0x2F128, symSize: 0xC }
  - { offset: 0x1BBBCD, size: 0x8, addend: 0x0, symName: _hb_version_atleast, symObjAddr: 0xD68, symBinAddr: 0x2F134, symSize: 0x28 }
  - { offset: 0x1BBEEC, size: 0x8, addend: 0x0, symName: _hb_feature_from_string, symObjAddr: 0xD90, symBinAddr: 0x2F15C, symSize: 0x5E8 }
  - { offset: 0x1BC6A4, size: 0x8, addend: 0x0, symName: __ZL9parse_tagPPKcS0_Pj, symObjAddr: 0x1F38, symBinAddr: 0x30304, symSize: 0x20C }
  - { offset: 0x1BC7DA, size: 0x8, addend: 0x0, symName: _hb_feature_to_string, symObjAddr: 0x1378, symBinAddr: 0x2F744, symSize: 0x238 }
  - { offset: 0x1BC997, size: 0x8, addend: 0x0, symName: _hb_variation_from_string, symObjAddr: 0x15B0, symBinAddr: 0x2F97C, symSize: 0x164 }
  - { offset: 0x1BCBC3, size: 0x8, addend: 0x0, symName: _hb_variation_to_string, symObjAddr: 0x1714, symBinAddr: 0x2FAE0, symSize: 0x10C }
  - { offset: 0x1BCC9F, size: 0x8, addend: 0x0, symName: _hb_color_get_alpha, symObjAddr: 0x1820, symBinAddr: 0x2FBEC, symSize: 0x8 }
  - { offset: 0x1BCCCC, size: 0x8, addend: 0x0, symName: _hb_color_get_red, symObjAddr: 0x1828, symBinAddr: 0x2FBF4, symSize: 0x8 }
  - { offset: 0x1BCCF9, size: 0x8, addend: 0x0, symName: _hb_color_get_green, symObjAddr: 0x1830, symBinAddr: 0x2FBFC, symSize: 0x8 }
  - { offset: 0x1BCD26, size: 0x8, addend: 0x0, symName: _hb_color_get_blue, symObjAddr: 0x1838, symBinAddr: 0x2FC04, symSize: 0x8 }
  - { offset: 0x1BCF50, size: 0x8, addend: 0x0, symName: __Z32_hb_ot_name_language_for_ms_codej, symObjAddr: 0x1840, symBinAddr: 0x2FC0C, symSize: 0x80 }
  - { offset: 0x1BD0BD, size: 0x8, addend: 0x0, symName: __Z33_hb_ot_name_language_for_mac_codej, symObjAddr: 0x18C0, symBinAddr: 0x2FC8C, symSize: 0x80 }
  - { offset: 0x1BD439, size: 0x8, addend: 0x0, symName: __ZNK9hb_face_t15load_num_glyphsEv, symObjAddr: 0x1940, symBinAddr: 0x2FD0C, symSize: 0xB8 }
  - { offset: 0x1BD7CF, size: 0x8, addend: 0x0, symName: __ZNK17hb_data_wrapper_tI9hb_face_tLj2EE11call_createI9hb_blob_t22hb_table_lazy_loader_tIN2OT4maxpELj2ELb1EEEEPT_v, symObjAddr: 0x2144, symBinAddr: 0x30510, symSize: 0x94 }
  - { offset: 0x1BDB6B, size: 0x8, addend: 0x0, symName: __ZNK9hb_face_t9load_upemEv, symObjAddr: 0x19F8, symBinAddr: 0x2FDC4, symSize: 0xCC }
  - { offset: 0x1BDEDD, size: 0x8, addend: 0x0, symName: __ZNK17hb_data_wrapper_tI9hb_face_tLj1EE11call_createI9hb_blob_t22hb_table_lazy_loader_tIN2OT4headELj1ELb1EEEEPT_v, symObjAddr: 0x6850, symBinAddr: 0x34BD0, symSize: 0x94 }
  - { offset: 0x1BE10A, size: 0x8, addend: 0x0, symName: __Z43_glyf_get_leading_bearing_with_var_unscaledP9hb_font_tjbPi, symObjAddr: 0x1AC4, symBinAddr: 0x2FE90, symSize: 0x4C }
  - { offset: 0x1BE1A1, size: 0x8, addend: 0x0, symName: __ZNK16hb_lazy_loader_tIN2OT18glyf_accelerator_tE21hb_face_lazy_loader_tIS1_Lj15EE9hb_face_tLj15ES1_E3getEv, symObjAddr: 0x6B78, symBinAddr: 0x34EF8, symSize: 0xCC }
  - { offset: 0x1BE49E, size: 0x8, addend: 0x0, symName: __ZNK2OT18glyf_accelerator_t37get_leading_bearing_with_var_unscaledEP9hb_font_tjbPi, symObjAddr: 0x1B10, symBinAddr: 0x2FEDC, symSize: 0x150 }
  - { offset: 0x1BE945, size: 0x8, addend: 0x0, symName: __ZNK2OT18glyf_accelerator_t10get_pointsINS0_19points_aggregator_tEEEbP9hb_font_tjT_10hb_array_tIKiER17hb_glyf_scratch_t, symObjAddr: 0x2508, symBinAddr: 0x30888, symSize: 0x388 }
  - { offset: 0x1BEFB0, size: 0x8, addend: 0x0, symName: __ZN17hb_glyf_scratch_tD2Ev, symObjAddr: 0x671C, symBinAddr: 0x34A9C, symSize: 0x134 }
  - { offset: 0x1BF735, size: 0x8, addend: 0x0, symName: __Z35_glyf_get_advance_with_var_unscaledP9hb_font_tjb, symObjAddr: 0x1C60, symBinAddr: 0x3002C, symSize: 0x44 }
  - { offset: 0x1BF7BC, size: 0x8, addend: 0x0, symName: __ZNK2OT18glyf_accelerator_t29get_advance_with_var_unscaledEP9hb_font_tjb, symObjAddr: 0x1CA4, symBinAddr: 0x30070, symSize: 0x200 }
  - { offset: 0x1BFB85, size: 0x8, addend: 0x0, symName: __Z46_glyf_get_leading_bearing_without_var_unscaledP9hb_face_tjbPi, symObjAddr: 0x1EA4, symBinAddr: 0x30270, symSize: 0x94 }
  - { offset: 0x1BFCB2, size: 0x8, addend: 0x0, symName: __ZNK2OT18glyf_accelerator_t13glyph_for_gidEjb, symObjAddr: 0x29C4, symBinAddr: 0x30D44, symSize: 0x1E8 }
  - { offset: 0x1C0330, size: 0x8, addend: 0x0, symName: __ZN21hb_sanitize_context_t13sanitize_blobIN2OT4maxpEEEP9hb_blob_tS4_, symObjAddr: 0x2214, symBinAddr: 0x305A4, symSize: 0x2E4 }
  - { offset: 0x1C0C43, size: 0x8, addend: 0x0, symName: __ZNK2OT9glyf_impl5Glyph10get_pointsINS_18glyf_accelerator_tEEEbP9hb_font_tRKT_R22contour_point_vector_tR17hb_glyf_scratch_tPS9_P16head_maxp_info_tPjbbb10hb_array_tIKiEjSG_, symObjAddr: 0x2BAC, symBinAddr: 0x30F2C, symSize: 0x154C }
  - { offset: 0x1C335E, size: 0x8, addend: 0x0, symName: __ZN9hb_font_t19scale_glyph_extentsEP18hb_glyph_extents_t, symObjAddr: 0x661C, symBinAddr: 0x3499C, symSize: 0x100 }
  - { offset: 0x1C35E1, size: 0x8, addend: 0x0, symName: __ZN11hb_vector_tI15contour_point_tLb0EE6resizeEibb, symObjAddr: 0x2890, symBinAddr: 0x30C10, symSize: 0x134 }
  - { offset: 0x1C3987, size: 0x8, addend: 0x0, symName: __ZNK2OT9glyf_impl5Glyph12trim_paddingEv, symObjAddr: 0x40F8, symBinAddr: 0x32478, symSize: 0x10C }
  - { offset: 0x1C4453, size: 0x8, addend: 0x0, symName: __ZNK2OT9glyf_impl20CompositeGlyphRecord10get_pointsER22contour_point_vector_t, symObjAddr: 0x4680, symBinAddr: 0x32A00, symSize: 0x1A0 }
  - { offset: 0x1C4682, size: 0x8, addend: 0x0, symName: __ZNK2OT9glyf_impl11SimpleGlyph18get_contour_pointsER22contour_point_vector_tb, symObjAddr: 0x4204, symBinAddr: 0x32584, symSize: 0x47C }
  - { offset: 0x1C4D15, size: 0x8, addend: 0x0, symName: __ZNK2OT9gvar_GVARINS_7IntTypeItLj2EEELj1735811442EE13accelerator_t22apply_deltas_to_pointsEj10hb_array_tIKiES5_I15contour_point_tER17hb_glyf_scratch_tb, symObjAddr: 0x4820, symBinAddr: 0x32BA0, symSize: 0x1010 }
  - { offset: 0x1C66F1, size: 0x8, addend: 0x0, symName: __ZNK2OT9glyf_impl20CompositeGlyphRecord18get_transformationERA4_fR15contour_point_t, symObjAddr: 0x5830, symBinAddr: 0x33BB0, symSize: 0x154 }
  - { offset: 0x1C6B4F, size: 0x8, addend: 0x0, symName: __ZNK2OT9glyf_impl20CompositeGlyphRecord16transform_pointsE10hb_array_tI15contour_point_tERA4_KfRKS3_, symObjAddr: 0x5984, symBinAddr: 0x33D04, symSize: 0x384 }
  - { offset: 0x1C6B9F, size: 0x8, addend: 0x0, symName: __ZNK2OT9glyf_impl20CompositeGlyphRecord16transform_pointsE10hb_array_tI15contour_point_tERA4_KfRKS3_, symObjAddr: 0x5984, symBinAddr: 0x33D04, symSize: 0x384 }
  - { offset: 0x1C6BBC, size: 0x8, addend: 0x0, symName: __ZNK2OT9glyf_impl20CompositeGlyphRecord16transform_pointsE10hb_array_tI15contour_point_tERA4_KfRKS3_, symObjAddr: 0x5984, symBinAddr: 0x33D04, symSize: 0x384 }
  - { offset: 0x1C6BD9, size: 0x8, addend: 0x0, symName: __ZNK2OT9glyf_impl20CompositeGlyphRecord16transform_pointsE10hb_array_tI15contour_point_tERA4_KfRKS3_, symObjAddr: 0x5984, symBinAddr: 0x33D04, symSize: 0x384 }
  - { offset: 0x1C7B3D, size: 0x8, addend: 0x0, symName: __ZNK2OT9gvar_GVARINS_7IntTypeItLj2EEELj1735811442EE24get_glyph_var_data_bytesEP9hb_blob_tjj, symObjAddr: 0x5D08, symBinAddr: 0x34088, symSize: 0xEC }
  - { offset: 0x1C7EC5, size: 0x8, addend: 0x0, symName: __ZNK2OT20TupleVariationHeader16calculate_scalarE10hb_array_tIKiEjS1_IKNS_7HBFixedINS_7IntTypeIsLj2EEELj14EEEEPK11hb_vector_tI9hb_pair_tIiiELb0EE, symObjAddr: 0x5DF4, symBinAddr: 0x34174, symSize: 0x23C }
  - { offset: 0x1C7FA9, size: 0x8, addend: 0x0, symName: __ZNK2OT20TupleVariationHeader16calculate_scalarE10hb_array_tIKiEjS1_IKNS_7HBFixedINS_7IntTypeIsLj2EEELj14EEEEPK11hb_vector_tI9hb_pair_tIiiELb0EE, symObjAddr: 0x5DF4, symBinAddr: 0x34174, symSize: 0x23C }
  - { offset: 0x1C7FC6, size: 0x8, addend: 0x0, symName: __ZNK2OT20TupleVariationHeader16calculate_scalarE10hb_array_tIKiEjS1_IKNS_7HBFixedINS_7IntTypeIsLj2EEELj14EEEEPK11hb_vector_tI9hb_pair_tIiiELb0EE, symObjAddr: 0x5DF4, symBinAddr: 0x34174, symSize: 0x23C }
  - { offset: 0x1C7FE5, size: 0x8, addend: 0x0, symName: __ZNK2OT20TupleVariationHeader16calculate_scalarE10hb_array_tIKiEjS1_IKNS_7HBFixedINS_7IntTypeIsLj2EEELj14EEEEPK11hb_vector_tI9hb_pair_tIiiELb0EE, symObjAddr: 0x5DF4, symBinAddr: 0x34174, symSize: 0x23C }
  - { offset: 0x1C827B, size: 0x8, addend: 0x0, symName: __ZN2OT11TupleValues9decompileIiEEbRPKNS_7IntTypeIhLj1EEER11hb_vector_tIT_Lb0EES5_b, symObjAddr: 0x6208, symBinAddr: 0x34588, symSize: 0x414 }
  - { offset: 0x1C8D96, size: 0x8, addend: 0x0, symName: __ZN21hb_sanitize_context_t13sanitize_blobIN2OT4headEEEP9hb_blob_tS4_, symObjAddr: 0x68E4, symBinAddr: 0x34C64, symSize: 0x294 }
  - { offset: 0x1C9391, size: 0x8, addend: 0x0, symName: __ZN2OT18glyf_accelerator_tC2EP9hb_face_t, symObjAddr: 0x6C44, symBinAddr: 0x34FC4, symSize: 0x2DC }
  - { offset: 0x1C9FB8, size: 0x8, addend: 0x0, symName: __ZN2OT4glyf21has_valid_glyf_formatEPK9hb_face_t, symObjAddr: 0x6F20, symBinAddr: 0x352A0, symSize: 0xE0 }
  - { offset: 0x1CA2EC, size: 0x8, addend: 0x0, symName: __ZN22hb_table_lazy_loader_tIN2OT4locaELj14ELb1EE6createEP9hb_face_t, symObjAddr: 0x7000, symBinAddr: 0x35380, symSize: 0xE4 }
  - { offset: 0x1CA514, size: 0x8, addend: 0x0, symName: __ZNK16hb_lazy_loader_tIN2OT18gvar_accelerator_tE21hb_face_lazy_loader_tIS1_Lj21EE9hb_face_tLj21ES1_E3getEv, symObjAddr: 0x70E4, symBinAddr: 0x35464, symSize: 0xD4 }
  - { offset: 0x1CA897, size: 0x8, addend: 0x0, symName: __ZNK16hb_lazy_loader_tIN2OT18hmtx_accelerator_tE21hb_face_lazy_loader_tIS1_Lj5EE9hb_face_tLj5ES1_E3getEv, symObjAddr: 0x77AC, symBinAddr: 0x35B2C, symSize: 0xC8 }
  - { offset: 0x1CABD9, size: 0x8, addend: 0x0, symName: __ZNK16hb_lazy_loader_tIN2OT18vmtx_accelerator_tE21hb_face_lazy_loader_tIS1_Lj12EE9hb_face_tLj12ES1_E3getEv, symObjAddr: 0x86F4, symBinAddr: 0x36770, symSize: 0xC8 }
  - { offset: 0x1CB21B, size: 0x8, addend: 0x0, symName: __ZN2OT9gvar_GVARINS_7IntTypeItLj2EEELj1735811442EE13accelerator_tC2EP9hb_face_t, symObjAddr: 0x71B8, symBinAddr: 0x35538, symSize: 0x2D8 }
  - { offset: 0x1CBC8A, size: 0x8, addend: 0x0, symName: __ZN21hb_sanitize_context_t13sanitize_blobIN2OT9gvar_GVARINS1_7IntTypeItLj2EEELj1735811442EEEEEP9hb_blob_tS7_, symObjAddr: 0x7490, symBinAddr: 0x35810, symSize: 0x21C }
  - { offset: 0x1CBF26, size: 0x8, addend: 0x0, symName: __ZNK2OT9gvar_GVARINS_7IntTypeItLj2EEELj1735811442EE16sanitize_shallowEP21hb_sanitize_context_t, symObjAddr: 0x76AC, symBinAddr: 0x35A2C, symSize: 0x100 }
  - { offset: 0x1CBF6C, size: 0x8, addend: 0x0, symName: __ZNK2OT9gvar_GVARINS_7IntTypeItLj2EEELj1735811442EE16sanitize_shallowEP21hb_sanitize_context_t, symObjAddr: 0x76AC, symBinAddr: 0x35A2C, symSize: 0x100 }
  - { offset: 0x1CCA47, size: 0x8, addend: 0x0, symName: __ZN2OT8hmtxvmtxINS_4hmtxENS_4hheaENS_4HVAREE13accelerator_tC2EP9hb_face_t, symObjAddr: 0x7874, symBinAddr: 0x35BF4, symSize: 0x380 }
  - { offset: 0x1CD853, size: 0x8, addend: 0x0, symName: __ZN21hb_sanitize_context_t13sanitize_blobIN2OT4HVAREEEP9hb_blob_tS4_, symObjAddr: 0x7BF4, symBinAddr: 0x35F74, symSize: 0x21C }
  - { offset: 0x1CDA94, size: 0x8, addend: 0x0, symName: __ZNK17hb_data_wrapper_tI9hb_face_tLj4EE11call_createI9hb_blob_t22hb_table_lazy_loader_tIN2OT4hheaELj4ELb1EEEEPT_v, symObjAddr: 0x8418, symBinAddr: 0x36494, symSize: 0x94 }
  - { offset: 0x1CDCA6, size: 0x8, addend: 0x0, symName: __ZNK2OT8HVARVVAR8sanitizeEP21hb_sanitize_context_t, symObjAddr: 0x7E10, symBinAddr: 0x36190, symSize: 0x1B8 }
  - { offset: 0x1CF37F, size: 0x8, addend: 0x0, symName: __ZNK2OT16DeltaSetIndexMap8sanitizeEP21hb_sanitize_context_t, symObjAddr: 0x82CC, symBinAddr: 0x36348, symSize: 0x14C }
  - { offset: 0x1CF3C5, size: 0x8, addend: 0x0, symName: __ZNK2OT16DeltaSetIndexMap8sanitizeEP21hb_sanitize_context_t, symObjAddr: 0x82CC, symBinAddr: 0x36348, symSize: 0x14C }
  - { offset: 0x1CF3EB, size: 0x8, addend: 0x0, symName: __ZNK2OT16DeltaSetIndexMap8sanitizeEP21hb_sanitize_context_t, symObjAddr: 0x82CC, symBinAddr: 0x36348, symSize: 0x14C }
  - { offset: 0x1CF410, size: 0x8, addend: 0x0, symName: __ZNK2OT16DeltaSetIndexMap8sanitizeEP21hb_sanitize_context_t, symObjAddr: 0x82CC, symBinAddr: 0x36348, symSize: 0x14C }
  - { offset: 0x1D03F2, size: 0x8, addend: 0x0, symName: __ZN21hb_sanitize_context_t13sanitize_blobIN2OT4hheaEEEP9hb_blob_tS4_, symObjAddr: 0x84AC, symBinAddr: 0x36528, symSize: 0x248 }
  - { offset: 0x1D09A2, size: 0x8, addend: 0x0, symName: __ZN2OT8hmtxvmtxINS_4vmtxENS_4vheaENS_4VVAREE13accelerator_tC2EP9hb_face_t, symObjAddr: 0x87BC, symBinAddr: 0x36838, symSize: 0x37C }
  - { offset: 0x1D17AE, size: 0x8, addend: 0x0, symName: __ZN21hb_sanitize_context_t13sanitize_blobIN2OT4VVAREEEP9hb_blob_tS4_, symObjAddr: 0x8B38, symBinAddr: 0x36BB4, symSize: 0x330 }
  - { offset: 0x1D1F50, size: 0x8, addend: 0x0, symName: __ZNK17hb_data_wrapper_tI9hb_face_tLj11EE11call_createI9hb_blob_t22hb_table_lazy_loader_tIN2OT4vheaELj11ELb1EEEEPT_v, symObjAddr: 0x8E68, symBinAddr: 0x36EE4, symSize: 0x94 }
  - { offset: 0x1D21F2, size: 0x8, addend: 0x0, symName: __ZN21hb_sanitize_context_t13sanitize_blobIN2OT4vheaEEEP9hb_blob_tS4_, symObjAddr: 0x8EFC, symBinAddr: 0x36F78, symSize: 0x248 }
  - { offset: 0x1D44BE, size: 0x8, addend: 0x0, symName: _hb_draw_funcs_set_move_to_func, symObjAddr: 0x0, symBinAddr: 0x371C0, symSize: 0x13C }
  - { offset: 0x1D44D8, size: 0x8, addend: 0x0, symName: __hb_Null_hb_draw_funcs_t, symObjAddr: 0x11C0, symBinAddr: 0x108598, symSize: 0x0 }
  - { offset: 0x1D53AC, size: 0x8, addend: 0x0, symName: _hb_draw_funcs_set_move_to_func, symObjAddr: 0x0, symBinAddr: 0x371C0, symSize: 0x13C }
  - { offset: 0x1D5523, size: 0x8, addend: 0x0, symName: __ZL19hb_draw_move_to_nilP15hb_draw_funcs_tPvP15hb_draw_state_tffS1_, symObjAddr: 0x13C, symBinAddr: 0x372FC, symSize: 0x4 }
  - { offset: 0x1D5586, size: 0x8, addend: 0x0, symName: _hb_draw_funcs_set_line_to_func, symObjAddr: 0x140, symBinAddr: 0x37300, symSize: 0x13C }
  - { offset: 0x1D56DF, size: 0x8, addend: 0x0, symName: __ZL19hb_draw_line_to_nilP15hb_draw_funcs_tPvP15hb_draw_state_tffS1_, symObjAddr: 0x27C, symBinAddr: 0x3743C, symSize: 0x4 }
  - { offset: 0x1D5742, size: 0x8, addend: 0x0, symName: _hb_draw_funcs_set_quadratic_to_func, symObjAddr: 0x280, symBinAddr: 0x37440, symSize: 0x13C }
  - { offset: 0x1D5911, size: 0x8, addend: 0x0, symName: __ZL24hb_draw_quadratic_to_nilP15hb_draw_funcs_tPvP15hb_draw_state_tffffS1_, symObjAddr: 0x3BC, symBinAddr: 0x3757C, symSize: 0x58 }
  - { offset: 0x1D59F7, size: 0x8, addend: 0x0, symName: _hb_draw_funcs_set_cubic_to_func, symObjAddr: 0x414, symBinAddr: 0x375D4, symSize: 0x13C }
  - { offset: 0x1D5B50, size: 0x8, addend: 0x0, symName: __ZL20hb_draw_cubic_to_nilP15hb_draw_funcs_tPvP15hb_draw_state_tffffffS1_, symObjAddr: 0x550, symBinAddr: 0x37710, symSize: 0x4 }
  - { offset: 0x1D5BE3, size: 0x8, addend: 0x0, symName: _hb_draw_funcs_set_close_path_func, symObjAddr: 0x554, symBinAddr: 0x37714, symSize: 0x13C }
  - { offset: 0x1D5D3C, size: 0x8, addend: 0x0, symName: __ZL22hb_draw_close_path_nilP15hb_draw_funcs_tPvP15hb_draw_state_tS1_, symObjAddr: 0x690, symBinAddr: 0x37850, symSize: 0x4 }
  - { offset: 0x1D5ED9, size: 0x8, addend: 0x0, symName: _hb_draw_funcs_create, symObjAddr: 0x694, symBinAddr: 0x37854, symSize: 0x68 }
  - { offset: 0x1D60E0, size: 0x8, addend: 0x0, symName: _hb_draw_funcs_get_empty, symObjAddr: 0x6FC, symBinAddr: 0x378BC, symSize: 0xC }
  - { offset: 0x1D616A, size: 0x8, addend: 0x0, symName: _hb_draw_funcs_reference, symObjAddr: 0x708, symBinAddr: 0x378C8, symSize: 0x1C }
  - { offset: 0x1D6196, size: 0x8, addend: 0x0, symName: _hb_draw_funcs_reference, symObjAddr: 0x708, symBinAddr: 0x378C8, symSize: 0x1C }
  - { offset: 0x1D61B3, size: 0x8, addend: 0x0, symName: _hb_draw_funcs_reference, symObjAddr: 0x708, symBinAddr: 0x378C8, symSize: 0x1C }
  - { offset: 0x1D63C9, size: 0x8, addend: 0x0, symName: _hb_draw_funcs_destroy, symObjAddr: 0x724, symBinAddr: 0x378E4, symSize: 0x148 }
  - { offset: 0x1D69F6, size: 0x8, addend: 0x0, symName: _hb_draw_funcs_set_user_data, symObjAddr: 0x86C, symBinAddr: 0x37A2C, symSize: 0xE0 }
  - { offset: 0x1D70B7, size: 0x8, addend: 0x0, symName: _hb_draw_funcs_get_user_data, symObjAddr: 0x94C, symBinAddr: 0x37B0C, symSize: 0xCC }
  - { offset: 0x1D7365, size: 0x8, addend: 0x0, symName: _hb_draw_funcs_make_immutable, symObjAddr: 0xA18, symBinAddr: 0x37BD8, symSize: 0x10 }
  - { offset: 0x1D738F, size: 0x8, addend: 0x0, symName: _hb_draw_funcs_make_immutable, symObjAddr: 0xA18, symBinAddr: 0x37BD8, symSize: 0x10 }
  - { offset: 0x1D73AD, size: 0x8, addend: 0x0, symName: _hb_draw_funcs_make_immutable, symObjAddr: 0xA18, symBinAddr: 0x37BD8, symSize: 0x10 }
  - { offset: 0x1D73CD, size: 0x8, addend: 0x0, symName: _hb_draw_funcs_make_immutable, symObjAddr: 0xA18, symBinAddr: 0x37BD8, symSize: 0x10 }
  - { offset: 0x1D7446, size: 0x8, addend: 0x0, symName: _hb_draw_funcs_is_immutable, symObjAddr: 0xA28, symBinAddr: 0x37BE8, symSize: 0x10 }
  - { offset: 0x1D7476, size: 0x8, addend: 0x0, symName: _hb_draw_funcs_is_immutable, symObjAddr: 0xA28, symBinAddr: 0x37BE8, symSize: 0x10 }
  - { offset: 0x1D7494, size: 0x8, addend: 0x0, symName: _hb_draw_funcs_is_immutable, symObjAddr: 0xA28, symBinAddr: 0x37BE8, symSize: 0x10 }
  - { offset: 0x1D74B4, size: 0x8, addend: 0x0, symName: _hb_draw_funcs_is_immutable, symObjAddr: 0xA28, symBinAddr: 0x37BE8, symSize: 0x10 }
  - { offset: 0x1D75BB, size: 0x8, addend: 0x0, symName: _hb_draw_move_to, symObjAddr: 0xA38, symBinAddr: 0x37BF8, symSize: 0xD0 }
  - { offset: 0x1D7787, size: 0x8, addend: 0x0, symName: _hb_draw_line_to, symObjAddr: 0xB08, symBinAddr: 0x37CC8, symSize: 0x94 }
  - { offset: 0x1D78B3, size: 0x8, addend: 0x0, symName: __ZN15hb_draw_funcs_t10start_pathEPvR15hb_draw_state_t, symObjAddr: 0xDB0, symBinAddr: 0x37F70, symSize: 0x50 }
  - { offset: 0x1D7A04, size: 0x8, addend: 0x0, symName: _hb_draw_quadratic_to, symObjAddr: 0xB9C, symBinAddr: 0x37D5C, symSize: 0xAC }
  - { offset: 0x1D7BEE, size: 0x8, addend: 0x0, symName: _hb_draw_cubic_to, symObjAddr: 0xC48, symBinAddr: 0x37E08, symSize: 0xC4 }
  - { offset: 0x1D7DAA, size: 0x8, addend: 0x0, symName: _hb_draw_close_path, symObjAddr: 0xD0C, symBinAddr: 0x37ECC, symSize: 0xA4 }
  - { offset: 0x1EC320, size: 0x8, addend: 0x0, symName: _hb_face_builder_create, symObjAddr: 0x0, symBinAddr: 0x37FC0, symSize: 0x84 }
  - { offset: 0x1EDEB6, size: 0x8, addend: 0x0, symName: __ZL32_hb_face_builder_reference_tableP9hb_face_tjPv, symObjAddr: 0x84, symBinAddr: 0x38044, symSize: 0x11C0 }
  - { offset: 0x1EFAC6, size: 0x8, addend: 0x0, symName: __ZN22hb_serialize_context_tC1EPvj, symObjAddr: 0x188C, symBinAddr: 0x3984C, symSize: 0x120 }
  - { offset: 0x1F00A7, size: 0x8, addend: 0x0, symName: __ZN22hb_serialize_context_t4pushIN2OT16OpenTypeFontFileEEEPT_v, symObjAddr: 0x1D74, symBinAddr: 0x39C50, symSize: 0xD0 }
  - { offset: 0x1F0260, size: 0x8, addend: 0x0, symName: __ZL13sort_r_simpleIJEEvPvmmPFiPKvS2_DpT_ES4_, symObjAddr: 0x20F0, symBinAddr: 0x39FCC, symSize: 0xE70 }
  - { offset: 0x1F077B, size: 0x8, addend: 0x0, symName: __ZN22hb_serialize_context_t8pop_packEb, symObjAddr: 0x2F84, symBinAddr: 0x3AE60, symSize: 0x42C }
  - { offset: 0x1F0EE9, size: 0x8, addend: 0x0, symName: __ZN22hb_serialize_context_t13resolve_linksEv, symObjAddr: 0x33B0, symBinAddr: 0x3B28C, symSize: 0x230 }
  - { offset: 0x1F0F11, size: 0x8, addend: 0x0, symName: __ZN22hb_serialize_context_t13resolve_linksEv, symObjAddr: 0x33B0, symBinAddr: 0x3B28C, symSize: 0x230 }
  - { offset: 0x1F1461, size: 0x8, addend: 0x0, symName: __ZN22hb_serialize_context_tD2Ev, symObjAddr: 0x3D88, symBinAddr: 0x3BC64, symSize: 0xD4 }
  - { offset: 0x1F1928, size: 0x8, addend: 0x0, symName: __ZL29_hb_face_builder_data_destroyPv, symObjAddr: 0x1244, symBinAddr: 0x39204, symSize: 0x148 }
  - { offset: 0x1F253A, size: 0x8, addend: 0x0, symName: __ZL31_hb_face_builder_get_table_tagsPK9hb_face_tjPjS2_Pv, symObjAddr: 0x138C, symBinAddr: 0x3934C, symSize: 0x220 }
  - { offset: 0x1F2B46, size: 0x8, addend: 0x0, symName: _hb_face_builder_add_table, symObjAddr: 0x15AC, symBinAddr: 0x3956C, symSize: 0x154 }
  - { offset: 0x1F2D5C, size: 0x8, addend: 0x0, symName: __ZN12hb_hashmap_tIj17face_table_info_tLb0EE13set_with_hashIRKjS0_EEbOT_jOT0_b, symObjAddr: 0x3E74, symBinAddr: 0x3BD50, symSize: 0x19C }
  - { offset: 0x1F2F6C, size: 0x8, addend: 0x0, symName: _hb_face_builder_sort_tables, symObjAddr: 0x1700, symBinAddr: 0x396C0, symSize: 0x18C }
  - { offset: 0x1F37A6, size: 0x8, addend: 0x0, symName: __ZN22hb_serialize_context_t5resetEv, symObjAddr: 0x19F8, symBinAddr: 0x399B8, symSize: 0xEC }
  - { offset: 0x1F3A28, size: 0x8, addend: 0x0, symName: __ZL15compare_entriesPKvS0_, symObjAddr: 0x19AC, symBinAddr: 0x3996C, symSize: 0x4C }
  - { offset: 0x1F3C28, size: 0x8, addend: 0x0, symName: __ZN22hb_serialize_context_t4finiEv, symObjAddr: 0x1AE4, symBinAddr: 0x39AA4, symSize: 0x158 }
  - { offset: 0x1F4145, size: 0x8, addend: 0x0, symName: __ZN22hb_serialize_context_t8object_t4finiEv, symObjAddr: 0x1C3C, symBinAddr: 0x39BFC, symSize: 0x54 }
  - { offset: 0x1F439C, size: 0x8, addend: 0x0, symName: __ZN11hb_vector_tIPN9hb_pool_tIN22hb_serialize_context_t8object_tELj32EE7chunk_tELb0EE5allocEjb, symObjAddr: 0x1E44, symBinAddr: 0x39D20, symSize: 0xD8 }
  - { offset: 0x1F447E, size: 0x8, addend: 0x0, symName: __ZN11hb_vector_tIPN9hb_pool_tIN22hb_serialize_context_t8object_tELj32EE7chunk_tELb0EE4pushIJRS5_EEEPS5_DpOT_, symObjAddr: 0x1F1C, symBinAddr: 0x39DF8, symSize: 0xD4 }
  - { offset: 0x1F45A3, size: 0x8, addend: 0x0, symName: __ZN9hb_pool_tIN22hb_serialize_context_t8object_tELj32EE7chunk_t6threadEv, symObjAddr: 0x1FF0, symBinAddr: 0x39ECC, symSize: 0x100 }
  - { offset: 0x1F45C6, size: 0x8, addend: 0x0, symName: __ZN9hb_pool_tIN22hb_serialize_context_t8object_tELj32EE7chunk_t6threadEv, symObjAddr: 0x1FF0, symBinAddr: 0x39ECC, symSize: 0x100 }
  - { offset: 0x1F48E5, size: 0x8, addend: 0x0, symName: __ZN2OT11TableRecord3cmpEPKvS2_, symObjAddr: 0x2F60, symBinAddr: 0x3AE3C, symSize: 0x24 }
  - { offset: 0x1F4E3D, size: 0x8, addend: 0x0, symName: __ZNK10hb_array_tIKcE4hashEv, symObjAddr: 0x37DC, symBinAddr: 0x3B6B8, symSize: 0x150 }
  - { offset: 0x1F4F17, size: 0x8, addend: 0x0, symName: __ZNK12hb_hashmap_tIPKN22hb_serialize_context_t8object_tEjLb0EE10fetch_itemERKS3_j, symObjAddr: 0x392C, symBinAddr: 0x3B808, symSize: 0xF8 }
  - { offset: 0x1F50BB, size: 0x8, addend: 0x0, symName: __ZN12hb_hashmap_tIPKN22hb_serialize_context_t8object_tEjLb0EE13set_with_hashIRPS1_RjEEbOT_jOT0_b, symObjAddr: 0x35E0, symBinAddr: 0x3B4BC, symSize: 0x1FC }
  - { offset: 0x1F598A, size: 0x8, addend: 0x0, symName: __ZN12hb_hashmap_tIPKN22hb_serialize_context_t8object_tEjLb0EE5allocEj, symObjAddr: 0x3A24, symBinAddr: 0x3B900, symSize: 0x168 }
  - { offset: 0x1F5C58, size: 0x8, addend: 0x0, symName: __ZN12hb_hashmap_tIPKN22hb_serialize_context_t8object_tEjLb0EE13set_with_hashIS3_jEEbOT_jOT0_b, symObjAddr: 0x3B8C, symBinAddr: 0x3BA68, symSize: 0x1FC }
  - { offset: 0x1F5F08, size: 0x8, addend: 0x0, symName: '__ZZL31_hb_face_builder_get_table_tagsPK9hb_face_tjPjS2_PvEN3$_08__invokeEPKvS6_', symObjAddr: 0x3E5C, symBinAddr: 0x3BD38, symSize: 0x18 }
  - { offset: 0x1F5F8A, size: 0x8, addend: 0x0, symName: __ZN12hb_hashmap_tIj17face_table_info_tLb0EE5allocEj, symObjAddr: 0x4010, symBinAddr: 0x3BEEC, symSize: 0x158 }
  - { offset: 0x1F6150, size: 0x8, addend: 0x0, symName: __ZN12hb_hashmap_tIj17face_table_info_tLb0EE13set_with_hashIjS0_EEbOT_jOT0_b, symObjAddr: 0x4168, symBinAddr: 0x3C044, symSize: 0x19C }
  - { offset: 0x1F80F3, size: 0x8, addend: 0x0, symName: __hb_Null_hb_face_t, symObjAddr: 0x7428, symBinAddr: 0x1085E0, symSize: 0x0 }
  - { offset: 0x1FC54B, size: 0x8, addend: 0x0, symName: __ZZN2OTL19unicode_to_macromanEjE7mapping, symObjAddr: 0x7DD0, symBinAddr: 0xE4818, symSize: 0x0 }
  - { offset: 0x205014, size: 0x8, addend: 0x0, symName: __ZL14_hb_arabic_u16, symObjAddr: 0x7660, symBinAddr: 0xE40A8, symSize: 0x0 }
  - { offset: 0x205040, size: 0x8, addend: 0x0, symName: __ZL13_hb_arabic_u8, symObjAddr: 0x7C00, symBinAddr: 0xE4648, symSize: 0x0 }
  - { offset: 0x205F06, size: 0x8, addend: 0x0, symName: __ZNK2OT19CmapSubtableFormat413accelerator_t9get_glyphEjPj, symObjAddr: 0x7220, symBinAddr: 0x42A08, symSize: 0xE4 }
  - { offset: 0x2062D6, size: 0x8, addend: 0x0, symName: _hb_face_count, symObjAddr: 0x0, symBinAddr: 0x3C1E0, symSize: 0xC8 }
  - { offset: 0x20649F, size: 0x8, addend: 0x0, symName: __ZN21hb_sanitize_context_t13sanitize_blobIN2OT16OpenTypeFontFileEEEP9hb_blob_tS4_, symObjAddr: 0xC8, symBinAddr: 0x3C2A8, symSize: 0x21C }
  - { offset: 0x2066DC, size: 0x8, addend: 0x0, symName: __ZNK2OT16OpenTypeFontFile14get_face_countEv, symObjAddr: 0x320, symBinAddr: 0x3C4C4, symSize: 0x130 }
  - { offset: 0x206C54, size: 0x8, addend: 0x0, symName: __ZNK2OT16OpenTypeFontFile8sanitizeEP21hb_sanitize_context_t, symObjAddr: 0x4D34, symBinAddr: 0x40804, symSize: 0x138 }
  - { offset: 0x206C9A, size: 0x8, addend: 0x0, symName: __ZNK2OT16OpenTypeFontFile8sanitizeEP21hb_sanitize_context_t, symObjAddr: 0x4D34, symBinAddr: 0x40804, symSize: 0x138 }
  - { offset: 0x206CC0, size: 0x8, addend: 0x0, symName: __ZNK2OT16OpenTypeFontFile8sanitizeEP21hb_sanitize_context_t, symObjAddr: 0x4D34, symBinAddr: 0x40804, symSize: 0x138 }
  - { offset: 0x206CE5, size: 0x8, addend: 0x0, symName: __ZNK2OT16OpenTypeFontFile8sanitizeEP21hb_sanitize_context_t, symObjAddr: 0x4D34, symBinAddr: 0x40804, symSize: 0x138 }
  - { offset: 0x207406, size: 0x8, addend: 0x0, symName: _hb_face_create_for_tables, symObjAddr: 0x450, symBinAddr: 0x3C5F4, symSize: 0xB0 }
  - { offset: 0x2076C0, size: 0x8, addend: 0x0, symName: _hb_face_get_empty, symObjAddr: 0x500, symBinAddr: 0x3C6A4, symSize: 0xC }
  - { offset: 0x2077DD, size: 0x8, addend: 0x0, symName: _hb_face_create, symObjAddr: 0x50C, symBinAddr: 0x3C6B0, symSize: 0x17C }
  - { offset: 0x2080DB, size: 0x8, addend: 0x0, symName: __ZL33_hb_face_for_data_reference_tableP9hb_face_tjPv, symObjAddr: 0x688, symBinAddr: 0x3C82C, symSize: 0x154 }
  - { offset: 0x20855A, size: 0x8, addend: 0x0, symName: __ZNK2OT16OpenTypeFontFile8get_faceEjPj, symObjAddr: 0x1484, symBinAddr: 0x3D618, symSize: 0x15C }
  - { offset: 0x2089A3, size: 0x8, addend: 0x0, symName: __ZL33_hb_face_for_data_closure_destroyPv, symObjAddr: 0x7DC, symBinAddr: 0x3C980, symSize: 0x28 }
  - { offset: 0x2089E6, size: 0x8, addend: 0x0, symName: _hb_face_set_get_table_tags_func, symObjAddr: 0x804, symBinAddr: 0x3C9A8, symSize: 0x78 }
  - { offset: 0x208DA8, size: 0x8, addend: 0x0, symName: __ZL32_hb_face_for_data_get_table_tagsPK9hb_face_tjPjS2_Pv, symObjAddr: 0x87C, symBinAddr: 0x3CA20, symSize: 0xE8 }
  - { offset: 0x20917F, size: 0x8, addend: 0x0, symName: _hb_face_create_or_fail, symObjAddr: 0x964, symBinAddr: 0x3CB08, symSize: 0x54 }
  - { offset: 0x20928E, size: 0x8, addend: 0x0, symName: _hb_face_create_from_file_or_fail, symObjAddr: 0x9B8, symBinAddr: 0x3CB5C, symSize: 0x88 }
  - { offset: 0x20946F, size: 0x8, addend: 0x0, symName: _hb_face_reference, symObjAddr: 0xA40, symBinAddr: 0x3CBE4, symSize: 0x1C }
  - { offset: 0x20949D, size: 0x8, addend: 0x0, symName: _hb_face_reference, symObjAddr: 0xA40, symBinAddr: 0x3CBE4, symSize: 0x1C }
  - { offset: 0x2094BB, size: 0x8, addend: 0x0, symName: _hb_face_reference, symObjAddr: 0xA40, symBinAddr: 0x3CBE4, symSize: 0x1C }
  - { offset: 0x209857, size: 0x8, addend: 0x0, symName: _hb_face_destroy, symObjAddr: 0xA5C, symBinAddr: 0x3CC00, symSize: 0x100 }
  - { offset: 0x20A097, size: 0x8, addend: 0x0, symName: _hb_face_set_user_data, symObjAddr: 0xB5C, symBinAddr: 0x3CD00, symSize: 0xE0 }
  - { offset: 0x20A758, size: 0x8, addend: 0x0, symName: _hb_face_get_user_data, symObjAddr: 0xC3C, symBinAddr: 0x3CDE0, symSize: 0xCC }
  - { offset: 0x20AA06, size: 0x8, addend: 0x0, symName: _hb_face_make_immutable, symObjAddr: 0xD08, symBinAddr: 0x3CEAC, symSize: 0x10 }
  - { offset: 0x20AA30, size: 0x8, addend: 0x0, symName: _hb_face_make_immutable, symObjAddr: 0xD08, symBinAddr: 0x3CEAC, symSize: 0x10 }
  - { offset: 0x20AA4E, size: 0x8, addend: 0x0, symName: _hb_face_make_immutable, symObjAddr: 0xD08, symBinAddr: 0x3CEAC, symSize: 0x10 }
  - { offset: 0x20AA6E, size: 0x8, addend: 0x0, symName: _hb_face_make_immutable, symObjAddr: 0xD08, symBinAddr: 0x3CEAC, symSize: 0x10 }
  - { offset: 0x20AAE7, size: 0x8, addend: 0x0, symName: _hb_face_is_immutable, symObjAddr: 0xD18, symBinAddr: 0x3CEBC, symSize: 0x10 }
  - { offset: 0x20AB17, size: 0x8, addend: 0x0, symName: _hb_face_is_immutable, symObjAddr: 0xD18, symBinAddr: 0x3CEBC, symSize: 0x10 }
  - { offset: 0x20AB35, size: 0x8, addend: 0x0, symName: _hb_face_is_immutable, symObjAddr: 0xD18, symBinAddr: 0x3CEBC, symSize: 0x10 }
  - { offset: 0x20AB55, size: 0x8, addend: 0x0, symName: _hb_face_is_immutable, symObjAddr: 0xD18, symBinAddr: 0x3CEBC, symSize: 0x10 }
  - { offset: 0x20ABA2, size: 0x8, addend: 0x0, symName: _hb_face_reference_table, symObjAddr: 0xD28, symBinAddr: 0x3CECC, symSize: 0x30 }
  - { offset: 0x20AC85, size: 0x8, addend: 0x0, symName: _hb_face_reference_blob, symObjAddr: 0xD58, symBinAddr: 0x3CEFC, symSize: 0x1A0 }
  - { offset: 0x20AF8E, size: 0x8, addend: 0x0, symName: _hb_face_get_table_tags, symObjAddr: 0xEF8, symBinAddr: 0x3D09C, symSize: 0x20 }
  - { offset: 0x20AFD0, size: 0x8, addend: 0x0, symName: _hb_face_set_index, symObjAddr: 0xF18, symBinAddr: 0x3D0BC, symSize: 0x10 }
  - { offset: 0x20B009, size: 0x8, addend: 0x0, symName: _hb_face_set_index, symObjAddr: 0xF18, symBinAddr: 0x3D0BC, symSize: 0x10 }
  - { offset: 0x20B027, size: 0x8, addend: 0x0, symName: _hb_face_set_index, symObjAddr: 0xF18, symBinAddr: 0x3D0BC, symSize: 0x10 }
  - { offset: 0x20B047, size: 0x8, addend: 0x0, symName: _hb_face_set_index, symObjAddr: 0xF18, symBinAddr: 0x3D0BC, symSize: 0x10 }
  - { offset: 0x20B066, size: 0x8, addend: 0x0, symName: _hb_face_get_index, symObjAddr: 0xF28, symBinAddr: 0x3D0CC, symSize: 0x8 }
  - { offset: 0x20B093, size: 0x8, addend: 0x0, symName: _hb_face_set_upem, symObjAddr: 0xF30, symBinAddr: 0x3D0D4, symSize: 0x10 }
  - { offset: 0x20B0CC, size: 0x8, addend: 0x0, symName: _hb_face_set_upem, symObjAddr: 0xF30, symBinAddr: 0x3D0D4, symSize: 0x10 }
  - { offset: 0x20B0EA, size: 0x8, addend: 0x0, symName: _hb_face_set_upem, symObjAddr: 0xF30, symBinAddr: 0x3D0D4, symSize: 0x10 }
  - { offset: 0x20B10A, size: 0x8, addend: 0x0, symName: _hb_face_set_upem, symObjAddr: 0xF30, symBinAddr: 0x3D0D4, symSize: 0x10 }
  - { offset: 0x20B19C, size: 0x8, addend: 0x0, symName: _hb_face_get_upem, symObjAddr: 0xF40, symBinAddr: 0x3D0E4, symSize: 0x14 }
  - { offset: 0x20B1EE, size: 0x8, addend: 0x0, symName: _hb_face_get_upem, symObjAddr: 0xF40, symBinAddr: 0x3D0E4, symSize: 0x14 }
  - { offset: 0x20B20D, size: 0x8, addend: 0x0, symName: _hb_face_get_upem, symObjAddr: 0xF40, symBinAddr: 0x3D0E4, symSize: 0x14 }
  - { offset: 0x20B22C, size: 0x8, addend: 0x0, symName: _hb_face_set_glyph_count, symObjAddr: 0xF54, symBinAddr: 0x3D0F8, symSize: 0x10 }
  - { offset: 0x20B265, size: 0x8, addend: 0x0, symName: _hb_face_set_glyph_count, symObjAddr: 0xF54, symBinAddr: 0x3D0F8, symSize: 0x10 }
  - { offset: 0x20B283, size: 0x8, addend: 0x0, symName: _hb_face_set_glyph_count, symObjAddr: 0xF54, symBinAddr: 0x3D0F8, symSize: 0x10 }
  - { offset: 0x20B2A3, size: 0x8, addend: 0x0, symName: _hb_face_set_glyph_count, symObjAddr: 0xF54, symBinAddr: 0x3D0F8, symSize: 0x10 }
  - { offset: 0x20B335, size: 0x8, addend: 0x0, symName: _hb_face_get_glyph_count, symObjAddr: 0xF64, symBinAddr: 0x3D108, symSize: 0x18 }
  - { offset: 0x20B379, size: 0x8, addend: 0x0, symName: _hb_face_get_glyph_count, symObjAddr: 0xF64, symBinAddr: 0x3D108, symSize: 0x18 }
  - { offset: 0x20B398, size: 0x8, addend: 0x0, symName: _hb_face_get_glyph_count, symObjAddr: 0xF64, symBinAddr: 0x3D108, symSize: 0x18 }
  - { offset: 0x20B66F, size: 0x8, addend: 0x0, symName: _hb_face_collect_unicodes, symObjAddr: 0xF7C, symBinAddr: 0x3D120, symSize: 0xFC }
  - { offset: 0x20BA3F, size: 0x8, addend: 0x0, symName: __ZNK2OT12CmapSubtable16collect_unicodesEP8hb_set_tj, symObjAddr: 0x16C4, symBinAddr: 0x3D858, symSize: 0x254 }
  - { offset: 0x20C060, size: 0x8, addend: 0x0, symName: __ZN2OT4cmap13accelerator_tC2EP9hb_face_t, symObjAddr: 0x56EC, symBinAddr: 0x40ED4, symSize: 0x2E4 }
  - { offset: 0x20CB20, size: 0x8, addend: 0x0, symName: _hb_face_collect_nominal_glyph_mapping, symObjAddr: 0x1078, symBinAddr: 0x3D21C, symSize: 0x174 }
  - { offset: 0x20D1DC, size: 0x8, addend: 0x0, symName: __ZNK2OT12CmapSubtable15collect_mappingEP8hb_set_tP8hb_map_tj, symObjAddr: 0x2D0C, symBinAddr: 0x3E8B0, symSize: 0x198 }
  - { offset: 0x20D644, size: 0x8, addend: 0x0, symName: __ZN14hb_sparseset_tI23hb_bit_set_invertible_tED2Ev, symObjAddr: 0x4A74, symBinAddr: 0x40618, symSize: 0xCC }
  - { offset: 0x20DB2D, size: 0x8, addend: 0x0, symName: _hb_face_collect_variation_selectors, symObjAddr: 0x11EC, symBinAddr: 0x3D390, symSize: 0x11C }
  - { offset: 0x20DF9B, size: 0x8, addend: 0x0, symName: __ZN14hb_sparseset_tI23hb_bit_set_invertible_tE3addEj, symObjAddr: 0x1C9C, symBinAddr: 0x3DE30, symSize: 0x13C }
  - { offset: 0x20E62D, size: 0x8, addend: 0x0, symName: _hb_face_collect_variation_unicodes, symObjAddr: 0x1308, symBinAddr: 0x3D4AC, symSize: 0x16C }
  - { offset: 0x20EBC0, size: 0x8, addend: 0x0, symName: __ZNK2OT23VariationSelectorRecord16collect_unicodesEP8hb_set_tPKv, symObjAddr: 0x4C14, symBinAddr: 0x406E4, symSize: 0x120 }
  - { offset: 0x20F15E, size: 0x8, addend: 0x0, symName: __ZNK2OT11ResourceMap8get_faceEjPKv, symObjAddr: 0x15E0, symBinAddr: 0x3D774, symSize: 0xE4 }
  - { offset: 0x20F97C, size: 0x8, addend: 0x0, symName: __ZNK2OT19CmapSubtableFormat413accelerator_t16collect_unicodesEP8hb_set_t, symObjAddr: 0x21AC, symBinAddr: 0x3DF6C, symSize: 0x1DC }
  - { offset: 0x20FD22, size: 0x8, addend: 0x0, symName: __ZNK2OT25CmapSubtableLongSegmentedINS_20CmapSubtableFormat12EE16collect_unicodesEP8hb_set_tj, symObjAddr: 0x1950, symBinAddr: 0x3DAE4, symSize: 0x1C8 }
  - { offset: 0x2101BF, size: 0x8, addend: 0x0, symName: __ZNK2OT25CmapSubtableLongSegmentedINS_20CmapSubtableFormat13EE16collect_unicodesEP8hb_set_tj, symObjAddr: 0x1B18, symBinAddr: 0x3DCAC, symSize: 0x184 }
  - { offset: 0x21093D, size: 0x8, addend: 0x0, symName: __ZN12hb_bit_set_t9del_rangeEjj, symObjAddr: 0x24CC, symBinAddr: 0x3E28C, symSize: 0x304 }
  - { offset: 0x211BFB, size: 0x8, addend: 0x0, symName: __ZN14hb_sparseset_tI23hb_bit_set_invertible_tE3delEj, symObjAddr: 0x2388, symBinAddr: 0x3E148, symSize: 0x144 }
  - { offset: 0x212041, size: 0x8, addend: 0x0, symName: __ZN12hb_bit_set_t9del_pagesEii, symObjAddr: 0x29EC, symBinAddr: 0x3E590, symSize: 0x134 }
  - { offset: 0x21267F, size: 0x8, addend: 0x0, symName: __ZN12hb_bit_set_t7compactER11hb_vector_tIjLb0EEj, symObjAddr: 0x2B20, symBinAddr: 0x3E6C4, symSize: 0x1EC }
  - { offset: 0x2126D6, size: 0x8, addend: 0x0, symName: __ZN12hb_bit_set_t7compactER11hb_vector_tIjLb0EEj, symObjAddr: 0x2B20, symBinAddr: 0x3E6C4, symSize: 0x1EC }
  - { offset: 0x2126F4, size: 0x8, addend: 0x0, symName: __ZN12hb_bit_set_t7compactER11hb_vector_tIjLb0EEj, symObjAddr: 0x2B20, symBinAddr: 0x3E6C4, symSize: 0x1EC }
  - { offset: 0x212E4C, size: 0x8, addend: 0x0, symName: __ZN12hb_hashmap_tIjjLb1EE13set_with_hashIRKjRjEEbOT_jOT0_b, symObjAddr: 0x3838, symBinAddr: 0x3F3DC, symSize: 0x19C }
  - { offset: 0x212F7B, size: 0x8, addend: 0x0, symName: __ZNK2OT19CmapSubtableFormat413accelerator_t15collect_mappingEP8hb_set_tP8hb_map_t, symObjAddr: 0x3CC8, symBinAddr: 0x3F86C, symSize: 0xDAC }
  - { offset: 0x214885, size: 0x8, addend: 0x0, symName: __ZNK2OT19CmapSubtableTrimmedINS_7IntTypeItLj2EEEE15collect_mappingEP8hb_set_tP8hb_map_t, symObjAddr: 0x2EDC, symBinAddr: 0x3EA80, symSize: 0x118 }
  - { offset: 0x214B9A, size: 0x8, addend: 0x0, symName: __ZNK2OT19CmapSubtableTrimmedINS_7IntTypeIjLj4EEEE15collect_mappingEP8hb_set_tP8hb_map_t, symObjAddr: 0x2FF4, symBinAddr: 0x3EB98, symSize: 0x138 }
  - { offset: 0x214EAB, size: 0x8, addend: 0x0, symName: __ZNK2OT25CmapSubtableLongSegmentedINS_20CmapSubtableFormat12EE15collect_mappingEP8hb_set_tP8hb_map_tj, symObjAddr: 0x312C, symBinAddr: 0x3ECD0, symSize: 0x388 }
  - { offset: 0x215390, size: 0x8, addend: 0x0, symName: __ZNK2OT25CmapSubtableLongSegmentedINS_20CmapSubtableFormat13EE15collect_mappingEP8hb_set_tP8hb_map_tj, symObjAddr: 0x34B4, symBinAddr: 0x3F058, symSize: 0x384 }
  - { offset: 0x215A6E, size: 0x8, addend: 0x0, symName: __ZN12hb_hashmap_tIjjLb1EE5allocEj, symObjAddr: 0x39D4, symBinAddr: 0x3F578, symSize: 0x158 }
  - { offset: 0x215BCE, size: 0x8, addend: 0x0, symName: __ZN12hb_hashmap_tIjjLb1EE13set_with_hashIjjEEbOT_jOT0_b, symObjAddr: 0x3B2C, symBinAddr: 0x3F6D0, symSize: 0x19C }
  - { offset: 0x216435, size: 0x8, addend: 0x0, symName: __ZNK2OT18ResourceForkHeader8sanitizeEP21hb_sanitize_context_t, symObjAddr: 0x4E6C, symBinAddr: 0x4093C, symSize: 0xB0 }
  - { offset: 0x21647B, size: 0x8, addend: 0x0, symName: __ZNK2OT18ResourceForkHeader8sanitizeEP21hb_sanitize_context_t, symObjAddr: 0x4E6C, symBinAddr: 0x4093C, symSize: 0xB0 }
  - { offset: 0x2164A1, size: 0x8, addend: 0x0, symName: __ZNK2OT18ResourceForkHeader8sanitizeEP21hb_sanitize_context_t, symObjAddr: 0x4E6C, symBinAddr: 0x4093C, symSize: 0xB0 }
  - { offset: 0x216968, size: 0x8, addend: 0x0, symName: __ZNK2OT17TTCHeaderVersion18sanitizeEP21hb_sanitize_context_t, symObjAddr: 0x4F1C, symBinAddr: 0x409EC, symSize: 0x154 }
  - { offset: 0x2169AC, size: 0x8, addend: 0x0, symName: __ZNK2OT17TTCHeaderVersion18sanitizeEP21hb_sanitize_context_t, symObjAddr: 0x4F1C, symBinAddr: 0x409EC, symSize: 0x154 }
  - { offset: 0x2169DD, size: 0x8, addend: 0x0, symName: __ZNK2OT17TTCHeaderVersion18sanitizeEP21hb_sanitize_context_t, symObjAddr: 0x4F1C, symBinAddr: 0x409EC, symSize: 0x154 }
  - { offset: 0x216A05, size: 0x8, addend: 0x0, symName: __ZNK2OT17TTCHeaderVersion18sanitizeEP21hb_sanitize_context_t, symObjAddr: 0x4F1C, symBinAddr: 0x409EC, symSize: 0x154 }
  - { offset: 0x216A2D, size: 0x8, addend: 0x0, symName: __ZNK2OT17TTCHeaderVersion18sanitizeEP21hb_sanitize_context_t, symObjAddr: 0x4F1C, symBinAddr: 0x409EC, symSize: 0x154 }
  - { offset: 0x217501, size: 0x8, addend: 0x0, symName: __ZNK2OT11ResourceMap8sanitizeEP21hb_sanitize_context_tPKv, symObjAddr: 0x5070, symBinAddr: 0x40B40, symSize: 0x13C }
  - { offset: 0x2180C5, size: 0x8, addend: 0x0, symName: __ZNK2OT18ResourceTypeRecord8sanitizeEP21hb_sanitize_context_tPKvS4_, symObjAddr: 0x51AC, symBinAddr: 0x40C7C, symSize: 0x138 }
  - { offset: 0x218942, size: 0x8, addend: 0x0, symName: __ZNK2OT14ResourceRecord8sanitizeEP21hb_sanitize_context_tPKv, symObjAddr: 0x52E4, symBinAddr: 0x40DB4, symSize: 0x120 }
  - { offset: 0x218997, size: 0x8, addend: 0x0, symName: __ZNK2OT14ResourceRecord8sanitizeEP21hb_sanitize_context_tPKv, symObjAddr: 0x52E4, symBinAddr: 0x40DB4, symSize: 0x120 }
  - { offset: 0x2189BD, size: 0x8, addend: 0x0, symName: __ZNK2OT14ResourceRecord8sanitizeEP21hb_sanitize_context_tPKv, symObjAddr: 0x52E4, symBinAddr: 0x40DB4, symSize: 0x120 }
  - { offset: 0x219A46, size: 0x8, addend: 0x0, symName: __ZN21hb_sanitize_context_t13sanitize_blobIN2OT4cmapEEEP9hb_blob_tS4_, symObjAddr: 0x5FDC, symBinAddr: 0x417C4, symSize: 0x21C }
  - { offset: 0x219C75, size: 0x8, addend: 0x0, symName: __ZNK2OT4cmap18find_best_subtableEPbS1_S1_, symObjAddr: 0x59D0, symBinAddr: 0x411B8, symSize: 0x2B0 }
  - { offset: 0x21A444, size: 0x8, addend: 0x0, symName: __ZNK17hb_sorted_array_tIKN2OT14EncodingRecordEE12bsearch_implIS1_JEEEbRKT_PjDpT0_, symObjAddr: 0x68A0, symBinAddr: 0x42088, symSize: 0x138 }
  - { offset: 0x21A5B4, size: 0x8, addend: 0x0, symName: __ZNK16hb_lazy_loader_tIN2OT3OS2E22hb_table_lazy_loader_tIS1_Lj6ELb1EE9hb_face_tLj6E9hb_blob_tEptEv, symObjAddr: 0x5D0C, symBinAddr: 0x414F4, symSize: 0xB4 }
  - { offset: 0x21A85A, size: 0x8, addend: 0x0, symName: __ZNK2OT4cmap13find_subtableEjj, symObjAddr: 0x5C80, symBinAddr: 0x41468, symSize: 0x8C }
  - { offset: 0x21ABF2, size: 0x8, addend: 0x0, symName: __ZN22hb_table_lazy_loader_tIN2OT3OS2ELj6ELb1EE6createEP9hb_face_t, symObjAddr: 0x69D8, symBinAddr: 0x421C0, symSize: 0xA8 }
  - { offset: 0x21ADDD, size: 0x8, addend: 0x0, symName: __ZN2OT4cmap13accelerator_t21get_glyph_from_symbolINS_12CmapSubtableEXadL_ZNS_L18_hb_symbol_pua_mapEjEEEEbPKvjPj, symObjAddr: 0x5DC0, symBinAddr: 0x415A8, symSize: 0x6C }
  - { offset: 0x21AE98, size: 0x8, addend: 0x0, symName: __ZNK2OT12CmapSubtable9get_glyphEjPj, symObjAddr: 0x6D8C, symBinAddr: 0x42574, symSize: 0x17C }
  - { offset: 0x21B516, size: 0x8, addend: 0x0, symName: __ZN2OT4cmap13accelerator_t21get_glyph_from_symbolINS_12CmapSubtableEXadL_ZL23_hb_arabic_pua_simp_mapjEEEEbPKvjPj, symObjAddr: 0x5E2C, symBinAddr: 0x41614, symSize: 0x60 }
  - { offset: 0x21B5DC, size: 0x8, addend: 0x0, symName: __ZL23_hb_arabic_pua_simp_mapj, symObjAddr: 0x711C, symBinAddr: 0x42904, symSize: 0x80 }
  - { offset: 0x21B5E8, size: 0x8, addend: 0x0, symName: __ZL23_hb_arabic_pua_simp_mapj, symObjAddr: 0x711C, symBinAddr: 0x42904, symSize: 0x80 }
  - { offset: 0x21B658, size: 0x8, addend: 0x0, symName: __ZN2OT4cmap13accelerator_t21get_glyph_from_symbolINS_12CmapSubtableEXadL_ZL23_hb_arabic_pua_trad_mapjEEEEbPKvjPj, symObjAddr: 0x5E8C, symBinAddr: 0x41674, symSize: 0x60 }
  - { offset: 0x21B71E, size: 0x8, addend: 0x0, symName: __ZL23_hb_arabic_pua_trad_mapj, symObjAddr: 0x719C, symBinAddr: 0x42984, symSize: 0x84 }
  - { offset: 0x21B72A, size: 0x8, addend: 0x0, symName: __ZL23_hb_arabic_pua_trad_mapj, symObjAddr: 0x719C, symBinAddr: 0x42984, symSize: 0x84 }
  - { offset: 0x21B790, size: 0x8, addend: 0x0, symName: __ZN2OT4cmap13accelerator_t14get_glyph_fromINS_12CmapSubtableEEEbPKvjPj, symObjAddr: 0x5EEC, symBinAddr: 0x416D4, symSize: 0x4 }
  - { offset: 0x21B7E3, size: 0x8, addend: 0x0, symName: __ZN2OT4cmap13accelerator_t14get_glyph_fromINS_12CmapSubtableEEEbPKvjPj, symObjAddr: 0x5EEC, symBinAddr: 0x416D4, symSize: 0x4 }
  - { offset: 0x21B9E1, size: 0x8, addend: 0x0, symName: __ZN2OT4cmap13accelerator_t23get_glyph_from_macromanINS_12CmapSubtableEEEbPKvjPj, symObjAddr: 0x5EF0, symBinAddr: 0x416D8, symSize: 0xD0 }
  - { offset: 0x21BB75, size: 0x8, addend: 0x0, symName: __ZN2OT4cmap13accelerator_t20get_glyph_from_asciiINS_12CmapSubtableEEEbPKvjPj, symObjAddr: 0x5FC0, symBinAddr: 0x417A8, symSize: 0x14 }
  - { offset: 0x21BBBB, size: 0x8, addend: 0x0, symName: __ZN2OT4cmap13accelerator_t14get_glyph_fromINS_20CmapSubtableFormat12EEEbPKvjPj, symObjAddr: 0x5FD4, symBinAddr: 0x417BC, symSize: 0x4 }
  - { offset: 0x21BC0E, size: 0x8, addend: 0x0, symName: __ZN2OT4cmap13accelerator_t14get_glyph_fromINS_20CmapSubtableFormat12EEEbPKvjPj, symObjAddr: 0x5FD4, symBinAddr: 0x417BC, symSize: 0x4 }
  - { offset: 0x21BC38, size: 0x8, addend: 0x0, symName: __ZNK2OT25CmapSubtableLongSegmentedINS_20CmapSubtableFormat12EE9get_glyphEjPj, symObjAddr: 0x704C, symBinAddr: 0x42834, symSize: 0xD0 }
  - { offset: 0x21BCAB, size: 0x8, addend: 0x0, symName: __ZNK2OT25CmapSubtableLongSegmentedINS_20CmapSubtableFormat12EE9get_glyphEjPj, symObjAddr: 0x704C, symBinAddr: 0x42834, symSize: 0xD0 }
  - { offset: 0x21BCCB, size: 0x8, addend: 0x0, symName: __ZNK2OT25CmapSubtableLongSegmentedINS_20CmapSubtableFormat12EE9get_glyphEjPj, symObjAddr: 0x704C, symBinAddr: 0x42834, symSize: 0xD0 }
  - { offset: 0x21BCEB, size: 0x8, addend: 0x0, symName: __ZNK2OT25CmapSubtableLongSegmentedINS_20CmapSubtableFormat12EE9get_glyphEjPj, symObjAddr: 0x704C, symBinAddr: 0x42834, symSize: 0xD0 }
  - { offset: 0x21BF39, size: 0x8, addend: 0x0, symName: __ZN2OT19CmapSubtableFormat413accelerator_t14get_glyph_funcEPKvjPj, symObjAddr: 0x5FD8, symBinAddr: 0x417C0, symSize: 0x4 }
  - { offset: 0x21BF68, size: 0x8, addend: 0x0, symName: __ZN2OT19CmapSubtableFormat413accelerator_t14get_glyph_funcEPKvjPj, symObjAddr: 0x5FD8, symBinAddr: 0x417C0, symSize: 0x4 }
  - { offset: 0x21BF89, size: 0x8, addend: 0x0, symName: __ZNK2OT4cmap8sanitizeEP21hb_sanitize_context_t, symObjAddr: 0x61F8, symBinAddr: 0x419E0, symSize: 0x148 }
  - { offset: 0x21C950, size: 0x8, addend: 0x0, symName: __ZNK2OT12CmapSubtable8sanitizeEP21hb_sanitize_context_t, symObjAddr: 0x6340, symBinAddr: 0x41B28, symSize: 0x27C }
  - { offset: 0x21C996, size: 0x8, addend: 0x0, symName: __ZNK2OT12CmapSubtable8sanitizeEP21hb_sanitize_context_t, symObjAddr: 0x6340, symBinAddr: 0x41B28, symSize: 0x27C }
  - { offset: 0x21C9BC, size: 0x8, addend: 0x0, symName: __ZNK2OT12CmapSubtable8sanitizeEP21hb_sanitize_context_t, symObjAddr: 0x6340, symBinAddr: 0x41B28, symSize: 0x27C }
  - { offset: 0x21D832, size: 0x8, addend: 0x0, symName: __ZNK2OT20CmapSubtableFormat148sanitizeEP21hb_sanitize_context_t, symObjAddr: 0x65F8, symBinAddr: 0x41DE0, symSize: 0x104 }
  - { offset: 0x21DCD2, size: 0x8, addend: 0x0, symName: __ZNK2OT23VariationSelectorRecord8sanitizeEP21hb_sanitize_context_tPKv, symObjAddr: 0x66FC, symBinAddr: 0x41EE4, symSize: 0x1A4 }
  - { offset: 0x21DD27, size: 0x8, addend: 0x0, symName: __ZNK2OT23VariationSelectorRecord8sanitizeEP21hb_sanitize_context_tPKv, symObjAddr: 0x66FC, symBinAddr: 0x41EE4, symSize: 0x1A4 }
  - { offset: 0x21ED31, size: 0x8, addend: 0x0, symName: __ZN21hb_sanitize_context_t13sanitize_blobIN2OT3OS2EEEP9hb_blob_tS4_, symObjAddr: 0x6A80, symBinAddr: 0x42268, symSize: 0x30C }
  - { offset: 0x21F676, size: 0x8, addend: 0x0, symName: __ZNK2OT19CmapSubtableFormat49get_glyphEjPj, symObjAddr: 0x6F40, symBinAddr: 0x42728, symSize: 0x10C }
  - { offset: 0x21F6D1, size: 0x8, addend: 0x0, symName: __ZNK2OT19CmapSubtableFormat49get_glyphEjPj, symObjAddr: 0x6F40, symBinAddr: 0x42728, symSize: 0x10C }
  - { offset: 0x21F6EF, size: 0x8, addend: 0x0, symName: __ZNK2OT19CmapSubtableFormat49get_glyphEjPj, symObjAddr: 0x6F40, symBinAddr: 0x42728, symSize: 0x10C }
  - { offset: 0x21F70D, size: 0x8, addend: 0x0, symName: __ZNK2OT19CmapSubtableFormat49get_glyphEjPj, symObjAddr: 0x6F40, symBinAddr: 0x42728, symSize: 0x10C }
  - { offset: 0x21F72B, size: 0x8, addend: 0x0, symName: __ZNK2OT19CmapSubtableFormat49get_glyphEjPj, symObjAddr: 0x6F40, symBinAddr: 0x42728, symSize: 0x10C }
  - { offset: 0x21F74B, size: 0x8, addend: 0x0, symName: __ZNK2OT19CmapSubtableFormat49get_glyphEjPj, symObjAddr: 0x6F40, symBinAddr: 0x42728, symSize: 0x10C }
  - { offset: 0x221BAA, size: 0x8, addend: 0x0, symName: __hb_fallback_shaper_face_data_create, symObjAddr: 0x0, symBinAddr: 0x42AEC, symSize: 0x8 }
  - { offset: 0x22292C, size: 0x8, addend: 0x0, symName: __hb_fallback_shaper_face_data_create, symObjAddr: 0x0, symBinAddr: 0x42AEC, symSize: 0x8 }
  - { offset: 0x222957, size: 0x8, addend: 0x0, symName: __hb_fallback_shaper_face_data_destroy, symObjAddr: 0x8, symBinAddr: 0x42AF4, symSize: 0x4 }
  - { offset: 0x22297C, size: 0x8, addend: 0x0, symName: __hb_fallback_shaper_font_data_create, symObjAddr: 0xC, symBinAddr: 0x42AF8, symSize: 0x8 }
  - { offset: 0x2229A7, size: 0x8, addend: 0x0, symName: __hb_fallback_shaper_font_data_destroy, symObjAddr: 0x14, symBinAddr: 0x42B00, symSize: 0x4 }
  - { offset: 0x225C76, size: 0x8, addend: 0x0, symName: __hb_fallback_shape, symObjAddr: 0x18, symBinAddr: 0x42B04, symSize: 0x254 }
  - { offset: 0x225FBB, size: 0x8, addend: 0x0, symName: __ZN18hb_unicode_funcs_t20is_default_ignorableEj, symObjAddr: 0x26C, symBinAddr: 0x42D58, symSize: 0x11C }
  - { offset: 0x2286F9, size: 0x8, addend: 0x0, symName: __hb_Null_hb_font_funcs_t, symObjAddr: 0x6A00, symBinAddr: 0x108798, symSize: 0x0 }
  - { offset: 0x230D57, size: 0x8, addend: 0x0, symName: __hb_Null_hb_font_t, symObjAddr: 0x6B70, symBinAddr: 0x108908, symSize: 0x0 }
  - { offset: 0x230D6E, size: 0x8, addend: 0x0, symName: __ZL22_hb_font_funcs_default, symObjAddr: 0x6AB8, symBinAddr: 0x108850, symSize: 0x0 }
  - { offset: 0x230D89, size: 0x8, addend: 0x0, symName: __ZL22_hb_draw_funcs_default, symObjAddr: 0x6C30, symBinAddr: 0x1089C8, symSize: 0x0 }
  - { offset: 0x23105F, size: 0x8, addend: 0x0, symName: __ZL30hb_font_get_font_h_extents_nilP9hb_font_tPvP17hb_font_extents_tS1_, symObjAddr: 0x0, symBinAddr: 0x42E74, symSize: 0x14 }
  - { offset: 0x2310B3, size: 0x8, addend: 0x0, symName: __ZL30hb_font_get_font_h_extents_nilP9hb_font_tPvP17hb_font_extents_tS1_, symObjAddr: 0x0, symBinAddr: 0x42E74, symSize: 0x14 }
  - { offset: 0x2310DC, size: 0x8, addend: 0x0, symName: __ZL30hb_font_get_font_v_extents_nilP9hb_font_tPvP17hb_font_extents_tS1_, symObjAddr: 0x14, symBinAddr: 0x42E88, symSize: 0x14 }
  - { offset: 0x231130, size: 0x8, addend: 0x0, symName: __ZL30hb_font_get_font_v_extents_nilP9hb_font_tPvP17hb_font_extents_tS1_, symObjAddr: 0x14, symBinAddr: 0x42E88, symSize: 0x14 }
  - { offset: 0x231159, size: 0x8, addend: 0x0, symName: __ZL29hb_font_get_nominal_glyph_nilP9hb_font_tPvjPjS1_, symObjAddr: 0x28, symBinAddr: 0x42E9C, symSize: 0xC }
  - { offset: 0x231304, size: 0x8, addend: 0x0, symName: __ZL34hb_font_get_nominal_glyphs_defaultP9hb_font_tPvjPKjjPjjS1_, symObjAddr: 0x34, symBinAddr: 0x42EA8, symSize: 0x11C }
  - { offset: 0x231502, size: 0x8, addend: 0x0, symName: __ZL31hb_font_get_variation_glyph_nilP9hb_font_tPvjjPjS1_, symObjAddr: 0x150, symBinAddr: 0x42FC4, symSize: 0xC }
  - { offset: 0x23156B, size: 0x8, addend: 0x0, symName: __ZL31hb_font_get_glyph_h_advance_nilP9hb_font_tPvjS1_, symObjAddr: 0x15C, symBinAddr: 0x42FD0, symSize: 0x8 }
  - { offset: 0x2315BE, size: 0x8, addend: 0x0, symName: __ZL31hb_font_get_glyph_v_advance_nilP9hb_font_tPvjS1_, symObjAddr: 0x164, symBinAddr: 0x42FD8, symSize: 0xC }
  - { offset: 0x23170E, size: 0x8, addend: 0x0, symName: __ZL36hb_font_get_glyph_h_advances_defaultP9hb_font_tPvjPKjjPijS1_, symObjAddr: 0x170, symBinAddr: 0x42FE4, symSize: 0x144 }
  - { offset: 0x231A30, size: 0x8, addend: 0x0, symName: __ZL36hb_font_get_glyph_v_advances_defaultP9hb_font_tPvjPKjjPijS1_, symObjAddr: 0x2B4, symBinAddr: 0x43128, symSize: 0x144 }
  - { offset: 0x231C8A, size: 0x8, addend: 0x0, symName: __ZL30hb_font_get_glyph_h_origin_nilP9hb_font_tPvjPiS2_S1_, symObjAddr: 0x3F8, symBinAddr: 0x4326C, symSize: 0x10 }
  - { offset: 0x231CFC, size: 0x8, addend: 0x0, symName: __ZL30hb_font_get_glyph_v_origin_nilP9hb_font_tPvjPiS2_S1_, symObjAddr: 0x408, symBinAddr: 0x4327C, symSize: 0x10 }
  - { offset: 0x231D6E, size: 0x8, addend: 0x0, symName: __ZL31hb_font_get_glyph_h_kerning_nilP9hb_font_tPvjjS1_, symObjAddr: 0x418, symBinAddr: 0x4328C, symSize: 0x8 }
  - { offset: 0x231DCF, size: 0x8, addend: 0x0, symName: __ZL31hb_font_get_glyph_v_kerning_nilP9hb_font_tPvjjS1_, symObjAddr: 0x420, symBinAddr: 0x43294, symSize: 0x8 }
  - { offset: 0x231E30, size: 0x8, addend: 0x0, symName: __ZL29hb_font_get_glyph_extents_nilP9hb_font_tPvjP18hb_glyph_extents_tS1_, symObjAddr: 0x428, symBinAddr: 0x4329C, symSize: 0xC }
  - { offset: 0x231E96, size: 0x8, addend: 0x0, symName: __ZL29hb_font_get_glyph_extents_nilP9hb_font_tPvjP18hb_glyph_extents_tS1_, symObjAddr: 0x428, symBinAddr: 0x4329C, symSize: 0xC }
  - { offset: 0x231EC0, size: 0x8, addend: 0x0, symName: __ZL35hb_font_get_glyph_contour_point_nilP9hb_font_tPvjjPiS2_S1_, symObjAddr: 0x434, symBinAddr: 0x432A8, symSize: 0x10 }
  - { offset: 0x231F3F, size: 0x8, addend: 0x0, symName: __ZL26hb_font_get_glyph_name_nilP9hb_font_tPvjPcjS1_, symObjAddr: 0x444, symBinAddr: 0x432B8, symSize: 0x10 }
  - { offset: 0x231FB1, size: 0x8, addend: 0x0, symName: __ZL31hb_font_get_glyph_from_name_nilP9hb_font_tPvPKciPjS1_, symObjAddr: 0x454, symBinAddr: 0x432C8, symSize: 0xC }
  - { offset: 0x232021, size: 0x8, addend: 0x0, symName: __ZL22hb_font_draw_glyph_nilP9hb_font_tPvjP15hb_draw_funcs_tS1_S1_, symObjAddr: 0x460, symBinAddr: 0x432D4, symSize: 0x4 }
  - { offset: 0x23208B, size: 0x8, addend: 0x0, symName: __ZL23hb_font_paint_glyph_nilP9hb_font_tPvjP16hb_paint_funcs_tS1_jjS1_, symObjAddr: 0x464, symBinAddr: 0x432D8, symSize: 0x4 }
  - { offset: 0x23229C, size: 0x8, addend: 0x0, symName: _hb_font_funcs_create, symObjAddr: 0x468, symBinAddr: 0x432DC, symSize: 0x88 }
  - { offset: 0x2324BE, size: 0x8, addend: 0x0, symName: _hb_font_funcs_get_empty, symObjAddr: 0x4F0, symBinAddr: 0x43364, symSize: 0xC }
  - { offset: 0x232549, size: 0x8, addend: 0x0, symName: _hb_font_funcs_reference, symObjAddr: 0x4FC, symBinAddr: 0x43370, symSize: 0x1C }
  - { offset: 0x232569, size: 0x8, addend: 0x0, symName: _hb_font_funcs_reference, symObjAddr: 0x4FC, symBinAddr: 0x43370, symSize: 0x1C }
  - { offset: 0x232587, size: 0x8, addend: 0x0, symName: _hb_font_funcs_reference, symObjAddr: 0x4FC, symBinAddr: 0x43370, symSize: 0x1C }
  - { offset: 0x23279D, size: 0x8, addend: 0x0, symName: _hb_font_funcs_destroy, symObjAddr: 0x518, symBinAddr: 0x4338C, symSize: 0x340 }
  - { offset: 0x232E75, size: 0x8, addend: 0x0, symName: _hb_font_funcs_set_user_data, symObjAddr: 0x858, symBinAddr: 0x436CC, symSize: 0xE0 }
  - { offset: 0x233536, size: 0x8, addend: 0x0, symName: _hb_font_funcs_get_user_data, symObjAddr: 0x938, symBinAddr: 0x437AC, symSize: 0xCC }
  - { offset: 0x23380D, size: 0x8, addend: 0x0, symName: _hb_font_funcs_make_immutable, symObjAddr: 0xA04, symBinAddr: 0x43878, symSize: 0x10 }
  - { offset: 0x233837, size: 0x8, addend: 0x0, symName: _hb_font_funcs_make_immutable, symObjAddr: 0xA04, symBinAddr: 0x43878, symSize: 0x10 }
  - { offset: 0x233855, size: 0x8, addend: 0x0, symName: _hb_font_funcs_make_immutable, symObjAddr: 0xA04, symBinAddr: 0x43878, symSize: 0x10 }
  - { offset: 0x233875, size: 0x8, addend: 0x0, symName: _hb_font_funcs_make_immutable, symObjAddr: 0xA04, symBinAddr: 0x43878, symSize: 0x10 }
  - { offset: 0x2338EE, size: 0x8, addend: 0x0, symName: _hb_font_funcs_is_immutable, symObjAddr: 0xA14, symBinAddr: 0x43888, symSize: 0x10 }
  - { offset: 0x23391E, size: 0x8, addend: 0x0, symName: _hb_font_funcs_is_immutable, symObjAddr: 0xA14, symBinAddr: 0x43888, symSize: 0x10 }
  - { offset: 0x23393C, size: 0x8, addend: 0x0, symName: _hb_font_funcs_is_immutable, symObjAddr: 0xA14, symBinAddr: 0x43888, symSize: 0x10 }
  - { offset: 0x23395C, size: 0x8, addend: 0x0, symName: _hb_font_funcs_is_immutable, symObjAddr: 0xA14, symBinAddr: 0x43888, symSize: 0x10 }
  - { offset: 0x233A0A, size: 0x8, addend: 0x0, symName: _hb_font_funcs_set_font_h_extents_func, symObjAddr: 0xA24, symBinAddr: 0x43898, symSize: 0x13C }
  - { offset: 0x233B8F, size: 0x8, addend: 0x0, symName: __ZL34hb_font_get_font_h_extents_defaultP9hb_font_tPvP17hb_font_extents_tS1_, symObjAddr: 0xB60, symBinAddr: 0x439D4, symSize: 0xC0 }
  - { offset: 0x233CAF, size: 0x8, addend: 0x0, symName: _hb_font_funcs_set_font_v_extents_func, symObjAddr: 0xC20, symBinAddr: 0x43A94, symSize: 0x13C }
  - { offset: 0x233E35, size: 0x8, addend: 0x0, symName: __ZL34hb_font_get_font_v_extents_defaultP9hb_font_tPvP17hb_font_extents_tS1_, symObjAddr: 0xD5C, symBinAddr: 0x43BD0, symSize: 0xC0 }
  - { offset: 0x233F56, size: 0x8, addend: 0x0, symName: _hb_font_funcs_set_nominal_glyph_func, symObjAddr: 0xE1C, symBinAddr: 0x43C90, symSize: 0x13C }
  - { offset: 0x2340C8, size: 0x8, addend: 0x0, symName: __ZL33hb_font_get_nominal_glyph_defaultP9hb_font_tPvjPjS1_, symObjAddr: 0xF58, symBinAddr: 0x43DCC, symSize: 0xA4 }
  - { offset: 0x234237, size: 0x8, addend: 0x0, symName: _hb_font_funcs_set_nominal_glyphs_func, symObjAddr: 0xFFC, symBinAddr: 0x43E70, symSize: 0x13C }
  - { offset: 0x23439A, size: 0x8, addend: 0x0, symName: _hb_font_funcs_set_variation_glyph_func, symObjAddr: 0x1138, symBinAddr: 0x43FAC, symSize: 0x13C }
  - { offset: 0x234528, size: 0x8, addend: 0x0, symName: __ZL35hb_font_get_variation_glyph_defaultP9hb_font_tPvjjPjS1_, symObjAddr: 0x1274, symBinAddr: 0x440E8, symSize: 0x28 }
  - { offset: 0x2345E3, size: 0x8, addend: 0x0, symName: _hb_font_funcs_set_glyph_h_advance_func, symObjAddr: 0x129C, symBinAddr: 0x44110, symSize: 0x13C }
  - { offset: 0x234774, size: 0x8, addend: 0x0, symName: __ZL35hb_font_get_glyph_h_advance_defaultP9hb_font_tPvjS1_, symObjAddr: 0x13D8, symBinAddr: 0x4424C, symSize: 0xE4 }
  - { offset: 0x234903, size: 0x8, addend: 0x0, symName: _hb_font_funcs_set_glyph_v_advance_func, symObjAddr: 0x14BC, symBinAddr: 0x44330, symSize: 0x13C }
  - { offset: 0x234A94, size: 0x8, addend: 0x0, symName: __ZL35hb_font_get_glyph_v_advance_defaultP9hb_font_tPvjS1_, symObjAddr: 0x15F8, symBinAddr: 0x4446C, symSize: 0xE4 }
  - { offset: 0x234C23, size: 0x8, addend: 0x0, symName: _hb_font_funcs_set_glyph_h_advances_func, symObjAddr: 0x16DC, symBinAddr: 0x44550, symSize: 0x13C }
  - { offset: 0x234D86, size: 0x8, addend: 0x0, symName: _hb_font_funcs_set_glyph_v_advances_func, symObjAddr: 0x1818, symBinAddr: 0x4468C, symSize: 0x13C }
  - { offset: 0x234EE9, size: 0x8, addend: 0x0, symName: _hb_font_funcs_set_glyph_h_origin_func, symObjAddr: 0x1954, symBinAddr: 0x447C8, symSize: 0x13C }
  - { offset: 0x2350FB, size: 0x8, addend: 0x0, symName: __ZL34hb_font_get_glyph_h_origin_defaultP9hb_font_tPvjPiS2_S1_, symObjAddr: 0x1A90, symBinAddr: 0x44904, symSize: 0x114 }
  - { offset: 0x2352A1, size: 0x8, addend: 0x0, symName: _hb_font_funcs_set_glyph_v_origin_func, symObjAddr: 0x1BA4, symBinAddr: 0x44A18, symSize: 0x13C }
  - { offset: 0x235441, size: 0x8, addend: 0x0, symName: __ZL34hb_font_get_glyph_v_origin_defaultP9hb_font_tPvjPiS2_S1_, symObjAddr: 0x1CE0, symBinAddr: 0x44B54, symSize: 0x114 }
  - { offset: 0x2355E7, size: 0x8, addend: 0x0, symName: _hb_font_funcs_set_glyph_h_kerning_func, symObjAddr: 0x1DF4, symBinAddr: 0x44C68, symSize: 0x13C }
  - { offset: 0x23577A, size: 0x8, addend: 0x0, symName: __ZL35hb_font_get_glyph_h_kerning_defaultP9hb_font_tPvjjS1_, symObjAddr: 0x1F30, symBinAddr: 0x44DA4, symSize: 0x74 }
  - { offset: 0x235840, size: 0x8, addend: 0x0, symName: _hb_font_funcs_set_glyph_v_kerning_func, symObjAddr: 0x1FA4, symBinAddr: 0x44E18, symSize: 0x13C }
  - { offset: 0x2359D3, size: 0x8, addend: 0x0, symName: __ZL35hb_font_get_glyph_v_kerning_defaultP9hb_font_tPvjjS1_, symObjAddr: 0x20E0, symBinAddr: 0x44F54, symSize: 0x74 }
  - { offset: 0x235A99, size: 0x8, addend: 0x0, symName: _hb_font_funcs_set_glyph_extents_func, symObjAddr: 0x2154, symBinAddr: 0x44FC8, symSize: 0x13C }
  - { offset: 0x235C5A, size: 0x8, addend: 0x0, symName: __ZL33hb_font_get_glyph_extents_defaultP9hb_font_tPvjP18hb_glyph_extents_tS1_, symObjAddr: 0x2290, symBinAddr: 0x45104, symSize: 0x158 }
  - { offset: 0x235E77, size: 0x8, addend: 0x0, symName: _hb_font_funcs_set_glyph_contour_point_func, symObjAddr: 0x23E8, symBinAddr: 0x4525C, symSize: 0x13C }
  - { offset: 0x236024, size: 0x8, addend: 0x0, symName: __ZL39hb_font_get_glyph_contour_point_defaultP9hb_font_tPvjjPiS2_S1_, symObjAddr: 0x2524, symBinAddr: 0x45398, symSize: 0x114 }
  - { offset: 0x2361DB, size: 0x8, addend: 0x0, symName: _hb_font_funcs_set_glyph_name_func, symObjAddr: 0x2638, symBinAddr: 0x454AC, symSize: 0x13C }
  - { offset: 0x23637B, size: 0x8, addend: 0x0, symName: __ZL30hb_font_get_glyph_name_defaultP9hb_font_tPvjPcjS1_, symObjAddr: 0x2774, symBinAddr: 0x455E8, symSize: 0x2C }
  - { offset: 0x236437, size: 0x8, addend: 0x0, symName: _hb_font_funcs_set_glyph_from_name_func, symObjAddr: 0x27A0, symBinAddr: 0x45614, symSize: 0x13C }
  - { offset: 0x2365D7, size: 0x8, addend: 0x0, symName: __ZL35hb_font_get_glyph_from_name_defaultP9hb_font_tPvPKciPjS1_, symObjAddr: 0x28DC, symBinAddr: 0x45750, symSize: 0x7C }
  - { offset: 0x2366BB, size: 0x8, addend: 0x0, symName: _hb_font_funcs_set_draw_glyph_func, symObjAddr: 0x2958, symBinAddr: 0x457CC, symSize: 0x13C }
  - { offset: 0x23685B, size: 0x8, addend: 0x0, symName: __ZL26hb_font_draw_glyph_defaultP9hb_font_tPvjP15hb_draw_funcs_tS1_S1_, symObjAddr: 0x2A94, symBinAddr: 0x45908, symSize: 0xAC }
  - { offset: 0x236926, size: 0x8, addend: 0x0, symName: _hb_font_funcs_set_paint_glyph_func, symObjAddr: 0x2B40, symBinAddr: 0x459B4, symSize: 0x13C }
  - { offset: 0x236B71, size: 0x8, addend: 0x0, symName: __ZL27hb_font_paint_glyph_defaultP9hb_font_tPvjP16hb_paint_funcs_tS1_jjS1_, symObjAddr: 0x2C7C, symBinAddr: 0x45AF0, symSize: 0x120 }
  - { offset: 0x236D23, size: 0x8, addend: 0x0, symName: __ZN9hb_font_t12has_func_setEj, symObjAddr: 0x2D9C, symBinAddr: 0x45C10, symSize: 0x2C }
  - { offset: 0x236D4E, size: 0x8, addend: 0x0, symName: __ZN9hb_font_t8has_funcEj, symObjAddr: 0x2DC8, symBinAddr: 0x45C3C, symSize: 0x4C }
  - { offset: 0x236D9E, size: 0x8, addend: 0x0, symName: _hb_font_get_h_extents, symObjAddr: 0x2E14, symBinAddr: 0x45C88, symSize: 0x30 }
  - { offset: 0x236E4A, size: 0x8, addend: 0x0, symName: _hb_font_get_v_extents, symObjAddr: 0x2E44, symBinAddr: 0x45CB8, symSize: 0x30 }
  - { offset: 0x236EF7, size: 0x8, addend: 0x0, symName: _hb_font_get_glyph, symObjAddr: 0x2E74, symBinAddr: 0x45CE8, symSize: 0x5C }
  - { offset: 0x237003, size: 0x8, addend: 0x0, symName: _hb_font_get_nominal_glyph, symObjAddr: 0x2ED0, symBinAddr: 0x45D44, symSize: 0x2C }
  - { offset: 0x2370A3, size: 0x8, addend: 0x0, symName: _hb_font_get_nominal_glyphs, symObjAddr: 0x2EFC, symBinAddr: 0x45D70, symSize: 0x34 }
  - { offset: 0x237187, size: 0x8, addend: 0x0, symName: _hb_font_get_variation_glyph, symObjAddr: 0x2F30, symBinAddr: 0x45DA4, symSize: 0x30 }
  - { offset: 0x237240, size: 0x8, addend: 0x0, symName: _hb_font_get_glyph_h_advance, symObjAddr: 0x2F60, symBinAddr: 0x45DD4, symSize: 0x24 }
  - { offset: 0x2372C0, size: 0x8, addend: 0x0, symName: _hb_font_get_glyph_v_advance, symObjAddr: 0x2F84, symBinAddr: 0x45DF8, symSize: 0x24 }
  - { offset: 0x237340, size: 0x8, addend: 0x0, symName: _hb_font_get_glyph_h_advances, symObjAddr: 0x2FA8, symBinAddr: 0x45E1C, symSize: 0x34 }
  - { offset: 0x237420, size: 0x8, addend: 0x0, symName: _hb_font_get_glyph_v_advances, symObjAddr: 0x2FDC, symBinAddr: 0x45E50, symSize: 0x34 }
  - { offset: 0x237500, size: 0x8, addend: 0x0, symName: _hb_font_get_glyph_h_origin, symObjAddr: 0x3010, symBinAddr: 0x45E84, symSize: 0x34 }
  - { offset: 0x2375B2, size: 0x8, addend: 0x0, symName: _hb_font_get_glyph_v_origin, symObjAddr: 0x3044, symBinAddr: 0x45EB8, symSize: 0x34 }
  - { offset: 0x237664, size: 0x8, addend: 0x0, symName: _hb_font_get_glyph_h_kerning, symObjAddr: 0x3078, symBinAddr: 0x45EEC, symSize: 0x28 }
  - { offset: 0x2376FD, size: 0x8, addend: 0x0, symName: _hb_font_get_glyph_v_kerning, symObjAddr: 0x30A0, symBinAddr: 0x45F14, symSize: 0x28 }
  - { offset: 0x237796, size: 0x8, addend: 0x0, symName: _hb_font_get_glyph_extents, symObjAddr: 0x30C8, symBinAddr: 0x45F3C, symSize: 0x2C }
  - { offset: 0x23785C, size: 0x8, addend: 0x0, symName: _hb_font_get_glyph_contour_point, symObjAddr: 0x30F4, symBinAddr: 0x45F68, symSize: 0x38 }
  - { offset: 0x237927, size: 0x8, addend: 0x0, symName: _hb_font_get_glyph_name, symObjAddr: 0x312C, symBinAddr: 0x45FA0, symSize: 0x34 }
  - { offset: 0x2379D9, size: 0x8, addend: 0x0, symName: _hb_font_get_glyph_from_name, symObjAddr: 0x3160, symBinAddr: 0x45FD4, symSize: 0x80 }
  - { offset: 0x237AD6, size: 0x8, addend: 0x0, symName: _hb_font_get_glyph_shape, symObjAddr: 0x31E0, symBinAddr: 0x46054, symSize: 0x2C }
  - { offset: 0x237BBB, size: 0x8, addend: 0x0, symName: _hb_font_draw_glyph, symObjAddr: 0x320C, symBinAddr: 0x46080, symSize: 0x2C }
  - { offset: 0x237C4A, size: 0x8, addend: 0x0, symName: _hb_font_paint_glyph, symObjAddr: 0x3238, symBinAddr: 0x460AC, symSize: 0x34 }
  - { offset: 0x237DA0, size: 0x8, addend: 0x0, symName: _hb_font_get_extents_for_direction, symObjAddr: 0x326C, symBinAddr: 0x460E0, symSize: 0xF4 }
  - { offset: 0x237F43, size: 0x8, addend: 0x0, symName: _hb_font_get_glyph_advance_for_direction, symObjAddr: 0x3360, symBinAddr: 0x461D4, symSize: 0xB4 }
  - { offset: 0x2380D5, size: 0x8, addend: 0x0, symName: _hb_font_get_glyph_advances_for_direction, symObjAddr: 0x3414, symBinAddr: 0x46288, symSize: 0x3C }
  - { offset: 0x23815B, size: 0x8, addend: 0x0, symName: _hb_font_get_glyph_advances_for_direction, symObjAddr: 0x3414, symBinAddr: 0x46288, symSize: 0x3C }
  - { offset: 0x2382A9, size: 0x8, addend: 0x0, symName: _hb_font_get_glyph_origin_for_direction, symObjAddr: 0x3450, symBinAddr: 0x462C4, symSize: 0x1C }
  - { offset: 0x238313, size: 0x8, addend: 0x0, symName: _hb_font_get_glyph_origin_for_direction, symObjAddr: 0x3450, symBinAddr: 0x462C4, symSize: 0x1C }
  - { offset: 0x23879F, size: 0x8, addend: 0x0, symName: _hb_font_add_glyph_origin_for_direction, symObjAddr: 0x346C, symBinAddr: 0x462E0, symSize: 0x68 }
  - { offset: 0x2388E4, size: 0x8, addend: 0x0, symName: _hb_font_subtract_glyph_origin_for_direction, symObjAddr: 0x34D4, symBinAddr: 0x46348, symSize: 0x68 }
  - { offset: 0x238A1C, size: 0x8, addend: 0x0, symName: _hb_font_get_glyph_kerning_for_direction, symObjAddr: 0x353C, symBinAddr: 0x463B0, symSize: 0xC0 }
  - { offset: 0x238BC3, size: 0x8, addend: 0x0, symName: _hb_font_get_glyph_extents_for_origin, symObjAddr: 0x35FC, symBinAddr: 0x46470, symSize: 0xD4 }
  - { offset: 0x238DF1, size: 0x8, addend: 0x0, symName: _hb_font_get_glyph_contour_point_for_origin, symObjAddr: 0x36D0, symBinAddr: 0x46544, symSize: 0xD4 }
  - { offset: 0x238FEA, size: 0x8, addend: 0x0, symName: _hb_font_glyph_to_string, symObjAddr: 0x37A4, symBinAddr: 0x46618, symSize: 0xB4 }
  - { offset: 0x23912D, size: 0x8, addend: 0x0, symName: _hb_font_glyph_from_string, symObjAddr: 0x3858, symBinAddr: 0x466CC, symSize: 0x4 }
  - { offset: 0x239187, size: 0x8, addend: 0x0, symName: _hb_font_glyph_from_string, symObjAddr: 0x3858, symBinAddr: 0x466CC, symSize: 0x4 }
  - { offset: 0x2391AF, size: 0x8, addend: 0x0, symName: __ZN9hb_font_t17glyph_from_stringEPKciPj, symObjAddr: 0x385C, symBinAddr: 0x466D0, symSize: 0x1EC }
  - { offset: 0x2395AC, size: 0x8, addend: 0x0, symName: _hb_font_create, symObjAddr: 0x3A48, symBinAddr: 0x468BC, symSize: 0x78 }
  - { offset: 0x2396AB, size: 0x8, addend: 0x0, symName: __ZL15_hb_font_createP9hb_face_t, symObjAddr: 0x3AC0, symBinAddr: 0x46934, symSize: 0xE4 }
  - { offset: 0x23999B, size: 0x8, addend: 0x0, symName: _hb_font_set_variations, symObjAddr: 0x44E0, symBinAddr: 0x47354, symSize: 0x2A0 }
  - { offset: 0x23A185, size: 0x8, addend: 0x0, symName: _hb_font_set_var_named_instance, symObjAddr: 0x3BA4, symBinAddr: 0x46A18, symSize: 0x34 }
  - { offset: 0x23A1AF, size: 0x8, addend: 0x0, symName: _hb_font_set_var_named_instance, symObjAddr: 0x3BA4, symBinAddr: 0x46A18, symSize: 0x34 }
  - { offset: 0x23A1CD, size: 0x8, addend: 0x0, symName: _hb_font_set_var_named_instance, symObjAddr: 0x3BA4, symBinAddr: 0x46A18, symSize: 0x34 }
  - { offset: 0x23A1ED, size: 0x8, addend: 0x0, symName: _hb_font_set_var_named_instance, symObjAddr: 0x3BA4, symBinAddr: 0x46A18, symSize: 0x34 }
  - { offset: 0x23A2E6, size: 0x8, addend: 0x0, symName: _hb_font_create_sub_font, symObjAddr: 0x3BD8, symBinAddr: 0x46A4C, symSize: 0x120 }
  - { offset: 0x23A668, size: 0x8, addend: 0x0, symName: __ZN9hb_font_t13mults_changedEv, symObjAddr: 0x3D20, symBinAddr: 0x46B94, symSize: 0x10C }
  - { offset: 0x23A8AC, size: 0x8, addend: 0x0, symName: _hb_font_get_empty, symObjAddr: 0x3CF8, symBinAddr: 0x46B6C, symSize: 0xC }
  - { offset: 0x23A8C7, size: 0x8, addend: 0x0, symName: _hb_font_reference, symObjAddr: 0x3D04, symBinAddr: 0x46B78, symSize: 0x1C }
  - { offset: 0x23A8E7, size: 0x8, addend: 0x0, symName: _hb_font_reference, symObjAddr: 0x3D04, symBinAddr: 0x46B78, symSize: 0x1C }
  - { offset: 0x23A905, size: 0x8, addend: 0x0, symName: _hb_font_reference, symObjAddr: 0x3D04, symBinAddr: 0x46B78, symSize: 0x1C }
  - { offset: 0x23AC13, size: 0x8, addend: 0x0, symName: _hb_font_destroy, symObjAddr: 0x3E2C, symBinAddr: 0x46CA0, symSize: 0xE0 }
  - { offset: 0x23B158, size: 0x8, addend: 0x0, symName: _hb_font_set_user_data, symObjAddr: 0x3F0C, symBinAddr: 0x46D80, symSize: 0x104 }
  - { offset: 0x23B500, size: 0x8, addend: 0x0, symName: _hb_font_get_user_data, symObjAddr: 0x4010, symBinAddr: 0x46E84, symSize: 0xCC }
  - { offset: 0x23B788, size: 0x8, addend: 0x0, symName: _hb_font_make_immutable, symObjAddr: 0x40DC, symBinAddr: 0x46F50, symSize: 0x34 }
  - { offset: 0x23B878, size: 0x8, addend: 0x0, symName: _hb_font_is_immutable, symObjAddr: 0x4110, symBinAddr: 0x46F84, symSize: 0x10 }
  - { offset: 0x23B8A8, size: 0x8, addend: 0x0, symName: _hb_font_is_immutable, symObjAddr: 0x4110, symBinAddr: 0x46F84, symSize: 0x10 }
  - { offset: 0x23B8C6, size: 0x8, addend: 0x0, symName: _hb_font_is_immutable, symObjAddr: 0x4110, symBinAddr: 0x46F84, symSize: 0x10 }
  - { offset: 0x23B8E6, size: 0x8, addend: 0x0, symName: _hb_font_is_immutable, symObjAddr: 0x4110, symBinAddr: 0x46F84, symSize: 0x10 }
  - { offset: 0x23B905, size: 0x8, addend: 0x0, symName: _hb_font_get_serial, symObjAddr: 0x4120, symBinAddr: 0x46F94, symSize: 0x8 }
  - { offset: 0x23B932, size: 0x8, addend: 0x0, symName: _hb_font_changed, symObjAddr: 0x4128, symBinAddr: 0x46F9C, symSize: 0x1C }
  - { offset: 0x23B95C, size: 0x8, addend: 0x0, symName: _hb_font_changed, symObjAddr: 0x4128, symBinAddr: 0x46F9C, symSize: 0x1C }
  - { offset: 0x23B97A, size: 0x8, addend: 0x0, symName: _hb_font_changed, symObjAddr: 0x4128, symBinAddr: 0x46F9C, symSize: 0x1C }
  - { offset: 0x23B99A, size: 0x8, addend: 0x0, symName: _hb_font_changed, symObjAddr: 0x4128, symBinAddr: 0x46F9C, symSize: 0x1C }
  - { offset: 0x23B9C6, size: 0x8, addend: 0x0, symName: _hb_font_set_parent, symObjAddr: 0x4144, symBinAddr: 0x46FB8, symSize: 0x54 }
  - { offset: 0x23BA14, size: 0x8, addend: 0x0, symName: _hb_font_set_parent, symObjAddr: 0x4144, symBinAddr: 0x46FB8, symSize: 0x54 }
  - { offset: 0x23BA32, size: 0x8, addend: 0x0, symName: _hb_font_set_parent, symObjAddr: 0x4144, symBinAddr: 0x46FB8, symSize: 0x54 }
  - { offset: 0x23BA52, size: 0x8, addend: 0x0, symName: _hb_font_set_parent, symObjAddr: 0x4144, symBinAddr: 0x46FB8, symSize: 0x54 }
  - { offset: 0x23BBEB, size: 0x8, addend: 0x0, symName: _hb_font_get_parent, symObjAddr: 0x4198, symBinAddr: 0x4700C, symSize: 0x8 }
  - { offset: 0x23BC18, size: 0x8, addend: 0x0, symName: _hb_font_set_face, symObjAddr: 0x41A0, symBinAddr: 0x47014, symSize: 0x8C }
  - { offset: 0x23BD19, size: 0x8, addend: 0x0, symName: _hb_font_get_face, symObjAddr: 0x422C, symBinAddr: 0x470A0, symSize: 0x8 }
  - { offset: 0x23BD62, size: 0x8, addend: 0x0, symName: _hb_font_set_funcs, symObjAddr: 0x4234, symBinAddr: 0x470A8, symSize: 0xB0 }
  - { offset: 0x23BFAF, size: 0x8, addend: 0x0, symName: _hb_font_set_funcs_data, symObjAddr: 0x42E4, symBinAddr: 0x47158, symSize: 0x70 }
  - { offset: 0x23C071, size: 0x8, addend: 0x0, symName: _hb_font_set_scale, symObjAddr: 0x4354, symBinAddr: 0x471C8, symSize: 0x38 }
  - { offset: 0x23C0B9, size: 0x8, addend: 0x0, symName: _hb_font_set_scale, symObjAddr: 0x4354, symBinAddr: 0x471C8, symSize: 0x38 }
  - { offset: 0x23C0D7, size: 0x8, addend: 0x0, symName: _hb_font_set_scale, symObjAddr: 0x4354, symBinAddr: 0x471C8, symSize: 0x38 }
  - { offset: 0x23C0F7, size: 0x8, addend: 0x0, symName: _hb_font_set_scale, symObjAddr: 0x4354, symBinAddr: 0x471C8, symSize: 0x38 }
  - { offset: 0x23C123, size: 0x8, addend: 0x0, symName: _hb_font_get_scale, symObjAddr: 0x438C, symBinAddr: 0x47200, symSize: 0x1C }
  - { offset: 0x23C168, size: 0x8, addend: 0x0, symName: _hb_font_set_ppem, symObjAddr: 0x43A8, symBinAddr: 0x4721C, symSize: 0x34 }
  - { offset: 0x23C1B0, size: 0x8, addend: 0x0, symName: _hb_font_set_ppem, symObjAddr: 0x43A8, symBinAddr: 0x4721C, symSize: 0x34 }
  - { offset: 0x23C1CE, size: 0x8, addend: 0x0, symName: _hb_font_set_ppem, symObjAddr: 0x43A8, symBinAddr: 0x4721C, symSize: 0x34 }
  - { offset: 0x23C1EE, size: 0x8, addend: 0x0, symName: _hb_font_set_ppem, symObjAddr: 0x43A8, symBinAddr: 0x4721C, symSize: 0x34 }
  - { offset: 0x23C20D, size: 0x8, addend: 0x0, symName: _hb_font_get_ppem, symObjAddr: 0x43DC, symBinAddr: 0x47250, symSize: 0x1C }
  - { offset: 0x23C252, size: 0x8, addend: 0x0, symName: _hb_font_set_ptem, symObjAddr: 0x43F8, symBinAddr: 0x4726C, symSize: 0x2C }
  - { offset: 0x23C28C, size: 0x8, addend: 0x0, symName: _hb_font_set_ptem, symObjAddr: 0x43F8, symBinAddr: 0x4726C, symSize: 0x2C }
  - { offset: 0x23C2AA, size: 0x8, addend: 0x0, symName: _hb_font_set_ptem, symObjAddr: 0x43F8, symBinAddr: 0x4726C, symSize: 0x2C }
  - { offset: 0x23C2CA, size: 0x8, addend: 0x0, symName: _hb_font_set_ptem, symObjAddr: 0x43F8, symBinAddr: 0x4726C, symSize: 0x2C }
  - { offset: 0x23C2E9, size: 0x8, addend: 0x0, symName: _hb_font_get_ptem, symObjAddr: 0x4424, symBinAddr: 0x47298, symSize: 0x8 }
  - { offset: 0x23C314, size: 0x8, addend: 0x0, symName: _hb_font_set_synthetic_bold, symObjAddr: 0x442C, symBinAddr: 0x472A0, symSize: 0x58 }
  - { offset: 0x23C36D, size: 0x8, addend: 0x0, symName: _hb_font_set_synthetic_bold, symObjAddr: 0x442C, symBinAddr: 0x472A0, symSize: 0x58 }
  - { offset: 0x23C38B, size: 0x8, addend: 0x0, symName: _hb_font_set_synthetic_bold, symObjAddr: 0x442C, symBinAddr: 0x472A0, symSize: 0x58 }
  - { offset: 0x23C3AB, size: 0x8, addend: 0x0, symName: _hb_font_set_synthetic_bold, symObjAddr: 0x442C, symBinAddr: 0x472A0, symSize: 0x58 }
  - { offset: 0x23C3D7, size: 0x8, addend: 0x0, symName: _hb_font_get_synthetic_bold, symObjAddr: 0x4484, symBinAddr: 0x472F8, symSize: 0x28 }
  - { offset: 0x23C42B, size: 0x8, addend: 0x0, symName: _hb_font_set_synthetic_slant, symObjAddr: 0x44AC, symBinAddr: 0x47320, symSize: 0x2C }
  - { offset: 0x23C465, size: 0x8, addend: 0x0, symName: _hb_font_set_synthetic_slant, symObjAddr: 0x44AC, symBinAddr: 0x47320, symSize: 0x2C }
  - { offset: 0x23C483, size: 0x8, addend: 0x0, symName: _hb_font_set_synthetic_slant, symObjAddr: 0x44AC, symBinAddr: 0x47320, symSize: 0x2C }
  - { offset: 0x23C4A3, size: 0x8, addend: 0x0, symName: _hb_font_set_synthetic_slant, symObjAddr: 0x44AC, symBinAddr: 0x47320, symSize: 0x2C }
  - { offset: 0x23C4CF, size: 0x8, addend: 0x0, symName: _hb_font_get_synthetic_slant, symObjAddr: 0x44D8, symBinAddr: 0x4734C, symSize: 0x8 }
  - { offset: 0x23C7D5, size: 0x8, addend: 0x0, symName: __ZNK17hb_data_wrapper_tI9hb_face_tLj18EE11call_createI9hb_blob_t22hb_table_lazy_loader_tIN2OT4fvarELj18ELb1EEEEPT_v, symObjAddr: 0x5CDC, symBinAddr: 0x48434, symSize: 0x94 }
  - { offset: 0x23CA01, size: 0x8, addend: 0x0, symName: _hb_font_set_var_coords_normalized, symObjAddr: 0x4780, symBinAddr: 0x475F4, symSize: 0x3A4 }
  - { offset: 0x23D7DD, size: 0x8, addend: 0x0, symName: __ZNK17hb_data_wrapper_tI9hb_face_tLj19EE11call_createI9hb_blob_t22hb_table_lazy_loader_tIN2OT4avarELj19ELb1EEEEPT_v, symObjAddr: 0x60E4, symBinAddr: 0x4882C, symSize: 0x94 }
  - { offset: 0x23D9EF, size: 0x8, addend: 0x0, symName: __ZNK2OT11SegmentMaps3mapEijj, symObjAddr: 0x5734, symBinAddr: 0x48248, symSize: 0x1EC }
  - { offset: 0x23DA75, size: 0x8, addend: 0x0, symName: __ZNK2OT11SegmentMaps3mapEijj, symObjAddr: 0x5734, symBinAddr: 0x48248, symSize: 0x1EC }
  - { offset: 0x23DA92, size: 0x8, addend: 0x0, symName: __ZNK2OT11SegmentMaps3mapEijj, symObjAddr: 0x5734, symBinAddr: 0x48248, symSize: 0x1EC }
  - { offset: 0x23DCF5, size: 0x8, addend: 0x0, symName: __ZNK2OT4fvar22unnormalize_axis_valueEji, symObjAddr: 0x4ED0, symBinAddr: 0x47D44, symSize: 0xA8 }
  - { offset: 0x23DD3B, size: 0x8, addend: 0x0, symName: __ZNK2OT4fvar22unnormalize_axis_valueEji, symObjAddr: 0x4ED0, symBinAddr: 0x47D44, symSize: 0xA8 }
  - { offset: 0x23DD59, size: 0x8, addend: 0x0, symName: __ZNK2OT4fvar22unnormalize_axis_valueEji, symObjAddr: 0x4ED0, symBinAddr: 0x47D44, symSize: 0xA8 }
  - { offset: 0x23DD79, size: 0x8, addend: 0x0, symName: __ZNK2OT4fvar22unnormalize_axis_valueEji, symObjAddr: 0x4ED0, symBinAddr: 0x47D44, symSize: 0xA8 }
  - { offset: 0x23DDA1, size: 0x8, addend: 0x0, symName: __ZNK2OT4fvar22unnormalize_axis_valueEji, symObjAddr: 0x4ED0, symBinAddr: 0x47D44, symSize: 0xA8 }
  - { offset: 0x23DDC1, size: 0x8, addend: 0x0, symName: __ZNK2OT4fvar22unnormalize_axis_valueEji, symObjAddr: 0x4ED0, symBinAddr: 0x47D44, symSize: 0xA8 }
  - { offset: 0x23DDE1, size: 0x8, addend: 0x0, symName: __ZNK2OT4fvar22unnormalize_axis_valueEji, symObjAddr: 0x4ED0, symBinAddr: 0x47D44, symSize: 0xA8 }
  - { offset: 0x23DFBD, size: 0x8, addend: 0x0, symName: _hb_font_set_variation, symObjAddr: 0x4B24, symBinAddr: 0x47998, symSize: 0x2AC }
  - { offset: 0x23E679, size: 0x8, addend: 0x0, symName: _hb_font_set_var_coords_design, symObjAddr: 0x4DD0, symBinAddr: 0x47C44, symSize: 0xF8 }
  - { offset: 0x23E850, size: 0x8, addend: 0x0, symName: _hb_font_get_var_named_instance, symObjAddr: 0x4EC8, symBinAddr: 0x47D3C, symSize: 0x8 }
  - { offset: 0x23E946, size: 0x8, addend: 0x0, symName: _hb_font_get_var_coords_normalized, symObjAddr: 0x4F78, symBinAddr: 0x47DEC, symSize: 0x14 }
  - { offset: 0x23E982, size: 0x8, addend: 0x0, symName: _hb_font_get_var_coords_design, symObjAddr: 0x4F8C, symBinAddr: 0x47E00, symSize: 0x14 }
  - { offset: 0x23EAD6, size: 0x8, addend: 0x0, symName: _hb_font_funcs_set_glyph_func, symObjAddr: 0x4FA0, symBinAddr: 0x47E14, symSize: 0x238 }
  - { offset: 0x23EEAA, size: 0x8, addend: 0x0, symName: __ZL18trampoline_destroyPv, symObjAddr: 0x51F0, symBinAddr: 0x48064, symSize: 0x4C }
  - { offset: 0x23EEEC, size: 0x8, addend: 0x0, symName: __ZL36hb_font_get_nominal_glyph_trampolineP9hb_font_tPvjPjS1_, symObjAddr: 0x51D8, symBinAddr: 0x4804C, symSize: 0x18 }
  - { offset: 0x23EF9A, size: 0x8, addend: 0x0, symName: __ZL38hb_font_get_variation_glyph_trampolineP9hb_font_tPvjjPjS1_, symObjAddr: 0x523C, symBinAddr: 0x480B0, symSize: 0xC }
  - { offset: 0x23F057, size: 0x8, addend: 0x0, symName: _hb_font_funcs_set_glyph_shape_func, symObjAddr: 0x5248, symBinAddr: 0x480BC, symSize: 0x4 }
  - { offset: 0x23F0AD, size: 0x8, addend: 0x0, symName: _hb_font_funcs_set_glyph_shape_func, symObjAddr: 0x5248, symBinAddr: 0x480BC, symSize: 0x4 }
  - { offset: 0x23F120, size: 0x8, addend: 0x0, symName: __ZL23hb_draw_move_to_defaultP15hb_draw_funcs_tPvP15hb_draw_state_tffS1_, symObjAddr: 0x524C, symBinAddr: 0x480C0, symSize: 0x48 }
  - { offset: 0x23F272, size: 0x8, addend: 0x0, symName: __ZL23hb_draw_line_to_defaultP15hb_draw_funcs_tPvP15hb_draw_state_tffS1_, symObjAddr: 0x5294, symBinAddr: 0x48108, symSize: 0x5C }
  - { offset: 0x23F3E4, size: 0x8, addend: 0x0, symName: __ZL28hb_draw_quadratic_to_defaultP15hb_draw_funcs_tPvP15hb_draw_state_tffffS1_, symObjAddr: 0x52F0, symBinAddr: 0x48164, symSize: 0x5C }
  - { offset: 0x23F598, size: 0x8, addend: 0x0, symName: __ZL24hb_draw_cubic_to_defaultP15hb_draw_funcs_tPvP15hb_draw_state_tffffffS1_, symObjAddr: 0x534C, symBinAddr: 0x481C0, symSize: 0x6C }
  - { offset: 0x23F73A, size: 0x8, addend: 0x0, symName: __ZL26hb_draw_close_path_defaultP15hb_draw_funcs_tPvP15hb_draw_state_tS1_, symObjAddr: 0x53B8, symBinAddr: 0x4822C, symSize: 0x1C }
  - { offset: 0x23FF00, size: 0x8, addend: 0x0, symName: __ZN21hb_sanitize_context_t13sanitize_blobIN2OT4fvarEEEP9hb_blob_tS4_, symObjAddr: 0x5D70, symBinAddr: 0x484C8, symSize: 0x21C }
  - { offset: 0x2401E2, size: 0x8, addend: 0x0, symName: __ZNK2OT4fvar8sanitizeEP21hb_sanitize_context_t, symObjAddr: 0x5F8C, symBinAddr: 0x486E4, symSize: 0x148 }
  - { offset: 0x240228, size: 0x8, addend: 0x0, symName: __ZNK2OT4fvar8sanitizeEP21hb_sanitize_context_t, symObjAddr: 0x5F8C, symBinAddr: 0x486E4, symSize: 0x148 }
  - { offset: 0x24024E, size: 0x8, addend: 0x0, symName: __ZNK2OT4fvar8sanitizeEP21hb_sanitize_context_t, symObjAddr: 0x5F8C, symBinAddr: 0x486E4, symSize: 0x148 }
  - { offset: 0x240274, size: 0x8, addend: 0x0, symName: __ZNK2OT4fvar8sanitizeEP21hb_sanitize_context_t, symObjAddr: 0x5F8C, symBinAddr: 0x486E4, symSize: 0x148 }
  - { offset: 0x240A62, size: 0x8, addend: 0x0, symName: __ZN21hb_sanitize_context_t13sanitize_blobIN2OT4avarEEEP9hb_blob_tS4_, symObjAddr: 0x6178, symBinAddr: 0x488C0, symSize: 0x21C }
  - { offset: 0x240C91, size: 0x8, addend: 0x0, symName: __ZNK2OT4avar8sanitizeEP21hb_sanitize_context_t, symObjAddr: 0x6394, symBinAddr: 0x48ADC, symSize: 0xF0 }
  - { offset: 0x240D0A, size: 0x8, addend: 0x0, symName: __ZNK2OT4avar8sanitizeEP21hb_sanitize_context_t, symObjAddr: 0x6394, symBinAddr: 0x48ADC, symSize: 0xF0 }
  - { offset: 0x240D30, size: 0x8, addend: 0x0, symName: __ZNK2OT4avar8sanitizeEP21hb_sanitize_context_t, symObjAddr: 0x6394, symBinAddr: 0x48ADC, symSize: 0xF0 }
  - { offset: 0x240D56, size: 0x8, addend: 0x0, symName: __ZNK2OT4avar8sanitizeEP21hb_sanitize_context_t, symObjAddr: 0x6394, symBinAddr: 0x48ADC, symSize: 0xF0 }
  - { offset: 0x24121E, size: 0x8, addend: 0x0, symName: __ZNK2OT10avarV2Tail8sanitizeEP21hb_sanitize_context_tPKv, symObjAddr: 0x6484, symBinAddr: 0x48BCC, symSize: 0xEC }
  - { offset: 0x244F36, size: 0x8, addend: 0x0, symName: _HBCreateFontFuncs, symObjAddr: 0x0, symBinAddr: 0x48CB8, symSize: 0x158 }
  - { offset: 0x244F96, size: 0x8, addend: 0x0, symName: _HBCreateFontFuncs, symObjAddr: 0x0, symBinAddr: 0x48CB8, symSize: 0x158 }
  - { offset: 0x24535D, size: 0x8, addend: 0x0, symName: __ZL25hb_jdk_get_glyph_h_originP9hb_font_tPvjPiS2_S1_, symObjAddr: 0x158, symBinAddr: 0x48E10, symSize: 0x8 }
  - { offset: 0x2453C4, size: 0x8, addend: 0x0, symName: __ZL25hb_jdk_get_glyph_v_originP9hb_font_tPvjPiS2_S1_, symObjAddr: 0x160, symBinAddr: 0x48E18, symSize: 0x8 }
  - { offset: 0x24542B, size: 0x8, addend: 0x0, symName: __ZL26hb_jdk_get_glyph_h_kerningP9hb_font_tPvjjS1_, symObjAddr: 0x168, symBinAddr: 0x48E20, symSize: 0x8 }
  - { offset: 0x245486, size: 0x8, addend: 0x0, symName: __ZL26hb_jdk_get_glyph_v_kerningP9hb_font_tPvjjS1_, symObjAddr: 0x170, symBinAddr: 0x48E28, symSize: 0x8 }
  - { offset: 0x2454E1, size: 0x8, addend: 0x0, symName: __ZL24hb_jdk_get_glyph_extentsP9hb_font_tPvjP18hb_glyph_extents_tS1_, symObjAddr: 0x178, symBinAddr: 0x48E30, symSize: 0x8 }
  - { offset: 0x24553C, size: 0x8, addend: 0x0, symName: __ZL21hb_jdk_get_glyph_nameP9hb_font_tPvjPcjS1_, symObjAddr: 0x180, symBinAddr: 0x48E38, symSize: 0x8 }
  - { offset: 0x2455A3, size: 0x8, addend: 0x0, symName: __ZL26hb_jdk_get_glyph_from_nameP9hb_font_tPvPKciPjS1_, symObjAddr: 0x188, symBinAddr: 0x48E40, symSize: 0x8 }
  - { offset: 0x24560A, size: 0x8, addend: 0x0, symName: _HBCreateFace, symObjAddr: 0x190, symBinAddr: 0x48E48, symSize: 0x14 }
  - { offset: 0x245691, size: 0x8, addend: 0x0, symName: __ZL15reference_tableP9hb_face_tjPv, symObjAddr: 0x1A4, symBinAddr: 0x48E5C, symSize: 0x5C }
  - { offset: 0x245757, size: 0x8, addend: 0x0, symName: _HBDisposeFace, symObjAddr: 0x200, symBinAddr: 0x48EB8, symSize: 0x4 }
  - { offset: 0x24577E, size: 0x8, addend: 0x0, symName: _HBDisposeFace, symObjAddr: 0x200, symBinAddr: 0x48EB8, symSize: 0x4 }
  - { offset: 0x24579F, size: 0x8, addend: 0x0, symName: _jdk_font_create_hbp, symObjAddr: 0x204, symBinAddr: 0x48EBC, symSize: 0x60 }
  - { offset: 0x2458A6, size: 0x8, addend: 0x0, symName: __ZL11_do_nothingv, symObjAddr: 0x264, symBinAddr: 0x48F1C, symSize: 0x4 }
  - { offset: 0x2458EA, size: 0x8, addend: 0x0, symName: _Java_sun_font_SunLayoutEngine_createFace, symObjAddr: 0x0, symBinAddr: 0x48F20, symSize: 0xB0 }
  - { offset: 0x24A548, size: 0x8, addend: 0x0, symName: _Java_sun_font_SunLayoutEngine_createFace, symObjAddr: 0x0, symBinAddr: 0x48F20, symSize: 0xB0 }
  - { offset: 0x24A787, size: 0x8, addend: 0x0, symName: __ZL15reference_tableP9hb_face_tjPv, symObjAddr: 0xB0, symBinAddr: 0x48FD0, symSize: 0xE4 }
  - { offset: 0x24A961, size: 0x8, addend: 0x0, symName: __ZN7JNIEnv_16CallObjectMethodEP8_jobjectP10_jmethodIDz, symObjAddr: 0x394, symBinAddr: 0x492B4, symSize: 0x30 }
  - { offset: 0x24AA54, size: 0x8, addend: 0x0, symName: __ZL15cleanupFontInfoPv, symObjAddr: 0x194, symBinAddr: 0x490B4, symSize: 0x58 }
  - { offset: 0x24AB2E, size: 0x8, addend: 0x0, symName: _Java_sun_font_SunLayoutEngine_disposeFace, symObjAddr: 0x1EC, symBinAddr: 0x4910C, symSize: 0x8 }
  - { offset: 0x24AC26, size: 0x8, addend: 0x0, symName: _hb_jdk_font_create, symObjAddr: 0x1F4, symBinAddr: 0x49114, symSize: 0x1A0 }
  - { offset: 0x24B06F, size: 0x8, addend: 0x0, symName: __ZL11_do_nothingv, symObjAddr: 0x3C4, symBinAddr: 0x492E4, symSize: 0x4 }
  - { offset: 0x24B0B6, size: 0x8, addend: 0x0, symName: __ZL24hb_jdk_get_nominal_glyphP9hb_font_tPvjPjS1_, symObjAddr: 0x3C8, symBinAddr: 0x492E8, symSize: 0x9C }
  - { offset: 0x24B1C1, size: 0x8, addend: 0x0, symName: __ZN7JNIEnv_13CallIntMethodEP8_jobjectP10_jmethodIDz, symObjAddr: 0x75C, symBinAddr: 0x4967C, symSize: 0x30 }
  - { offset: 0x24B254, size: 0x8, addend: 0x0, symName: __ZL26hb_jdk_get_variation_glyphP9hb_font_tPvjjPjS1_, symObjAddr: 0x464, symBinAddr: 0x49384, symSize: 0x9C }
  - { offset: 0x24B3C2, size: 0x8, addend: 0x0, symName: __ZL26hb_jdk_get_glyph_h_advanceP9hb_font_tPvjS1_, symObjAddr: 0x500, symBinAddr: 0x49420, symSize: 0xAC }
  - { offset: 0x24B501, size: 0x8, addend: 0x0, symName: __ZL26hb_jdk_get_glyph_v_advanceP9hb_font_tPvjS1_, symObjAddr: 0x5AC, symBinAddr: 0x494CC, symSize: 0xA4 }
  - { offset: 0x24B642, size: 0x8, addend: 0x0, symName: __ZL25hb_jdk_get_glyph_h_originP9hb_font_tPvjPiS2_S1_, symObjAddr: 0x650, symBinAddr: 0x49570, symSize: 0x8 }
  - { offset: 0x24B6A9, size: 0x8, addend: 0x0, symName: __ZL25hb_jdk_get_glyph_v_originP9hb_font_tPvjPiS2_S1_, symObjAddr: 0x658, symBinAddr: 0x49578, symSize: 0x8 }
  - { offset: 0x24B710, size: 0x8, addend: 0x0, symName: __ZL26hb_jdk_get_glyph_h_kerningP9hb_font_tPvjjS1_, symObjAddr: 0x660, symBinAddr: 0x49580, symSize: 0x8 }
  - { offset: 0x24B76B, size: 0x8, addend: 0x0, symName: __ZL26hb_jdk_get_glyph_v_kerningP9hb_font_tPvjjS1_, symObjAddr: 0x668, symBinAddr: 0x49588, symSize: 0x8 }
  - { offset: 0x24B7C6, size: 0x8, addend: 0x0, symName: __ZL24hb_jdk_get_glyph_extentsP9hb_font_tPvjP18hb_glyph_extents_tS1_, symObjAddr: 0x670, symBinAddr: 0x49590, symSize: 0x8 }
  - { offset: 0x24B821, size: 0x8, addend: 0x0, symName: __ZL30hb_jdk_get_glyph_contour_pointP9hb_font_tPvjjPiS2_S1_, symObjAddr: 0x678, symBinAddr: 0x49598, symSize: 0xD4 }
  - { offset: 0x24B9C6, size: 0x8, addend: 0x0, symName: __ZL21hb_jdk_get_glyph_nameP9hb_font_tPvjPcjS1_, symObjAddr: 0x74C, symBinAddr: 0x4966C, symSize: 0x8 }
  - { offset: 0x24BA2D, size: 0x8, addend: 0x0, symName: __ZL26hb_jdk_get_glyph_from_nameP9hb_font_tPvPKciPjS1_, symObjAddr: 0x754, symBinAddr: 0x49674, symSize: 0x8 }
  - { offset: 0x24BE41, size: 0x8, addend: 0x0, symName: __ZL11hb_identity, symObjAddr: 0x1DCC, symBinAddr: 0xE4ABC, symSize: 0x0 }
  - { offset: 0x24BE72, size: 0x8, addend: 0x0, symName: __ZL12hb_ridentity, symObjAddr: 0x1DCD, symBinAddr: 0xE4ABD, symSize: 0x0 }
  - { offset: 0x24EBE1, size: 0x8, addend: 0x0, symName: _hb_map_create, symObjAddr: 0x0, symBinAddr: 0x496AC, symSize: 0x64 }
  - { offset: 0x24EF98, size: 0x8, addend: 0x0, symName: _hb_map_get_empty, symObjAddr: 0x64, symBinAddr: 0x49710, symSize: 0xC }
  - { offset: 0x24F022, size: 0x8, addend: 0x0, symName: _hb_map_reference, symObjAddr: 0x70, symBinAddr: 0x4971C, symSize: 0x1C }
  - { offset: 0x24F04E, size: 0x8, addend: 0x0, symName: _hb_map_reference, symObjAddr: 0x70, symBinAddr: 0x4971C, symSize: 0x1C }
  - { offset: 0x24F06B, size: 0x8, addend: 0x0, symName: _hb_map_reference, symObjAddr: 0x70, symBinAddr: 0x4971C, symSize: 0x1C }
  - { offset: 0x24F326, size: 0x8, addend: 0x0, symName: _hb_map_destroy, symObjAddr: 0x8C, symBinAddr: 0x49738, symSize: 0xC8 }
  - { offset: 0x24FABA, size: 0x8, addend: 0x0, symName: _hb_map_set_user_data, symObjAddr: 0x154, symBinAddr: 0x49800, symSize: 0xE0 }
  - { offset: 0x250174, size: 0x8, addend: 0x0, symName: _hb_map_get_user_data, symObjAddr: 0x234, symBinAddr: 0x498E0, symSize: 0xCC }
  - { offset: 0x2503F9, size: 0x8, addend: 0x0, symName: _hb_map_allocation_successful, symObjAddr: 0x300, symBinAddr: 0x499AC, symSize: 0x8 }
  - { offset: 0x250478, size: 0x8, addend: 0x0, symName: _hb_map_copy, symObjAddr: 0x308, symBinAddr: 0x499B4, symSize: 0x84 }
  - { offset: 0x2508A1, size: 0x8, addend: 0x0, symName: __ZN12hb_hashmap_tIjjLb1EEaSERKS0_, symObjAddr: 0xD04, symBinAddr: 0x4A3B0, symSize: 0x114 }
  - { offset: 0x250D19, size: 0x8, addend: 0x0, symName: _hb_map_set, symObjAddr: 0x38C, symBinAddr: 0x49A38, symSize: 0x3C }
  - { offset: 0x250FD7, size: 0x8, addend: 0x0, symName: _hb_map_get, symObjAddr: 0x3C8, symBinAddr: 0x49A74, symSize: 0xC0 }
  - { offset: 0x251013, size: 0x8, addend: 0x0, symName: _hb_map_get, symObjAddr: 0x3C8, symBinAddr: 0x49A74, symSize: 0xC0 }
  - { offset: 0x251136, size: 0x8, addend: 0x0, symName: _hb_map_del, symObjAddr: 0x488, symBinAddr: 0x49B34, symSize: 0x9C }
  - { offset: 0x25116C, size: 0x8, addend: 0x0, symName: _hb_map_del, symObjAddr: 0x488, symBinAddr: 0x49B34, symSize: 0x9C }
  - { offset: 0x25128E, size: 0x8, addend: 0x0, symName: _hb_map_has, symObjAddr: 0x524, symBinAddr: 0x49BD0, symSize: 0x88 }
  - { offset: 0x251414, size: 0x8, addend: 0x0, symName: _hb_map_clear, symObjAddr: 0x5AC, symBinAddr: 0x49C58, symSize: 0x64 }
  - { offset: 0x2514D7, size: 0x8, addend: 0x0, symName: _hb_map_is_empty, symObjAddr: 0x610, symBinAddr: 0x49CBC, symSize: 0x10 }
  - { offset: 0x251507, size: 0x8, addend: 0x0, symName: _hb_map_is_empty, symObjAddr: 0x610, symBinAddr: 0x49CBC, symSize: 0x10 }
  - { offset: 0x251539, size: 0x8, addend: 0x0, symName: _hb_map_get_population, symObjAddr: 0x620, symBinAddr: 0x49CCC, symSize: 0x8 }
  - { offset: 0x251569, size: 0x8, addend: 0x0, symName: _hb_map_get_population, symObjAddr: 0x620, symBinAddr: 0x49CCC, symSize: 0x8 }
  - { offset: 0x251585, size: 0x8, addend: 0x0, symName: _hb_map_is_equal, symObjAddr: 0x628, symBinAddr: 0x49CD4, symSize: 0x14 }
  - { offset: 0x2515DF, size: 0x8, addend: 0x0, symName: __ZNK12hb_hashmap_tIjjLb1EE8is_equalERKS0_, symObjAddr: 0x63C, symBinAddr: 0x49CE8, symSize: 0x258 }
  - { offset: 0x252320, size: 0x8, addend: 0x0, symName: _hb_map_hash, symObjAddr: 0x894, symBinAddr: 0x49F40, symSize: 0x78 }
  - { offset: 0x252775, size: 0x8, addend: 0x0, symName: _hb_map_update, symObjAddr: 0x90C, symBinAddr: 0x49FB8, symSize: 0xC0 }
  - { offset: 0x252AA0, size: 0x8, addend: 0x0, symName: __ZN12hb_hashmap_tIjjLb1EE13set_with_hashIRKjS3_EEbOT_jOT0_b, symObjAddr: 0x1118, symBinAddr: 0x4A4D0, symSize: 0x19C }
  - { offset: 0x252C73, size: 0x8, addend: 0x0, symName: _hb_map_next, symObjAddr: 0x9CC, symBinAddr: 0x4A078, symSize: 0x64 }
  - { offset: 0x252D0A, size: 0x8, addend: 0x0, symName: _hb_map_next, symObjAddr: 0x9CC, symBinAddr: 0x4A078, symSize: 0x64 }
  - { offset: 0x252EC0, size: 0x8, addend: 0x0, symName: _hb_map_keys, symObjAddr: 0xA30, symBinAddr: 0x4A0DC, symSize: 0xB0 }
  - { offset: 0x2530A7, size: 0x8, addend: 0x0, symName: '__Z7hb_copyI13hb_map_iter_tIS0_I16hb_filter_iter_tI10hb_array_tIN12hb_hashmap_tIjjLb1EE6item_tEEMS5_KFbvERK3$_5LPv0EEMS5_FRjvEL24hb_function_sortedness_t0ELSC_0EERK3$_6LSH_0ELSC_0EER8hb_set_tEvOT_OT0_', symObjAddr: 0xAE0, symBinAddr: 0x4A18C, symSize: 0x174 }
  - { offset: 0x2538F9, size: 0x8, addend: 0x0, symName: _hb_map_values, symObjAddr: 0xC54, symBinAddr: 0x4A300, symSize: 0xB0 }
  - { offset: 0x253DA9, size: 0x8, addend: 0x0, symName: __ZNK12hb_hashmap_tIjjLb1EE6item_t7is_realEv, symObjAddr: 0xF70, symBinAddr: 0x4A4C4, symSize: 0xC }
  - { offset: 0x254334, size: 0x8, addend: 0x0, symName: __ZN12hb_hashmap_tIjjLb1EE6item_t7get_keyEv, symObjAddr: 0x181C, symBinAddr: 0x4A66C, symSize: 0x4 }
  - { offset: 0x254E35, size: 0x8, addend: 0x0, symName: __ZN12hb_hashmap_tIjjLb1EE6item_t9get_valueEv, symObjAddr: 0x1D30, symBinAddr: 0x4A670, symSize: 0x8 }
  - { offset: 0x256CB3, size: 0x8, addend: 0x0, symName: __Z12hb_parse_intPPKcS0_Pib, symObjAddr: 0x0, symBinAddr: 0x4A678, symSize: 0x128 }
  - { offset: 0x256CE5, size: 0x8, addend: 0x0, symName: __ZL25_double_parser_trans_keys, symObjAddr: 0x6ED, symBinAddr: 0xE4AC3, symSize: 0x0 }
  - { offset: 0x256D1D, size: 0x8, addend: 0x0, symName: __ZL23_double_parser_indicies, symObjAddr: 0x700, symBinAddr: 0xE4AD6, symSize: 0x0 }
  - { offset: 0x256D4E, size: 0x8, addend: 0x0, symName: __ZL28_double_parser_index_offsets, symObjAddr: 0x7BF, symBinAddr: 0xE4B95, symSize: 0x0 }
  - { offset: 0x256D73, size: 0x8, addend: 0x0, symName: __ZL24_double_parser_key_spans, symObjAddr: 0x7C8, symBinAddr: 0xE4B9E, symSize: 0x0 }
  - { offset: 0x256D98, size: 0x8, addend: 0x0, symName: __ZL26_double_parser_trans_targs, symObjAddr: 0x7D1, symBinAddr: 0xE4BA7, symSize: 0x0 }
  - { offset: 0x256DBD, size: 0x8, addend: 0x0, symName: __ZL28_double_parser_trans_actions, symObjAddr: 0x7DB, symBinAddr: 0xE4BB1, symSize: 0x0 }
  - { offset: 0x256E6E, size: 0x8, addend: 0x0, symName: __Z12hb_parse_intPPKcS0_Pib, symObjAddr: 0x0, symBinAddr: 0x4A678, symSize: 0x128 }
  - { offset: 0x257110, size: 0x8, addend: 0x0, symName: __Z13hb_parse_uintPPKcS0_Pjbi, symObjAddr: 0x128, symBinAddr: 0x4A7A0, symSize: 0x134 }
  - { offset: 0x25746B, size: 0x8, addend: 0x0, symName: __Z15hb_parse_doublePPKcS0_Pdb, symObjAddr: 0x25C, symBinAddr: 0x4A8D4, symSize: 0x48C }
  - { offset: 0x25A14F, size: 0x8, addend: 0x0, symName: __ZN2OT4cff133lookup_standard_encoding_for_codeEj, symObjAddr: 0x0, symBinAddr: 0x4AD60, symSize: 0x20 }
  - { offset: 0x25A168, size: 0x8, addend: 0x0, symName: __ZL25standard_encoding_to_code, symObjAddr: 0x83D1, symBinAddr: 0xE4D39, symSize: 0x0 }
  - { offset: 0x25A1A0, size: 0x8, addend: 0x0, symName: __ZL23expert_encoding_to_code, symObjAddr: 0x8467, symBinAddr: 0xE4DCF, symSize: 0x0 }
  - { offset: 0x25A1C7, size: 0x8, addend: 0x0, symName: __ZL21expert_charset_to_sid, symObjAddr: 0x85E2, symBinAddr: 0xE4F4A, symSize: 0x0 }
  - { offset: 0x25A1F8, size: 0x8, addend: 0x0, symName: __ZL28expert_subset_charset_to_sid, symObjAddr: 0x872E, symBinAddr: 0xE5096, symSize: 0x0 }
  - { offset: 0x25A21D, size: 0x8, addend: 0x0, symName: __ZL25expert_charset_sid_to_gid, symObjAddr: 0x87DC, symBinAddr: 0xE5144, symSize: 0x0 }
  - { offset: 0x25A28F, size: 0x8, addend: 0x0, symName: __ZL32expert_subset_charset_sid_to_gid, symObjAddr: 0x8A70, symBinAddr: 0xE53D8, symSize: 0x0 }
  - { offset: 0x25A2B4, size: 0x8, addend: 0x0, symName: __ZL24standard_encoding_to_sid, symObjAddr: 0x8BC8, symBinAddr: 0xE5530, symSize: 0x0 }
  - { offset: 0x2673F5, size: 0x8, addend: 0x0, symName: __ZN2OT4cff133lookup_standard_encoding_for_codeEj, symObjAddr: 0x0, symBinAddr: 0x4AD60, symSize: 0x20 }
  - { offset: 0x26741C, size: 0x8, addend: 0x0, symName: __ZN2OT4cff131lookup_expert_encoding_for_codeEj, symObjAddr: 0x20, symBinAddr: 0x4AD80, symSize: 0x20 }
  - { offset: 0x267443, size: 0x8, addend: 0x0, symName: __ZN2OT4cff129lookup_expert_charset_for_sidEj, symObjAddr: 0x40, symBinAddr: 0x4ADA0, symSize: 0x20 }
  - { offset: 0x26746A, size: 0x8, addend: 0x0, symName: __ZN2OT4cff136lookup_expert_subset_charset_for_sidEj, symObjAddr: 0x60, symBinAddr: 0x4ADC0, symSize: 0x20 }
  - { offset: 0x2676B2, size: 0x8, addend: 0x0, symName: __ZN2OT4cff131lookup_expert_charset_for_glyphEj, symObjAddr: 0x80, symBinAddr: 0x4ADE0, symSize: 0x60 }
  - { offset: 0x2677BD, size: 0x8, addend: 0x0, symName: __ZN2OT4cff138lookup_expert_subset_charset_for_glyphEj, symObjAddr: 0xE0, symBinAddr: 0x4AE40, symSize: 0x60 }
  - { offset: 0x2678C9, size: 0x8, addend: 0x0, symName: __ZN2OT4cff132lookup_standard_encoding_for_sidEj, symObjAddr: 0x140, symBinAddr: 0x4AEA0, symSize: 0x20 }
  - { offset: 0x26EF0E, size: 0x8, addend: 0x0, symName: __ZNK2OT4cff113accelerator_t11get_extentsEP9hb_font_tjP18hb_glyph_extents_t, symObjAddr: 0x160, symBinAddr: 0x4AEC0, symSize: 0xF8 }
  - { offset: 0x26F1B0, size: 0x8, addend: 0x0, symName: __ZL11_get_boundsPKN2OT4cff113accelerator_tEjR8bounds_tb, symObjAddr: 0x258, symBinAddr: 0x4AFB8, symSize: 0x420 }
  - { offset: 0x270EE5, size: 0x8, addend: 0x0, symName: __ZNK2OT8CFFIndexINS_7IntTypeItLj2EEEEixEj, symObjAddr: 0xF00, symBinAddr: 0x4BB60, symSize: 0x180 }
  - { offset: 0x270F42, size: 0x8, addend: 0x0, symName: __ZNK2OT8CFFIndexINS_7IntTypeItLj2EEEEixEj, symObjAddr: 0xF00, symBinAddr: 0x4BB60, symSize: 0x180 }
  - { offset: 0x270F60, size: 0x8, addend: 0x0, symName: __ZNK2OT8CFFIndexINS_7IntTypeItLj2EEEEixEj, symObjAddr: 0xF00, symBinAddr: 0x4BB60, symSize: 0x180 }
  - { offset: 0x271338, size: 0x8, addend: 0x0, symName: __ZN23cff1_cs_opset_extents_t12process_seacERN3CFF20cff1_cs_interp_env_tER20cff1_extents_param_t, symObjAddr: 0x1214, symBinAddr: 0x4BE74, symSize: 0x39C }
  - { offset: 0x271EDB, size: 0x8, addend: 0x0, symName: __ZN3CFF10cs_opset_tINS_8number_tE23cff1_cs_opset_extents_tNS_20cff1_cs_interp_env_tE20cff1_extents_param_t25cff1_path_procs_extents_tE10process_opEjRS3_RS4_, symObjAddr: 0x15B0, symBinAddr: 0x4C210, symSize: 0xA2C }
  - { offset: 0x27325E, size: 0x8, addend: 0x0, symName: __ZNK2OT4cff113accelerator_t8get_pathEP9hb_font_tjR17hb_draw_session_t, symObjAddr: 0x778, symBinAddr: 0x4B3D8, symSize: 0xC }
  - { offset: 0x2732E7, size: 0x8, addend: 0x0, symName: __ZL9_get_pathPKN2OT4cff113accelerator_tEP9hb_font_tjR17hb_draw_session_tbPN3CFF7point_tE, symObjAddr: 0x784, symBinAddr: 0x4B3E4, symSize: 0x484 }
  - { offset: 0x274693, size: 0x8, addend: 0x0, symName: __ZN20cff1_cs_opset_path_t12process_seacERN3CFF20cff1_cs_interp_env_tER17cff1_path_param_t, symObjAddr: 0x4BDC, symBinAddr: 0x4F83C, symSize: 0x2BC }
  - { offset: 0x274B8E, size: 0x8, addend: 0x0, symName: __ZN3CFF10cs_opset_tINS_8number_tE20cff1_cs_opset_path_tNS_20cff1_cs_interp_env_tE17cff1_path_param_t22cff1_path_procs_path_tE10process_opEjRS3_RS4_, symObjAddr: 0x4E98, symBinAddr: 0x4FAF8, symSize: 0x9A4 }
  - { offset: 0x27BC37, size: 0x8, addend: 0x0, symName: __ZNK2OT4cff120accelerator_subset_t19get_seac_componentsEjPjS2_, symObjAddr: 0xC08, symBinAddr: 0x4B868, symSize: 0x2F8 }
  - { offset: 0x27C652, size: 0x8, addend: 0x0, symName: __ZN3CFF16cs_interpreter_tINS_20cff1_cs_interp_env_tE20cff1_cs_opset_seac_t16get_seac_param_tE9interpretERS3_, symObjAddr: 0x10A0, symBinAddr: 0x4BD00, symSize: 0x174 }
  - { offset: 0x27CD72, size: 0x8, addend: 0x0, symName: __ZN20cff1_cs_opset_seac_t12process_seacERN3CFF20cff1_cs_interp_env_tER16get_seac_param_t, symObjAddr: 0x7A28, symBinAddr: 0x52638, symSize: 0x178 }
  - { offset: 0x27CF84, size: 0x8, addend: 0x0, symName: __ZN3CFF10cs_opset_tINS_8number_tE20cff1_cs_opset_seac_tNS_20cff1_cs_interp_env_tE16get_seac_param_tNS_17path_procs_null_tIS3_S4_EEE10process_opEjRS3_RS4_, symObjAddr: 0x7BA0, symBinAddr: 0x527B0, symSize: 0x6B4 }
  - { offset: 0x27DEED, size: 0x8, addend: 0x0, symName: __ZNK3CFF7Charset9get_glyphEjj, symObjAddr: 0x1FDC, symBinAddr: 0x4CC3C, symSize: 0x134 }
  - { offset: 0x27E772, size: 0x8, addend: 0x0, symName: __ZN3CFF12path_procs_tI25cff1_path_procs_extents_tNS_20cff1_cs_interp_env_tE20cff1_extents_param_tE7rlinetoERS2_RS3_, symObjAddr: 0x2110, symBinAddr: 0x4CD70, symSize: 0x1B8 }
  - { offset: 0x27ECF8, size: 0x8, addend: 0x0, symName: __ZN3CFF12path_procs_tI25cff1_path_procs_extents_tNS_20cff1_cs_interp_env_tE20cff1_extents_param_tE7hlinetoERS2_RS3_, symObjAddr: 0x22C8, symBinAddr: 0x4CF28, symSize: 0x40C }
  - { offset: 0x27F898, size: 0x8, addend: 0x0, symName: __ZN3CFF12path_procs_tI25cff1_path_procs_extents_tNS_20cff1_cs_interp_env_tE20cff1_extents_param_tE7vlinetoERS2_RS3_, symObjAddr: 0x26D4, symBinAddr: 0x4D334, symSize: 0x40C }
  - { offset: 0x280438, size: 0x8, addend: 0x0, symName: __ZN3CFF12path_procs_tI25cff1_path_procs_extents_tNS_20cff1_cs_interp_env_tE20cff1_extents_param_tE9rrcurvetoERS2_RS3_, symObjAddr: 0x2AE0, symBinAddr: 0x4D740, symSize: 0x1F0 }
  - { offset: 0x280BBF, size: 0x8, addend: 0x0, symName: __ZN3CFF12path_procs_tI25cff1_path_procs_extents_tNS_20cff1_cs_interp_env_tE20cff1_extents_param_tE10rcurvelineERS2_RS3_, symObjAddr: 0x2CD0, symBinAddr: 0x4D930, symSize: 0x388 }
  - { offset: 0x281822, size: 0x8, addend: 0x0, symName: __ZN3CFF12path_procs_tI25cff1_path_procs_extents_tNS_20cff1_cs_interp_env_tE20cff1_extents_param_tE10rlinecurveERS2_RS3_, symObjAddr: 0x3058, symBinAddr: 0x4DCB8, symSize: 0x34C }
  - { offset: 0x2824D3, size: 0x8, addend: 0x0, symName: __ZN3CFF12path_procs_tI25cff1_path_procs_extents_tNS_20cff1_cs_interp_env_tE20cff1_extents_param_tE9vvcurvetoERS2_RS3_, symObjAddr: 0x33A4, symBinAddr: 0x4E004, symSize: 0x1BC }
  - { offset: 0x282AF3, size: 0x8, addend: 0x0, symName: __ZN3CFF12path_procs_tI25cff1_path_procs_extents_tNS_20cff1_cs_interp_env_tE20cff1_extents_param_tE9hhcurvetoERS2_RS3_, symObjAddr: 0x3560, symBinAddr: 0x4E1C0, symSize: 0x1BC }
  - { offset: 0x283102, size: 0x8, addend: 0x0, symName: __ZN3CFF12path_procs_tI25cff1_path_procs_extents_tNS_20cff1_cs_interp_env_tE20cff1_extents_param_tE9vhcurvetoERS2_RS3_, symObjAddr: 0x371C, symBinAddr: 0x4E37C, symSize: 0x5BC }
  - { offset: 0x28486E, size: 0x8, addend: 0x0, symName: __ZN3CFF12path_procs_tI25cff1_path_procs_extents_tNS_20cff1_cs_interp_env_tE20cff1_extents_param_tE9hvcurvetoERS2_RS3_, symObjAddr: 0x3CD8, symBinAddr: 0x4E938, symSize: 0x5BC }
  - { offset: 0x286005, size: 0x8, addend: 0x0, symName: __ZN3CFF12path_procs_tI25cff1_path_procs_extents_tNS_20cff1_cs_interp_env_tE20cff1_extents_param_tE5hflexERS2_RS3_, symObjAddr: 0x4294, symBinAddr: 0x4EEF4, symSize: 0x10C }
  - { offset: 0x286600, size: 0x8, addend: 0x0, symName: __ZN3CFF12path_procs_tI25cff1_path_procs_extents_tNS_20cff1_cs_interp_env_tE20cff1_extents_param_tE4flexERS2_RS3_, symObjAddr: 0x43A0, symBinAddr: 0x4F000, symSize: 0x10C }
  - { offset: 0x286D33, size: 0x8, addend: 0x0, symName: __ZN3CFF12path_procs_tI25cff1_path_procs_extents_tNS_20cff1_cs_interp_env_tE20cff1_extents_param_tE6hflex1ERS2_RS3_, symObjAddr: 0x44AC, symBinAddr: 0x4F10C, symSize: 0x110 }
  - { offset: 0x2873AC, size: 0x8, addend: 0x0, symName: __ZN3CFF12path_procs_tI25cff1_path_procs_extents_tNS_20cff1_cs_interp_env_tE20cff1_extents_param_tE5flex1ERS2_RS3_, symObjAddr: 0x45BC, symBinAddr: 0x4F21C, symSize: 0x178 }
  - { offset: 0x287BF5, size: 0x8, addend: 0x0, symName: __ZN3CFF7opset_tINS_8number_tEE10process_opEjRNS_12interp_env_tIS1_EE, symObjAddr: 0x4734, symBinAddr: 0x4F394, symSize: 0x268 }
  - { offset: 0x288216, size: 0x8, addend: 0x0, symName: __ZN25cff1_path_procs_extents_t5curveERN3CFF20cff1_cs_interp_env_tER20cff1_extents_param_tRKNS0_7point_tES7_S7_, symObjAddr: 0x499C, symBinAddr: 0x4F5FC, symSize: 0x240 }
  - { offset: 0x288279, size: 0x8, addend: 0x0, symName: __ZN25cff1_path_procs_extents_t5curveERN3CFF20cff1_cs_interp_env_tER20cff1_extents_param_tRKNS0_7point_tES7_S7_, symObjAddr: 0x499C, symBinAddr: 0x4F5FC, symSize: 0x240 }
  - { offset: 0x288A0A, size: 0x8, addend: 0x0, symName: __ZN17cff1_path_param_t7line_toERKN3CFF7point_tE, symObjAddr: 0x7730, symBinAddr: 0x52390, symSize: 0x114 }
  - { offset: 0x288D44, size: 0x8, addend: 0x0, symName: __ZN3CFF12path_procs_tI22cff1_path_procs_path_tNS_20cff1_cs_interp_env_tE17cff1_path_param_tE7hlinetoERS2_RS3_, symObjAddr: 0x583C, symBinAddr: 0x5049C, symSize: 0x168 }
  - { offset: 0x28926D, size: 0x8, addend: 0x0, symName: __ZN3CFF12path_procs_tI22cff1_path_procs_path_tNS_20cff1_cs_interp_env_tE17cff1_path_param_tE7vlinetoERS2_RS3_, symObjAddr: 0x59A4, symBinAddr: 0x50604, symSize: 0x168 }
  - { offset: 0x28977D, size: 0x8, addend: 0x0, symName: __ZN3CFF12path_procs_tI22cff1_path_procs_path_tNS_20cff1_cs_interp_env_tE17cff1_path_param_tE9rrcurvetoERS2_RS3_, symObjAddr: 0x5B0C, symBinAddr: 0x5076C, symSize: 0x1F4 }
  - { offset: 0x289F68, size: 0x8, addend: 0x0, symName: __ZN17cff1_path_param_t7move_toERKN3CFF7point_tE, symObjAddr: 0x75FC, symBinAddr: 0x5225C, symSize: 0x134 }
  - { offset: 0x28A30F, size: 0x8, addend: 0x0, symName: __ZN3CFF12path_procs_tI22cff1_path_procs_path_tNS_20cff1_cs_interp_env_tE17cff1_path_param_tE10rcurvelineERS2_RS3_, symObjAddr: 0x5D00, symBinAddr: 0x50960, symSize: 0x28C }
  - { offset: 0x28AD8D, size: 0x8, addend: 0x0, symName: __ZN3CFF12path_procs_tI22cff1_path_procs_path_tNS_20cff1_cs_interp_env_tE17cff1_path_param_tE10rlinecurveERS2_RS3_, symObjAddr: 0x5F8C, symBinAddr: 0x50BEC, symSize: 0x2A0 }
  - { offset: 0x28B7A0, size: 0x8, addend: 0x0, symName: __ZN3CFF12path_procs_tI22cff1_path_procs_path_tNS_20cff1_cs_interp_env_tE17cff1_path_param_tE9vvcurvetoERS2_RS3_, symObjAddr: 0x622C, symBinAddr: 0x50E8C, symSize: 0x1BC }
  - { offset: 0x28BE24, size: 0x8, addend: 0x0, symName: __ZN3CFF12path_procs_tI22cff1_path_procs_path_tNS_20cff1_cs_interp_env_tE17cff1_path_param_tE9hhcurvetoERS2_RS3_, symObjAddr: 0x63E8, symBinAddr: 0x51048, symSize: 0x1BC }
  - { offset: 0x28C497, size: 0x8, addend: 0x0, symName: __ZN3CFF12path_procs_tI22cff1_path_procs_path_tNS_20cff1_cs_interp_env_tE17cff1_path_param_tE9vhcurvetoERS2_RS3_, symObjAddr: 0x65A4, symBinAddr: 0x51204, symSize: 0x5C4 }
  - { offset: 0x28DDFE, size: 0x8, addend: 0x0, symName: __ZN3CFF12path_procs_tI22cff1_path_procs_path_tNS_20cff1_cs_interp_env_tE17cff1_path_param_tE9hvcurvetoERS2_RS3_, symObjAddr: 0x6B68, symBinAddr: 0x517C8, symSize: 0x5C4 }
  - { offset: 0x28F790, size: 0x8, addend: 0x0, symName: __ZN3CFF12path_procs_tI22cff1_path_procs_path_tNS_20cff1_cs_interp_env_tE17cff1_path_param_tE5hflexERS2_RS3_, symObjAddr: 0x712C, symBinAddr: 0x51D8C, symSize: 0x118 }
  - { offset: 0x28FE5D, size: 0x8, addend: 0x0, symName: __ZN3CFF12path_procs_tI22cff1_path_procs_path_tNS_20cff1_cs_interp_env_tE17cff1_path_param_tE4flexERS2_RS3_, symObjAddr: 0x7244, symBinAddr: 0x51EA4, symSize: 0x118 }
  - { offset: 0x290662, size: 0x8, addend: 0x0, symName: __ZN3CFF12path_procs_tI22cff1_path_procs_path_tNS_20cff1_cs_interp_env_tE17cff1_path_param_tE6hflex1ERS2_RS3_, symObjAddr: 0x735C, symBinAddr: 0x51FBC, symSize: 0x11C }
  - { offset: 0x290DAD, size: 0x8, addend: 0x0, symName: __ZN3CFF12path_procs_tI22cff1_path_procs_path_tNS_20cff1_cs_interp_env_tE17cff1_path_param_tE5flex1ERS2_RS3_, symObjAddr: 0x7478, symBinAddr: 0x520D8, symSize: 0x184 }
  - { offset: 0x2916EE, size: 0x8, addend: 0x0, symName: __ZN17cff1_path_param_t8cubic_toERKN3CFF7point_tES3_S3_, symObjAddr: 0x7894, symBinAddr: 0x524A4, symSize: 0x194 }
  - { offset: 0x2941AF, size: 0x8, addend: 0x0, symName: __ZNK2OT4cff213accelerator_t11get_extentsEP9hb_font_tjP18hb_glyph_extents_t, symObjAddr: 0x0, symBinAddr: 0x52E64, symSize: 0x3E0 }
  - { offset: 0x2A3D24, size: 0x8, addend: 0x0, symName: __ZNK2OT4cff213accelerator_t11get_extentsEP9hb_font_tjP18hb_glyph_extents_t, symObjAddr: 0x0, symBinAddr: 0x52E64, symSize: 0x3E0 }
  - { offset: 0x2A4A14, size: 0x8, addend: 0x0, symName: __ZNK3CFF12CFF2FDSelect6get_fdEj, symObjAddr: 0x3E0, symBinAddr: 0x53244, symSize: 0x100 }
  - { offset: 0x2A4DE9, size: 0x8, addend: 0x0, symName: __ZNK2OT8CFFIndexINS_7IntTypeIjLj4EEEEixEj, symObjAddr: 0x4E0, symBinAddr: 0x53344, symSize: 0x1A8 }
  - { offset: 0x2A4E46, size: 0x8, addend: 0x0, symName: __ZNK2OT8CFFIndexINS_7IntTypeIjLj4EEEEixEj, symObjAddr: 0x4E0, symBinAddr: 0x53344, symSize: 0x1A8 }
  - { offset: 0x2A4E64, size: 0x8, addend: 0x0, symName: __ZNK2OT8CFFIndexINS_7IntTypeIjLj4EEEEixEj, symObjAddr: 0x4E0, symBinAddr: 0x53344, symSize: 0x1A8 }
  - { offset: 0x2A5269, size: 0x8, addend: 0x0, symName: __ZN3CFF15cff2_cs_opset_tI23cff2_cs_opset_extents_t20cff2_extents_param_tNS_8number_tE25cff2_path_procs_extents_tE10process_opEjRNS_20cff2_cs_interp_env_tIS3_EERS2_, symObjAddr: 0xBA8, symBinAddr: 0x5390C, symSize: 0xDC }
  - { offset: 0x2A5813, size: 0x8, addend: 0x0, symName: __ZNK3CFF11FDSelect3_4IN2OT7IntTypeIjLj4EEENS2_ItLj2EEEE6get_fdEj, symObjAddr: 0xADC, symBinAddr: 0x53840, symSize: 0xCC }
  - { offset: 0x2A585D, size: 0x8, addend: 0x0, symName: __ZNK3CFF11FDSelect3_4IN2OT7IntTypeIjLj4EEENS2_ItLj2EEEE6get_fdEj, symObjAddr: 0xADC, symBinAddr: 0x53840, symSize: 0xCC }
  - { offset: 0x2A5889, size: 0x8, addend: 0x0, symName: __ZNK3CFF11FDSelect3_4IN2OT7IntTypeIjLj4EEENS2_ItLj2EEEE6get_fdEj, symObjAddr: 0xADC, symBinAddr: 0x53840, symSize: 0xCC }
  - { offset: 0x2A58A7, size: 0x8, addend: 0x0, symName: __ZNK3CFF11FDSelect3_4IN2OT7IntTypeIjLj4EEENS2_ItLj2EEEE6get_fdEj, symObjAddr: 0xADC, symBinAddr: 0x53840, symSize: 0xCC }
  - { offset: 0x2A5BF9, size: 0x8, addend: 0x0, symName: __ZNK2OT4cff213accelerator_t8get_pathEP9hb_font_tjR17hb_draw_session_t, symObjAddr: 0x7A8, symBinAddr: 0x5350C, symSize: 0xC }
  - { offset: 0x2A5C74, size: 0x8, addend: 0x0, symName: __ZNK2OT4cff213accelerator_t11get_path_atEP9hb_font_tjR17hb_draw_session_t10hb_array_tIKiE, symObjAddr: 0x7B4, symBinAddr: 0x53518, symSize: 0x328 }
  - { offset: 0x2A6973, size: 0x8, addend: 0x0, symName: __ZN3CFF15cff2_cs_opset_tI20cff2_cs_opset_path_t17cff2_path_param_tNS_8number_tE22cff2_path_procs_path_tE10process_opEjRNS_20cff2_cs_interp_env_tIS3_EERS2_, symObjAddr: 0x4634, symBinAddr: 0x57130, symSize: 0xDC }
  - { offset: 0x2A6EB7, size: 0x8, addend: 0x0, symName: __ZN3CFF10cs_opset_tINS_8number_tE23cff2_cs_opset_extents_tNS_20cff2_cs_interp_env_tIS1_EE20cff2_extents_param_t25cff2_path_procs_extents_tE10process_opEjRS4_RS5_, symObjAddr: 0xC84, symBinAddr: 0x539E8, symSize: 0x5C8 }
  - { offset: 0x2A7A13, size: 0x8, addend: 0x0, symName: __ZN3CFF15cff2_cs_opset_tI23cff2_cs_opset_extents_t20cff2_extents_param_tNS_8number_tE25cff2_path_procs_extents_tE13process_blendERNS_20cff2_cs_interp_env_tIS3_EERS2_, symObjAddr: 0x124C, symBinAddr: 0x53FB0, symSize: 0x3CC }
  - { offset: 0x2A81F9, size: 0x8, addend: 0x0, symName: __ZN3CFF12path_procs_tI25cff2_path_procs_extents_tNS_20cff2_cs_interp_env_tINS_8number_tEEE20cff2_extents_param_tE7rlinetoERS4_RS5_, symObjAddr: 0x175C, symBinAddr: 0x544C0, symSize: 0x1B8 }
  - { offset: 0x2A876C, size: 0x8, addend: 0x0, symName: __ZN3CFF12path_procs_tI25cff2_path_procs_extents_tNS_20cff2_cs_interp_env_tINS_8number_tEEE20cff2_extents_param_tE7hlinetoERS4_RS5_, symObjAddr: 0x1914, symBinAddr: 0x54678, symSize: 0x40C }
  - { offset: 0x2A92DE, size: 0x8, addend: 0x0, symName: __ZN3CFF12path_procs_tI25cff2_path_procs_extents_tNS_20cff2_cs_interp_env_tINS_8number_tEEE20cff2_extents_param_tE7vlinetoERS4_RS5_, symObjAddr: 0x1D20, symBinAddr: 0x54A84, symSize: 0x40C }
  - { offset: 0x2A9E50, size: 0x8, addend: 0x0, symName: __ZN3CFF12path_procs_tI25cff2_path_procs_extents_tNS_20cff2_cs_interp_env_tINS_8number_tEEE20cff2_extents_param_tE9rrcurvetoERS4_RS5_, symObjAddr: 0x212C, symBinAddr: 0x54E90, symSize: 0x1F0 }
  - { offset: 0x2AA5D1, size: 0x8, addend: 0x0, symName: __ZN3CFF15cs_interp_env_tINS_8number_tENS_5SubrsIN2OT7IntTypeIjLj4EEEEEE9call_subrERKNS_14biased_subrs_tIS6_EENS_9cs_type_tE, symObjAddr: 0x1618, symBinAddr: 0x5437C, symSize: 0x144 }
  - { offset: 0x2AA87E, size: 0x8, addend: 0x0, symName: __ZN3CFF12path_procs_tI25cff2_path_procs_extents_tNS_20cff2_cs_interp_env_tINS_8number_tEEE20cff2_extents_param_tE10rcurvelineERS4_RS5_, symObjAddr: 0x231C, symBinAddr: 0x55080, symSize: 0x388 }
  - { offset: 0x2AB4CA, size: 0x8, addend: 0x0, symName: __ZN3CFF12path_procs_tI25cff2_path_procs_extents_tNS_20cff2_cs_interp_env_tINS_8number_tEEE20cff2_extents_param_tE10rlinecurveERS4_RS5_, symObjAddr: 0x26A4, symBinAddr: 0x55408, symSize: 0x34C }
  - { offset: 0x2AC162, size: 0x8, addend: 0x0, symName: __ZN3CFF12path_procs_tI25cff2_path_procs_extents_tNS_20cff2_cs_interp_env_tINS_8number_tEEE20cff2_extents_param_tE9vvcurvetoERS4_RS5_, symObjAddr: 0x29F0, symBinAddr: 0x55754, symSize: 0x1BC }
  - { offset: 0x2AC77E, size: 0x8, addend: 0x0, symName: __ZN3CFF12path_procs_tI25cff2_path_procs_extents_tNS_20cff2_cs_interp_env_tINS_8number_tEEE20cff2_extents_param_tE9hhcurvetoERS4_RS5_, symObjAddr: 0x2BAC, symBinAddr: 0x55910, symSize: 0x1BC }
  - { offset: 0x2ACD89, size: 0x8, addend: 0x0, symName: __ZN3CFF12path_procs_tI25cff2_path_procs_extents_tNS_20cff2_cs_interp_env_tINS_8number_tEEE20cff2_extents_param_tE9vhcurvetoERS4_RS5_, symObjAddr: 0x2D68, symBinAddr: 0x55ACC, symSize: 0x5BC }
  - { offset: 0x2AE4E3, size: 0x8, addend: 0x0, symName: __ZN3CFF12path_procs_tI25cff2_path_procs_extents_tNS_20cff2_cs_interp_env_tINS_8number_tEEE20cff2_extents_param_tE9hvcurvetoERS4_RS5_, symObjAddr: 0x3324, symBinAddr: 0x56088, symSize: 0x5BC }
  - { offset: 0x2AFC68, size: 0x8, addend: 0x0, symName: __ZN3CFF12path_procs_tI25cff2_path_procs_extents_tNS_20cff2_cs_interp_env_tINS_8number_tEEE20cff2_extents_param_tE5hflexERS4_RS5_, symObjAddr: 0x38E0, symBinAddr: 0x56644, symSize: 0x10C }
  - { offset: 0x2B0263, size: 0x8, addend: 0x0, symName: __ZN3CFF12path_procs_tI25cff2_path_procs_extents_tNS_20cff2_cs_interp_env_tINS_8number_tEEE20cff2_extents_param_tE4flexERS4_RS5_, symObjAddr: 0x39EC, symBinAddr: 0x56750, symSize: 0x10C }
  - { offset: 0x2B0996, size: 0x8, addend: 0x0, symName: __ZN3CFF12path_procs_tI25cff2_path_procs_extents_tNS_20cff2_cs_interp_env_tINS_8number_tEEE20cff2_extents_param_tE6hflex1ERS4_RS5_, symObjAddr: 0x3AF8, symBinAddr: 0x5685C, symSize: 0x110 }
  - { offset: 0x2B100F, size: 0x8, addend: 0x0, symName: __ZN3CFF12path_procs_tI25cff2_path_procs_extents_tNS_20cff2_cs_interp_env_tINS_8number_tEEE20cff2_extents_param_tE5flex1ERS4_RS5_, symObjAddr: 0x3C08, symBinAddr: 0x5696C, symSize: 0x178 }
  - { offset: 0x2B1C75, size: 0x8, addend: 0x0, symName: __ZN3CFF20cff2_cs_interp_env_tINS_8number_tEE13process_blendEv, symObjAddr: 0x4228, symBinAddr: 0x56D24, symSize: 0x1A4 }
  - { offset: 0x2B222A, size: 0x8, addend: 0x0, symName: __ZN25cff2_path_procs_extents_t5curveERN3CFF20cff2_cs_interp_env_tINS0_8number_tEEER20cff2_extents_param_tRKNS0_7point_tES9_S9_, symObjAddr: 0x3FE8, symBinAddr: 0x56AE4, symSize: 0x240 }
  - { offset: 0x2B2288, size: 0x8, addend: 0x0, symName: __ZN25cff2_path_procs_extents_t5curveERN3CFF20cff2_cs_interp_env_tINS0_8number_tEEER20cff2_extents_param_tRKNS0_7point_tES9_S9_, symObjAddr: 0x3FE8, symBinAddr: 0x56AE4, symSize: 0x240 }
  - { offset: 0x2B2B7F, size: 0x8, addend: 0x0, symName: __ZNK2OT18ItemVariationStore18get_region_scalarsEjPKijPfj, symObjAddr: 0x43CC, symBinAddr: 0x56EC8, symSize: 0x120 }
  - { offset: 0x2B3005, size: 0x8, addend: 0x0, symName: __ZNK2OT13VarRegionList8evaluateEjPKijPf, symObjAddr: 0x44EC, symBinAddr: 0x56FE8, symSize: 0x148 }
  - { offset: 0x2B30AF, size: 0x8, addend: 0x0, symName: __ZNK2OT13VarRegionList8evaluateEjPKijPf, symObjAddr: 0x44EC, symBinAddr: 0x56FE8, symSize: 0x148 }
  - { offset: 0x2B30CF, size: 0x8, addend: 0x0, symName: __ZNK2OT13VarRegionList8evaluateEjPKijPf, symObjAddr: 0x44EC, symBinAddr: 0x56FE8, symSize: 0x148 }
  - { offset: 0x2B32A3, size: 0x8, addend: 0x0, symName: __ZN3CFF10cs_opset_tINS_8number_tE20cff2_cs_opset_path_tNS_20cff2_cs_interp_env_tIS1_EE17cff2_path_param_t22cff2_path_procs_path_tE10process_opEjRS4_RS5_, symObjAddr: 0x4710, symBinAddr: 0x5720C, symSize: 0x604 }
  - { offset: 0x2B416B, size: 0x8, addend: 0x0, symName: __ZN3CFF15cff2_cs_opset_tI20cff2_cs_opset_path_t17cff2_path_param_tNS_8number_tE22cff2_path_procs_path_tE13process_blendERNS_20cff2_cs_interp_env_tIS3_EERS2_, symObjAddr: 0x4D14, symBinAddr: 0x57810, symSize: 0x3CC }
  - { offset: 0x2B4767, size: 0x8, addend: 0x0, symName: __ZN17cff2_path_param_t7line_toERKN3CFF7point_tE, symObjAddr: 0x6FC0, symBinAddr: 0x59ABC, symSize: 0x100 }
  - { offset: 0x2B49F5, size: 0x8, addend: 0x0, symName: __ZN3CFF12path_procs_tI22cff2_path_procs_path_tNS_20cff2_cs_interp_env_tINS_8number_tEEE17cff2_path_param_tE7hlinetoERS4_RS5_, symObjAddr: 0x50E0, symBinAddr: 0x57BDC, symSize: 0x168 }
  - { offset: 0x2B4F18, size: 0x8, addend: 0x0, symName: __ZN3CFF12path_procs_tI22cff2_path_procs_path_tNS_20cff2_cs_interp_env_tINS_8number_tEEE17cff2_path_param_tE7vlinetoERS4_RS5_, symObjAddr: 0x5248, symBinAddr: 0x57D44, symSize: 0x168 }
  - { offset: 0x2B5422, size: 0x8, addend: 0x0, symName: __ZN3CFF12path_procs_tI22cff2_path_procs_path_tNS_20cff2_cs_interp_env_tINS_8number_tEEE17cff2_path_param_tE9rrcurvetoERS4_RS5_, symObjAddr: 0x53B0, symBinAddr: 0x57EAC, symSize: 0x1F4 }
  - { offset: 0x2B5C06, size: 0x8, addend: 0x0, symName: __ZN17cff2_path_param_t7move_toERKN3CFF7point_tE, symObjAddr: 0x6EA0, symBinAddr: 0x5999C, symSize: 0x120 }
  - { offset: 0x2B5F01, size: 0x8, addend: 0x0, symName: __ZN3CFF12path_procs_tI22cff2_path_procs_path_tNS_20cff2_cs_interp_env_tINS_8number_tEEE17cff2_path_param_tE10rcurvelineERS4_RS5_, symObjAddr: 0x55A4, symBinAddr: 0x580A0, symSize: 0x28C }
  - { offset: 0x2B6975, size: 0x8, addend: 0x0, symName: __ZN3CFF12path_procs_tI22cff2_path_procs_path_tNS_20cff2_cs_interp_env_tINS_8number_tEEE17cff2_path_param_tE10rlinecurveERS4_RS5_, symObjAddr: 0x5830, symBinAddr: 0x5832C, symSize: 0x2A0 }
  - { offset: 0x2B737E, size: 0x8, addend: 0x0, symName: __ZN3CFF12path_procs_tI22cff2_path_procs_path_tNS_20cff2_cs_interp_env_tINS_8number_tEEE17cff2_path_param_tE9vvcurvetoERS4_RS5_, symObjAddr: 0x5AD0, symBinAddr: 0x585CC, symSize: 0x1BC }
  - { offset: 0x2B79FD, size: 0x8, addend: 0x0, symName: __ZN3CFF12path_procs_tI22cff2_path_procs_path_tNS_20cff2_cs_interp_env_tINS_8number_tEEE17cff2_path_param_tE9hhcurvetoERS4_RS5_, symObjAddr: 0x5C8C, symBinAddr: 0x58788, symSize: 0x1BC }
  - { offset: 0x2B806B, size: 0x8, addend: 0x0, symName: __ZN3CFF12path_procs_tI22cff2_path_procs_path_tNS_20cff2_cs_interp_env_tINS_8number_tEEE17cff2_path_param_tE9vhcurvetoERS4_RS5_, symObjAddr: 0x5E48, symBinAddr: 0x58944, symSize: 0x5C4 }
  - { offset: 0x2B99BB, size: 0x8, addend: 0x0, symName: __ZN3CFF12path_procs_tI22cff2_path_procs_path_tNS_20cff2_cs_interp_env_tINS_8number_tEEE17cff2_path_param_tE9hvcurvetoERS4_RS5_, symObjAddr: 0x640C, symBinAddr: 0x58F08, symSize: 0x5C4 }
  - { offset: 0x2BB336, size: 0x8, addend: 0x0, symName: __ZN3CFF12path_procs_tI22cff2_path_procs_path_tNS_20cff2_cs_interp_env_tINS_8number_tEEE17cff2_path_param_tE5hflexERS4_RS5_, symObjAddr: 0x69D0, symBinAddr: 0x594CC, symSize: 0x118 }
  - { offset: 0x2BBA01, size: 0x8, addend: 0x0, symName: __ZN3CFF12path_procs_tI22cff2_path_procs_path_tNS_20cff2_cs_interp_env_tINS_8number_tEEE17cff2_path_param_tE4flexERS4_RS5_, symObjAddr: 0x6AE8, symBinAddr: 0x595E4, symSize: 0x118 }
  - { offset: 0x2BC204, size: 0x8, addend: 0x0, symName: __ZN3CFF12path_procs_tI22cff2_path_procs_path_tNS_20cff2_cs_interp_env_tINS_8number_tEEE17cff2_path_param_tE6hflex1ERS4_RS5_, symObjAddr: 0x6C00, symBinAddr: 0x596FC, symSize: 0x11C }
  - { offset: 0x2BC94D, size: 0x8, addend: 0x0, symName: __ZN3CFF12path_procs_tI22cff2_path_procs_path_tNS_20cff2_cs_interp_env_tINS_8number_tEEE17cff2_path_param_tE5flex1ERS4_RS5_, symObjAddr: 0x6D1C, symBinAddr: 0x59818, symSize: 0x184 }
  - { offset: 0x2BD2DA, size: 0x8, addend: 0x0, symName: __ZN17cff2_path_param_t8cubic_toERKN3CFF7point_tES3_S3_, symObjAddr: 0x7110, symBinAddr: 0x59BBC, symSize: 0x170 }
  - { offset: 0x2D3E7A, size: 0x8, addend: 0x0, symName: _hb_ot_color_has_palettes, symObjAddr: 0x0, symBinAddr: 0x59D2C, symSize: 0xBC }
  - { offset: 0x2D4194, size: 0x8, addend: 0x0, symName: __ZNK17hb_data_wrapper_tI9hb_face_tLj36EE11call_createI9hb_blob_t22hb_table_lazy_loader_tIN2OT4CPALELj36ELb1EEEEPT_v, symObjAddr: 0x196C, symBinAddr: 0x5B698, symSize: 0x98 }
  - { offset: 0x2D43D6, size: 0x8, addend: 0x0, symName: _hb_ot_color_palette_get_count, symObjAddr: 0xBC, symBinAddr: 0x59DE8, symSize: 0xB4 }
  - { offset: 0x2D48CF, size: 0x8, addend: 0x0, symName: _hb_ot_color_palette_get_name_id, symObjAddr: 0x170, symBinAddr: 0x59E9C, symSize: 0x154 }
  - { offset: 0x2D4EDA, size: 0x8, addend: 0x0, symName: _hb_ot_color_palette_color_get_name_id, symObjAddr: 0x2C4, symBinAddr: 0x59FF0, symSize: 0x154 }
  - { offset: 0x2D5589, size: 0x8, addend: 0x0, symName: _hb_ot_color_palette_get_flags, symObjAddr: 0x418, symBinAddr: 0x5A144, symSize: 0x154 }
  - { offset: 0x2D5DFE, size: 0x8, addend: 0x0, symName: _hb_ot_color_palette_get_colors, symObjAddr: 0x56C, symBinAddr: 0x5A298, symSize: 0x1DC }
  - { offset: 0x2D661A, size: 0x8, addend: 0x0, symName: _hb_ot_color_has_layers, symObjAddr: 0x748, symBinAddr: 0x5A474, symSize: 0xBC }
  - { offset: 0x2D6935, size: 0x8, addend: 0x0, symName: __ZNK17hb_data_wrapper_tI9hb_face_tLj35EE11call_createI9hb_blob_t22hb_table_lazy_loader_tIN2OT4COLRELj35ELb1EEEEPT_v, symObjAddr: 0x1EE8, symBinAddr: 0x5BBC8, symSize: 0x98 }
  - { offset: 0x2D6BAB, size: 0x8, addend: 0x0, symName: _hb_ot_color_has_paint, symObjAddr: 0x804, symBinAddr: 0x5A530, symSize: 0xF0 }
  - { offset: 0x2D7010, size: 0x8, addend: 0x0, symName: _hb_ot_color_glyph_has_paint, symObjAddr: 0x8F4, symBinAddr: 0x5A620, symSize: 0xEC }
  - { offset: 0x2D7397, size: 0x8, addend: 0x0, symName: __ZNK2OT4COLR20get_base_glyph_paintEj, symObjAddr: 0x1410, symBinAddr: 0x5B13C, symSize: 0xCC }
  - { offset: 0x2D73F2, size: 0x8, addend: 0x0, symName: __ZNK2OT4COLR20get_base_glyph_paintEj, symObjAddr: 0x1410, symBinAddr: 0x5B13C, symSize: 0xCC }
  - { offset: 0x2D7412, size: 0x8, addend: 0x0, symName: __ZNK2OT4COLR20get_base_glyph_paintEj, symObjAddr: 0x1410, symBinAddr: 0x5B13C, symSize: 0xCC }
  - { offset: 0x2D743A, size: 0x8, addend: 0x0, symName: __ZNK2OT4COLR20get_base_glyph_paintEj, symObjAddr: 0x1410, symBinAddr: 0x5B13C, symSize: 0xCC }
  - { offset: 0x2D745A, size: 0x8, addend: 0x0, symName: __ZNK2OT4COLR20get_base_glyph_paintEj, symObjAddr: 0x1410, symBinAddr: 0x5B13C, symSize: 0xCC }
  - { offset: 0x2D747A, size: 0x8, addend: 0x0, symName: __ZNK2OT4COLR20get_base_glyph_paintEj, symObjAddr: 0x1410, symBinAddr: 0x5B13C, symSize: 0xCC }
  - { offset: 0x2D7741, size: 0x8, addend: 0x0, symName: _hb_ot_color_glyph_get_layers, symObjAddr: 0x9E0, symBinAddr: 0x5A70C, symSize: 0xDC }
  - { offset: 0x2D7A4F, size: 0x8, addend: 0x0, symName: __ZNK2OT4COLR16get_glyph_layersEjjPjP19hb_ot_color_layer_t, symObjAddr: 0xABC, symBinAddr: 0x5A7E8, symSize: 0x174 }
  - { offset: 0x2D7AEA, size: 0x8, addend: 0x0, symName: __ZNK2OT4COLR16get_glyph_layersEjjPjP19hb_ot_color_layer_t, symObjAddr: 0xABC, symBinAddr: 0x5A7E8, symSize: 0x174 }
  - { offset: 0x2D7B0A, size: 0x8, addend: 0x0, symName: __ZNK2OT4COLR16get_glyph_layersEjjPjP19hb_ot_color_layer_t, symObjAddr: 0xABC, symBinAddr: 0x5A7E8, symSize: 0x174 }
  - { offset: 0x2D87C5, size: 0x8, addend: 0x0, symName: _hb_ot_color_has_svg, symObjAddr: 0xC30, symBinAddr: 0x5A95C, symSize: 0xEC }
  - { offset: 0x2D8BFE, size: 0x8, addend: 0x0, symName: __ZN2OT3SVG13accelerator_tC2EP9hb_face_t, symObjAddr: 0x407C, symBinAddr: 0x5D90C, symSize: 0xB0 }
  - { offset: 0x2D8E85, size: 0x8, addend: 0x0, symName: _hb_ot_color_glyph_reference_svg, symObjAddr: 0xD1C, symBinAddr: 0x5AA48, symSize: 0xD4 }
  - { offset: 0x2D917B, size: 0x8, addend: 0x0, symName: __ZNK2OT3SVG13accelerator_t24reference_blob_for_glyphEj, symObjAddr: 0xDF0, symBinAddr: 0x5AB1C, symSize: 0xC8 }
  - { offset: 0x2D91B5, size: 0x8, addend: 0x0, symName: __ZNK2OT3SVG13accelerator_t24reference_blob_for_glyphEj, symObjAddr: 0xDF0, symBinAddr: 0x5AB1C, symSize: 0xC8 }
  - { offset: 0x2D91D4, size: 0x8, addend: 0x0, symName: __ZNK2OT3SVG13accelerator_t24reference_blob_for_glyphEj, symObjAddr: 0xDF0, symBinAddr: 0x5AB1C, symSize: 0xC8 }
  - { offset: 0x2D91F3, size: 0x8, addend: 0x0, symName: __ZNK2OT3SVG13accelerator_t24reference_blob_for_glyphEj, symObjAddr: 0xDF0, symBinAddr: 0x5AB1C, symSize: 0xC8 }
  - { offset: 0x2D9212, size: 0x8, addend: 0x0, symName: __ZNK2OT3SVG13accelerator_t24reference_blob_for_glyphEj, symObjAddr: 0xDF0, symBinAddr: 0x5AB1C, symSize: 0xC8 }
  - { offset: 0x2D9C92, size: 0x8, addend: 0x0, symName: _hb_ot_color_has_png, symObjAddr: 0xEB8, symBinAddr: 0x5ABE4, symSize: 0x120 }
  - { offset: 0x2DA21D, size: 0x8, addend: 0x0, symName: __ZNK16hb_lazy_loader_tIN2OT18CBDT_accelerator_tE21hb_face_lazy_loader_tIS1_Lj37EE9hb_face_tLj37ES1_E3getEv, symObjAddr: 0x44A0, symBinAddr: 0x5DD30, symSize: 0xE0 }
  - { offset: 0x2DA562, size: 0x8, addend: 0x0, symName: __ZN2OT4sbix13accelerator_tC2EP9hb_face_t, symObjAddr: 0x4EC4, symBinAddr: 0x5E754, symSize: 0xE0 }
  - { offset: 0x2DA8A5, size: 0x8, addend: 0x0, symName: _hb_ot_color_glyph_reference_png, symObjAddr: 0xFD8, symBinAddr: 0x5AD04, symSize: 0x234 }
  - { offset: 0x2DB221, size: 0x8, addend: 0x0, symName: __ZNK2OT4sbix13accelerator_t13choose_strikeEP9hb_font_t, symObjAddr: 0x14DC, symBinAddr: 0x5B208, symSize: 0x164 }
  - { offset: 0x2DBA39, size: 0x8, addend: 0x0, symName: __ZNK2OT10SBIXStrike14get_glyph_blobEjP9hb_blob_tjPiS3_jPj, symObjAddr: 0x1640, symBinAddr: 0x5B36C, symSize: 0x100 }
  - { offset: 0x2DBB3B, size: 0x8, addend: 0x0, symName: __ZNK2OT10SBIXStrike14get_glyph_blobEjP9hb_blob_tjPiS3_jPj, symObjAddr: 0x1640, symBinAddr: 0x5B36C, symSize: 0x100 }
  - { offset: 0x2DBB58, size: 0x8, addend: 0x0, symName: __ZNK2OT10SBIXStrike14get_glyph_blobEjP9hb_blob_tjPiS3_jPj, symObjAddr: 0x1640, symBinAddr: 0x5B36C, symSize: 0x100 }
  - { offset: 0x2DBD3C, size: 0x8, addend: 0x0, symName: __ZNK2OT4CBDT13accelerator_t13reference_pngEP9hb_font_tj, symObjAddr: 0x120C, symBinAddr: 0x5AF38, symSize: 0x204 }
  - { offset: 0x2DC7B8, size: 0x8, addend: 0x0, symName: __ZNK2OT4CBLC13choose_strikeEP9hb_font_t, symObjAddr: 0x1740, symBinAddr: 0x5B46C, symSize: 0x128 }
  - { offset: 0x2DC835, size: 0x8, addend: 0x0, symName: __ZNK2OT4CBLC13choose_strikeEP9hb_font_t, symObjAddr: 0x1740, symBinAddr: 0x5B46C, symSize: 0x128 }
  - { offset: 0x2DC855, size: 0x8, addend: 0x0, symName: __ZNK2OT4CBLC13choose_strikeEP9hb_font_t, symObjAddr: 0x1740, symBinAddr: 0x5B46C, symSize: 0x128 }
  - { offset: 0x2DCCF7, size: 0x8, addend: 0x0, symName: __ZNK2OT13IndexSubtable14get_image_dataEjPjS1_S1_, symObjAddr: 0x1868, symBinAddr: 0x5B594, symSize: 0x104 }
  - { offset: 0x2DCD5D, size: 0x8, addend: 0x0, symName: __ZNK2OT13IndexSubtable14get_image_dataEjPjS1_S1_, symObjAddr: 0x1868, symBinAddr: 0x5B594, symSize: 0x104 }
  - { offset: 0x2DCD7D, size: 0x8, addend: 0x0, symName: __ZNK2OT13IndexSubtable14get_image_dataEjPjS1_S1_, symObjAddr: 0x1868, symBinAddr: 0x5B594, symSize: 0x104 }
  - { offset: 0x2DD7F7, size: 0x8, addend: 0x0, symName: __ZN21hb_sanitize_context_t13sanitize_blobIN2OT4CPALEEEP9hb_blob_tS4_, symObjAddr: 0x1A40, symBinAddr: 0x5B730, symSize: 0x21C }
  - { offset: 0x2DDB17, size: 0x8, addend: 0x0, symName: __ZNK2OT4CPAL8sanitizeEP21hb_sanitize_context_t, symObjAddr: 0x1C5C, symBinAddr: 0x5B94C, symSize: 0xF0 }
  - { offset: 0x2DDB5D, size: 0x8, addend: 0x0, symName: __ZNK2OT4CPAL8sanitizeEP21hb_sanitize_context_t, symObjAddr: 0x1C5C, symBinAddr: 0x5B94C, symSize: 0xF0 }
  - { offset: 0x2DE325, size: 0x8, addend: 0x0, symName: __ZNK2OT10CPALV1Tail8sanitizeEP21hb_sanitize_context_tPKvjj, symObjAddr: 0x1D4C, symBinAddr: 0x5BA3C, symSize: 0x18C }
  - { offset: 0x2DE393, size: 0x8, addend: 0x0, symName: __ZNK2OT10CPALV1Tail8sanitizeEP21hb_sanitize_context_tPKvjj, symObjAddr: 0x1D4C, symBinAddr: 0x5BA3C, symSize: 0x18C }
  - { offset: 0x2DE3B8, size: 0x8, addend: 0x0, symName: __ZNK2OT10CPALV1Tail8sanitizeEP21hb_sanitize_context_tPKvjj, symObjAddr: 0x1D4C, symBinAddr: 0x5BA3C, symSize: 0x18C }
  - { offset: 0x2DEA84, size: 0x8, addend: 0x0, symName: __ZN21hb_sanitize_context_t13sanitize_blobIN2OT4COLREEEP9hb_blob_tS4_, symObjAddr: 0x1F80, symBinAddr: 0x5BC60, symSize: 0x21C }
  - { offset: 0x2DECB3, size: 0x8, addend: 0x0, symName: __ZNK2OT4COLR8sanitizeEP21hb_sanitize_context_t, symObjAddr: 0x219C, symBinAddr: 0x5BE7C, symSize: 0x29C }
  - { offset: 0x2E0AC9, size: 0x8, addend: 0x0, symName: __ZNK2OT13BaseGlyphList8sanitizeEP21hb_sanitize_context_t, symObjAddr: 0x2438, symBinAddr: 0x5C118, symSize: 0x154 }
  - { offset: 0x2E10D6, size: 0x8, addend: 0x0, symName: __ZNK2OT9LayerList8sanitizeEP21hb_sanitize_context_t, symObjAddr: 0x3960, symBinAddr: 0x5D640, symSize: 0x164 }
  - { offset: 0x2E169C, size: 0x8, addend: 0x0, symName: __ZNK2OT8ClipList8sanitizeEP21hb_sanitize_context_t, symObjAddr: 0x3AC4, symBinAddr: 0x5D7A4, symSize: 0x168 }
  - { offset: 0x2E16E2, size: 0x8, addend: 0x0, symName: __ZNK2OT8ClipList8sanitizeEP21hb_sanitize_context_t, symObjAddr: 0x3AC4, symBinAddr: 0x5D7A4, symSize: 0x168 }
  - { offset: 0x2E2B05, size: 0x8, addend: 0x0, symName: __ZNK2OT5Paint8dispatchI21hb_sanitize_context_tJEEENT_8return_tEPS3_DpOT0_, symObjAddr: 0x258C, symBinAddr: 0x5C26C, symSize: 0x488 }
  - { offset: 0x2E2B77, size: 0x8, addend: 0x0, symName: __ZNK2OT5Paint8dispatchI21hb_sanitize_context_tJEEENT_8return_tEPS3_DpOT0_, symObjAddr: 0x258C, symBinAddr: 0x5C26C, symSize: 0x488 }
  - { offset: 0x2E2B9C, size: 0x8, addend: 0x0, symName: __ZNK2OT5Paint8dispatchI21hb_sanitize_context_tJEEENT_8return_tEPS3_DpOT0_, symObjAddr: 0x258C, symBinAddr: 0x5C26C, symSize: 0x488 }
  - { offset: 0x2E2BC1, size: 0x8, addend: 0x0, symName: __ZNK2OT5Paint8dispatchI21hb_sanitize_context_tJEEENT_8return_tEPS3_DpOT0_, symObjAddr: 0x258C, symBinAddr: 0x5C26C, symSize: 0x488 }
  - { offset: 0x2E6508, size: 0x8, addend: 0x0, symName: __ZNK2OT8VariableINS_19PaintLinearGradientIS0_EEE8sanitizeEP21hb_sanitize_context_t, symObjAddr: 0x2A94, symBinAddr: 0x5C774, symSize: 0xE8 }
  - { offset: 0x2E654E, size: 0x8, addend: 0x0, symName: __ZNK2OT8VariableINS_19PaintLinearGradientIS0_EEE8sanitizeEP21hb_sanitize_context_t, symObjAddr: 0x2A94, symBinAddr: 0x5C774, symSize: 0xE8 }
  - { offset: 0x2E6574, size: 0x8, addend: 0x0, symName: __ZNK2OT8VariableINS_19PaintLinearGradientIS0_EEE8sanitizeEP21hb_sanitize_context_t, symObjAddr: 0x2A94, symBinAddr: 0x5C774, symSize: 0xE8 }
  - { offset: 0x2E69CB, size: 0x8, addend: 0x0, symName: __ZNK2OT8VariableINS_19PaintRadialGradientIS0_EEE8sanitizeEP21hb_sanitize_context_t, symObjAddr: 0x2B7C, symBinAddr: 0x5C85C, symSize: 0xE8 }
  - { offset: 0x2E6A11, size: 0x8, addend: 0x0, symName: __ZNK2OT8VariableINS_19PaintRadialGradientIS0_EEE8sanitizeEP21hb_sanitize_context_t, symObjAddr: 0x2B7C, symBinAddr: 0x5C85C, symSize: 0xE8 }
  - { offset: 0x2E6A37, size: 0x8, addend: 0x0, symName: __ZNK2OT8VariableINS_19PaintRadialGradientIS0_EEE8sanitizeEP21hb_sanitize_context_t, symObjAddr: 0x2B7C, symBinAddr: 0x5C85C, symSize: 0xE8 }
  - { offset: 0x2E6E8E, size: 0x8, addend: 0x0, symName: __ZNK2OT8VariableINS_18PaintSweepGradientIS0_EEE8sanitizeEP21hb_sanitize_context_t, symObjAddr: 0x2C64, symBinAddr: 0x5C944, symSize: 0xE8 }
  - { offset: 0x2E6ED4, size: 0x8, addend: 0x0, symName: __ZNK2OT8VariableINS_18PaintSweepGradientIS0_EEE8sanitizeEP21hb_sanitize_context_t, symObjAddr: 0x2C64, symBinAddr: 0x5C944, symSize: 0xE8 }
  - { offset: 0x2E6EFA, size: 0x8, addend: 0x0, symName: __ZNK2OT8VariableINS_18PaintSweepGradientIS0_EEE8sanitizeEP21hb_sanitize_context_t, symObjAddr: 0x2C64, symBinAddr: 0x5C944, symSize: 0xE8 }
  - { offset: 0x2E7351, size: 0x8, addend: 0x0, symName: __ZNK2OT10PaintGlyph8sanitizeEP21hb_sanitize_context_t, symObjAddr: 0x2D4C, symBinAddr: 0x5CA2C, symSize: 0xCC }
  - { offset: 0x2E76EA, size: 0x8, addend: 0x0, symName: __ZNK2OT14PaintTransformINS_10NoVariableEE8sanitizeEP21hb_sanitize_context_t, symObjAddr: 0x2E18, symBinAddr: 0x5CAF8, symSize: 0x14C }
  - { offset: 0x2E7D82, size: 0x8, addend: 0x0, symName: __ZNK2OT14PaintTransformINS_8VariableEE8sanitizeEP21hb_sanitize_context_t, symObjAddr: 0x2F64, symBinAddr: 0x5CC44, symSize: 0x154 }
  - { offset: 0x2E841A, size: 0x8, addend: 0x0, symName: __ZNK2OT14PaintTranslate8sanitizeEP21hb_sanitize_context_t, symObjAddr: 0x30B8, symBinAddr: 0x5CD98, symSize: 0xCC }
  - { offset: 0x2E87B3, size: 0x8, addend: 0x0, symName: __ZNK2OT10PaintScale8sanitizeEP21hb_sanitize_context_t, symObjAddr: 0x3184, symBinAddr: 0x5CE64, symSize: 0xCC }
  - { offset: 0x2E8B4C, size: 0x8, addend: 0x0, symName: __ZNK2OT22PaintScaleAroundCenter8sanitizeEP21hb_sanitize_context_t, symObjAddr: 0x3250, symBinAddr: 0x5CF30, symSize: 0xCC }
  - { offset: 0x2E8EE5, size: 0x8, addend: 0x0, symName: __ZNK2OT17PaintScaleUniform8sanitizeEP21hb_sanitize_context_t, symObjAddr: 0x331C, symBinAddr: 0x5CFFC, symSize: 0xCC }
  - { offset: 0x2E927E, size: 0x8, addend: 0x0, symName: __ZNK2OT29PaintScaleUniformAroundCenter8sanitizeEP21hb_sanitize_context_t, symObjAddr: 0x33E8, symBinAddr: 0x5D0C8, symSize: 0xCC }
  - { offset: 0x2E9617, size: 0x8, addend: 0x0, symName: __ZNK2OT11PaintRotate8sanitizeEP21hb_sanitize_context_t, symObjAddr: 0x34B4, symBinAddr: 0x5D194, symSize: 0xCC }
  - { offset: 0x2E99B0, size: 0x8, addend: 0x0, symName: __ZNK2OT23PaintRotateAroundCenter8sanitizeEP21hb_sanitize_context_t, symObjAddr: 0x3580, symBinAddr: 0x5D260, symSize: 0xCC }
  - { offset: 0x2E9D49, size: 0x8, addend: 0x0, symName: __ZNK2OT9PaintSkew8sanitizeEP21hb_sanitize_context_t, symObjAddr: 0x364C, symBinAddr: 0x5D32C, symSize: 0xCC }
  - { offset: 0x2EA0E2, size: 0x8, addend: 0x0, symName: __ZNK2OT21PaintSkewAroundCenter8sanitizeEP21hb_sanitize_context_t, symObjAddr: 0x3718, symBinAddr: 0x5D3F8, symSize: 0xCC }
  - { offset: 0x2EA47B, size: 0x8, addend: 0x0, symName: __ZNK2OT14PaintComposite8sanitizeEP21hb_sanitize_context_t, symObjAddr: 0x37E4, symBinAddr: 0x5D4C4, symSize: 0x17C }
  - { offset: 0x2ECC35, size: 0x8, addend: 0x0, symName: __ZN21hb_sanitize_context_t13sanitize_blobIN2OT3SVGEEEP9hb_blob_tS4_, symObjAddr: 0x412C, symBinAddr: 0x5D9BC, symSize: 0x374 }
  - { offset: 0x2ED533, size: 0x8, addend: 0x0, symName: __ZN2OT4CBDT13accelerator_tC2EP9hb_face_t, symObjAddr: 0x4580, symBinAddr: 0x5DE10, symSize: 0x13C }
  - { offset: 0x2EDA81, size: 0x8, addend: 0x0, symName: __ZN21hb_sanitize_context_t13sanitize_blobIN2OT4CBLCEEEP9hb_blob_tS4_, symObjAddr: 0x46BC, symBinAddr: 0x5DF4C, symSize: 0x21C }
  - { offset: 0x2EDCB0, size: 0x8, addend: 0x0, symName: __ZN21hb_sanitize_context_t13sanitize_blobIN2OT4CBDTEEEP9hb_blob_tS4_, symObjAddr: 0x4C64, symBinAddr: 0x5E4F4, symSize: 0x260 }
  - { offset: 0x2EDFF3, size: 0x8, addend: 0x0, symName: __ZNK2OT4CBLC8sanitizeEP21hb_sanitize_context_t, symObjAddr: 0x48D8, symBinAddr: 0x5E168, symSize: 0x130 }
  - { offset: 0x2EE5B6, size: 0x8, addend: 0x0, symName: __ZNK2OT15BitmapSizeTable8sanitizeEP21hb_sanitize_context_tPKv, symObjAddr: 0x4A08, symBinAddr: 0x5E298, symSize: 0x134 }
  - { offset: 0x2EEE69, size: 0x8, addend: 0x0, symName: __ZNK2OT19IndexSubtableRecord8sanitizeEP21hb_sanitize_context_tPKv, symObjAddr: 0x4B3C, symBinAddr: 0x5E3CC, symSize: 0x128 }
  - { offset: 0x2EEEBE, size: 0x8, addend: 0x0, symName: __ZNK2OT19IndexSubtableRecord8sanitizeEP21hb_sanitize_context_tPKv, symObjAddr: 0x4B3C, symBinAddr: 0x5E3CC, symSize: 0x128 }
  - { offset: 0x2EFCD0, size: 0x8, addend: 0x0, symName: __ZN21hb_sanitize_context_t13sanitize_blobIN2OT4sbixEEEP9hb_blob_tS4_, symObjAddr: 0x4FA4, symBinAddr: 0x5E834, symSize: 0x21C }
  - { offset: 0x2EFEFF, size: 0x8, addend: 0x0, symName: __ZNK2OT4sbix8sanitizeEP21hb_sanitize_context_t, symObjAddr: 0x51C0, symBinAddr: 0x5EA50, symSize: 0x168 }
  - { offset: 0x2EFF45, size: 0x8, addend: 0x0, symName: __ZNK2OT4sbix8sanitizeEP21hb_sanitize_context_t, symObjAddr: 0x51C0, symBinAddr: 0x5EA50, symSize: 0x168 }
  - { offset: 0x30E339, size: 0x8, addend: 0x0, symName: __ZN12hb_ot_face_t5init0EP9hb_face_t, symObjAddr: 0x0, symBinAddr: 0x5EBB8, symSize: 0x8 }
  - { offset: 0x31022C, size: 0x8, addend: 0x0, symName: __ZN12hb_ot_face_t4finiEv, symObjAddr: 0x8, symBinAddr: 0x5EBC0, symSize: 0x724 }
  - { offset: 0x3132E0, size: 0x8, addend: 0x0, symName: __ZN2OT4cff119accelerator_templ_tIN3CFF25cff1_private_dict_opset_tENS2_31cff1_private_dict_values_base_tINS2_10dict_val_tEEEED2Ev, symObjAddr: 0x870, symBinAddr: 0x5F2E4, symSize: 0x120 }
  - { offset: 0x313800, size: 0x8, addend: 0x0, symName: __ZN2OT4cff219accelerator_templ_tIN3CFF25cff2_private_dict_opset_tENS2_31cff2_private_dict_values_base_tINS2_10dict_val_tEEEED2Ev, symObjAddr: 0xAA8, symBinAddr: 0x5F51C, symSize: 0x120 }
  - { offset: 0x313FA9, size: 0x8, addend: 0x0, symName: __ZN16hb_lazy_loader_tIN2OT18GPOS_accelerator_tE21hb_face_lazy_loader_tIS1_Lj26EE9hb_face_tLj26ES1_E7destroyEPS1_, symObjAddr: 0xE4C, symBinAddr: 0x5F754, symSize: 0x98 }
  - { offset: 0x314AA4, size: 0x8, addend: 0x0, symName: __ZN2OT4cff119accelerator_templ_tIN3CFF25cff1_private_dict_opset_tENS2_31cff1_private_dict_values_base_tINS2_10dict_val_tEEEE5_finiEv, symObjAddr: 0x990, symBinAddr: 0x5F404, symSize: 0x118 }
  - { offset: 0x3150C1, size: 0x8, addend: 0x0, symName: __ZN2OT4cff219accelerator_templ_tIN3CFF25cff2_private_dict_opset_tENS2_31cff2_private_dict_values_base_tINS2_10dict_val_tEEEE5_finiEv, symObjAddr: 0xBC8, symBinAddr: 0x5F63C, symSize: 0x118 }
  - { offset: 0x31793E, size: 0x8, addend: 0x0, symName: __MergedGlobals, symObjAddr: 0x44E420, symBinAddr: 0x1099C0, symSize: 0x0 }
  - { offset: 0x317959, size: 0x8, addend: 0x0, symName: __MergedGlobals, symObjAddr: 0x44E420, symBinAddr: 0x1099C0, symSize: 0x0 }
  - { offset: 0x32D289, size: 0x8, addend: 0x0, symName: __ZN3CFFL20StructAtOffsetOrNullINS_12CFF1FDSelectEJRKN2OT7IntTypeItLj2EEEEEERKT_PKviR21hb_sanitize_context_tDpOT0_, symObjAddr: 0x12AB8, symBinAddr: 0x688E8, symSize: 0xCC }
  - { offset: 0x339568, size: 0x8, addend: 0x0, symName: __ZL14_hb_arabic_u16, symObjAddr: 0x201CC, symBinAddr: 0xE58FC, symSize: 0x0 }
  - { offset: 0x339594, size: 0x8, addend: 0x0, symName: __ZL13_hb_arabic_u8, symObjAddr: 0x2076C, symBinAddr: 0xE5E9C, symSize: 0x0 }
  - { offset: 0x33968E, size: 0x8, addend: 0x0, symName: __ZL20format1_names_msgstr, symObjAddr: 0x20B3C, symBinAddr: 0xE626C, symSize: 0x0 }
  - { offset: 0x33A592, size: 0x8, addend: 0x0, symName: __ZL20format1_names_msgidx, symObjAddr: 0x21278, symBinAddr: 0xE69A8, symSize: 0x0 }
  - { offset: 0x33A5C7, size: 0x8, addend: 0x0, symName: __ZL23cff1_std_strings_msgstr, symObjAddr: 0x21684, symBinAddr: 0xE6DB4, symSize: 0x0 }
  - { offset: 0x33BBF1, size: 0x8, addend: 0x0, symName: __ZL23cff1_std_strings_msgidx, symObjAddr: 0x223F8, symBinAddr: 0xE7B28, symSize: 0x0 }
  - { offset: 0x33BF6C, size: 0x8, addend: 0x0, symName: __ZN3CFF12dict_opset_t9parse_bcdERNS_14byte_str_ref_tE, symObjAddr: 0x106D0, symBinAddr: 0x66B28, symSize: 0x184 }
  - { offset: 0x33D114, size: 0x8, addend: 0x0, symName: _hb_ot_font_set_funcs, symObjAddr: 0x0, symBinAddr: 0x5F7EC, symSize: 0x284 }
  - { offset: 0x33DA27, size: 0x8, addend: 0x0, symName: __ZNK17hb_data_wrapper_tI9hb_face_tLj9EE11call_createI9hb_blob_t22hb_table_lazy_loader_tIN2OT4STATELj9ELb1EEEEPT_v, symObjAddr: 0x2AC, symBinAddr: 0x5FA98, symSize: 0x94 }
  - { offset: 0x33DDA6, size: 0x8, addend: 0x0, symName: __ZN30hb_ot_font_funcs_lazy_loader_t6createEv, symObjAddr: 0xDE8, symBinAddr: 0x60060, symSize: 0x160 }
  - { offset: 0x33DFCE, size: 0x8, addend: 0x0, symName: __ZL19_hb_ot_font_destroyPv, symObjAddr: 0x284, symBinAddr: 0x5FA70, symSize: 0x28 }
  - { offset: 0x33E186, size: 0x8, addend: 0x0, symName: __ZN21hb_sanitize_context_t13sanitize_blobIN2OT4STATEEEP9hb_blob_tS4_, symObjAddr: 0x37C, symBinAddr: 0x5FB2C, symSize: 0x21C }
  - { offset: 0x33E4A6, size: 0x8, addend: 0x0, symName: __ZNK2OT4STAT8sanitizeEP21hb_sanitize_context_t, symObjAddr: 0x598, symBinAddr: 0x5FD48, symSize: 0x1FC }
  - { offset: 0x33F7A1, size: 0x8, addend: 0x0, symName: __ZNK2OT9AxisValue8sanitizeEP21hb_sanitize_context_t, symObjAddr: 0x794, symBinAddr: 0x5FF44, symSize: 0x10C }
  - { offset: 0x33F7E7, size: 0x8, addend: 0x0, symName: __ZNK2OT9AxisValue8sanitizeEP21hb_sanitize_context_t, symObjAddr: 0x794, symBinAddr: 0x5FF44, symSize: 0x10C }
  - { offset: 0x33F80D, size: 0x8, addend: 0x0, symName: __ZNK2OT9AxisValue8sanitizeEP21hb_sanitize_context_t, symObjAddr: 0x794, symBinAddr: 0x5FF44, symSize: 0x10C }
  - { offset: 0x341874, size: 0x8, addend: 0x0, symName: __ZL23hb_ot_get_nominal_glyphP9hb_font_tPvjPjS1_, symObjAddr: 0xF48, symBinAddr: 0x601C0, symSize: 0x1A0 }
  - { offset: 0x342346, size: 0x8, addend: 0x0, symName: __ZL24hb_ot_get_nominal_glyphsP9hb_font_tPvjPKjjPjjS1_, symObjAddr: 0x10E8, symBinAddr: 0x60360, symSize: 0x1BC }
  - { offset: 0x34289E, size: 0x8, addend: 0x0, symName: __ZL25hb_ot_get_variation_glyphP9hb_font_tPvjjPjS1_, symObjAddr: 0x12A4, symBinAddr: 0x6051C, symSize: 0xF8 }
  - { offset: 0x342C26, size: 0x8, addend: 0x0, symName: __ZNK2OT4cmap13accelerator_t19get_variation_glyphEjjPjP10hb_cache_tILj21ELj16ELj8ELb1EE, symObjAddr: 0x4894, symBinAddr: 0x62268, symSize: 0x1A8 }
  - { offset: 0x343063, size: 0x8, addend: 0x0, symName: __ZL24hb_ot_get_font_h_extentsP9hb_font_tPvP17hb_font_extents_tS1_, symObjAddr: 0x139C, symBinAddr: 0x60614, symSize: 0x84 }
  - { offset: 0x343703, size: 0x8, addend: 0x0, symName: __ZL26hb_ot_get_glyph_h_advancesP9hb_font_tPvjPKjjPijS1_, symObjAddr: 0x1420, symBinAddr: 0x60698, symSize: 0x5D8 }
  - { offset: 0x344CA6, size: 0x8, addend: 0x0, symName: __ZNK2OT8HVARVVAR26get_advance_delta_unscaledEjPKijPf, symObjAddr: 0x5E54, symBinAddr: 0x62560, symSize: 0xD4 }
  - { offset: 0x345115, size: 0x8, addend: 0x0, symName: __ZNK3AAT9TrackData12get_trackingEPKvff, symObjAddr: 0x6308, symBinAddr: 0x628CC, symSize: 0x1D4 }
  - { offset: 0x345439, size: 0x8, addend: 0x0, symName: __ZL24hb_ot_get_font_v_extentsP9hb_font_tPvP17hb_font_extents_tS1_, symObjAddr: 0x19F8, symBinAddr: 0x60C70, symSize: 0x68 }
  - { offset: 0x345794, size: 0x8, addend: 0x0, symName: __ZL26hb_ot_get_glyph_v_advancesP9hb_font_tPvjPKjjPijS1_, symObjAddr: 0x1A60, symBinAddr: 0x60CD8, symSize: 0x460 }
  - { offset: 0x346BE0, size: 0x8, addend: 0x0, symName: __ZL24hb_ot_get_glyph_v_originP9hb_font_tPvjPiS2_S1_, symObjAddr: 0x1EC0, symBinAddr: 0x61138, symSize: 0x380 }
  - { offset: 0x3476F1, size: 0x8, addend: 0x0, symName: __ZNK17hb_data_wrapper_tI9hb_face_tLj13EE11call_createI9hb_blob_t22hb_table_lazy_loader_tIN2OT4VORGELj13ELb1EEEEPT_v, symObjAddr: 0x7560, symBinAddr: 0x630CC, symSize: 0x94 }
  - { offset: 0x347903, size: 0x8, addend: 0x0, symName: __ZNK2OT4VVAR23get_vorg_delta_unscaledEjPKijPf, symObjAddr: 0x717C, symBinAddr: 0x62CE8, symSize: 0xD0 }
  - { offset: 0x347F3C, size: 0x8, addend: 0x0, symName: __ZNK2OT18glyf_accelerator_t11get_extentsEP9hb_font_tjP18hb_glyph_extents_t, symObjAddr: 0x724C, symBinAddr: 0x62DB8, symSize: 0x154 }
  - { offset: 0x348202, size: 0x8, addend: 0x0, symName: __ZNK2OT8hmtxvmtxINS_4vmtxENS_4vheaENS_4VVAREE13accelerator_t37get_leading_bearing_with_var_unscaledEP9hb_font_tjPi, symObjAddr: 0x73A0, symBinAddr: 0x62F0C, symSize: 0x1C0 }
  - { offset: 0x349D92, size: 0x8, addend: 0x0, symName: __ZL16hb_ot_draw_glyphP9hb_font_tPvjP15hb_draw_funcs_tS1_S1_, symObjAddr: 0x2240, symBinAddr: 0x614B8, symSize: 0x368 }
  - { offset: 0x34A848, size: 0x8, addend: 0x0, symName: __ZNK2OT18glyf_accelerator_t10get_pointsINS_9glyf_impl14path_builder_tEEEbP9hb_font_tjT_10hb_array_tIKiER17hb_glyf_scratch_t, symObjAddr: 0xD0F8, symBinAddr: 0x63860, symSize: 0x1658 }
  - { offset: 0x34D563, size: 0x8, addend: 0x0, symName: __ZNK16hb_lazy_loader_tIN2OT18cff1_accelerator_tE21hb_face_lazy_loader_tIS1_Lj16EE9hb_face_tLj16ES1_E3getEv, symObjAddr: 0x1191C, symBinAddr: 0x679EC, symSize: 0xE4 }
  - { offset: 0x34D8D3, size: 0x8, addend: 0x0, symName: __ZN2OT4cff219accelerator_templ_tIN3CFF25cff2_private_dict_opset_tENS2_31cff2_private_dict_values_base_tINS2_10dict_val_tEEEEC2EP9hb_face_t, symObjAddr: 0xF024, symBinAddr: 0x6573C, symSize: 0x9B0 }
  - { offset: 0x34FAA1, size: 0x8, addend: 0x0, symName: __ZN12hb_outline_tD1Ev, symObjAddr: 0xD0A4, symBinAddr: 0x6380C, symSize: 0x54 }
  - { offset: 0x34FC3C, size: 0x8, addend: 0x0, symName: __ZN17hb_draw_session_tD1Ev, symObjAddr: 0xCFF8, symBinAddr: 0x63760, symSize: 0xAC }
  - { offset: 0x350532, size: 0x8, addend: 0x0, symName: __ZL17hb_ot_paint_glyphP9hb_font_tPvjP16hb_paint_funcs_tS1_jjS1_, symObjAddr: 0x25A8, symBinAddr: 0x61820, symSize: 0x388 }
  - { offset: 0x351347, size: 0x8, addend: 0x0, symName: __ZNK2OT4COLR11paint_glyphEP9hb_font_tjP16hb_paint_funcs_tPvjjb, symObjAddr: 0x143A0, symBinAddr: 0x6A0B8, symSize: 0x830 }
  - { offset: 0x352EEF, size: 0x8, addend: 0x0, symName: __ZNK2OT4CBDT13accelerator_t11paint_glyphEP9hb_font_tjP16hb_paint_funcs_tPv, symObjAddr: 0x14BD0, symBinAddr: 0x6A8E8, symSize: 0x114 }
  - { offset: 0x353395, size: 0x8, addend: 0x0, symName: __ZNK2OT4sbix13accelerator_t11paint_glyphEP9hb_font_tjP16hb_paint_funcs_tPv, symObjAddr: 0x14CE4, symBinAddr: 0x6A9FC, symSize: 0x140 }
  - { offset: 0x3537DC, size: 0x8, addend: 0x0, symName: __ZL23hb_ot_get_glyph_extentsP9hb_font_tPvjP18hb_glyph_extents_tS1_, symObjAddr: 0x2930, symBinAddr: 0x61BA8, symSize: 0x298 }
  - { offset: 0x3541D9, size: 0x8, addend: 0x0, symName: __ZNK2OT4sbix13accelerator_t15get_png_extentsEP9hb_font_tjP18hb_glyph_extents_tb, symObjAddr: 0x1C6DC, symBinAddr: 0x6E72C, symSize: 0x1DC }
  - { offset: 0x3546DE, size: 0x8, addend: 0x0, symName: __ZNK2OT4CBDT13accelerator_t11get_extentsEP9hb_font_tjP18hb_glyph_extents_tb, symObjAddr: 0x1BB88, symBinAddr: 0x6E4CC, symSize: 0x260 }
  - { offset: 0x355027, size: 0x8, addend: 0x0, symName: __ZNK2OT4COLR11get_extentsEP9hb_font_tjP18hb_glyph_extents_t, symObjAddr: 0x1C8B8, symBinAddr: 0x6E908, symSize: 0x290 }
  - { offset: 0x3559D7, size: 0x8, addend: 0x0, symName: __ZL20hb_ot_get_glyph_nameP9hb_font_tPvjPcjS1_, symObjAddr: 0x2BC8, symBinAddr: 0x61E40, symSize: 0x78 }
  - { offset: 0x355B1E, size: 0x8, addend: 0x0, symName: __ZNK16hb_lazy_loader_tIN2OT18post_accelerator_tE21hb_face_lazy_loader_tIS1_Lj7EE9hb_face_tLj7ES1_E3getEv, symObjAddr: 0x1CD94, symBinAddr: 0x6EDE4, symSize: 0xE8 }
  - { offset: 0x355ECA, size: 0x8, addend: 0x0, symName: __ZNK2OT4post13accelerator_t14get_glyph_nameEjPcj, symObjAddr: 0x1CB48, symBinAddr: 0x6EB98, symSize: 0x114 }
  - { offset: 0x3560AC, size: 0x8, addend: 0x0, symName: __ZNK2OT4cff113accelerator_t14get_glyph_nameEjPcj, symObjAddr: 0x1CC5C, symBinAddr: 0x6ECAC, symSize: 0x138 }
  - { offset: 0x3562B7, size: 0x8, addend: 0x0, symName: __ZL25hb_ot_get_glyph_from_nameP9hb_font_tPvPKciPjS1_, symObjAddr: 0x2C40, symBinAddr: 0x61EB8, symSize: 0x78 }
  - { offset: 0x3563FE, size: 0x8, addend: 0x0, symName: __ZNK2OT4post13accelerator_t19get_glyph_from_nameEPKciPj, symObjAddr: 0x1D5A0, symBinAddr: 0x6F5F0, symSize: 0x338 }
  - { offset: 0x3569B4, size: 0x8, addend: 0x0, symName: __ZNK2OT4cff113accelerator_t19get_glyph_from_nameEPKciPj, symObjAddr: 0x1D8D8, symBinAddr: 0x6F928, symSize: 0x3D8 }
  - { offset: 0x35809C, size: 0x8, addend: 0x0, symName: __ZNK17hb_data_wrapper_tI9hb_face_tLj6EE11call_createI9hb_blob_t22hb_table_lazy_loader_tIN2OT3OS2ELj6ELb1EEEEPT_v, symObjAddr: 0x3F7C, symBinAddr: 0x62098, symSize: 0x94 }
  - { offset: 0x3582BF, size: 0x8, addend: 0x0, symName: __ZN2OT4cmap13accelerator_t21get_glyph_from_symbolINS_12CmapSubtableEXadL_ZNS_L18_hb_symbol_pua_mapEjEEEEbPKvjPj, symObjAddr: 0x3364, symBinAddr: 0x61F30, symSize: 0x6C }
  - { offset: 0x358719, size: 0x8, addend: 0x0, symName: __ZN2OT4cmap13accelerator_t21get_glyph_from_symbolINS_12CmapSubtableEXadL_ZL23_hb_arabic_pua_simp_mapjEEEEbPKvjPj, symObjAddr: 0x33D0, symBinAddr: 0x61F9C, symSize: 0x60 }
  - { offset: 0x3587DF, size: 0x8, addend: 0x0, symName: __ZL23_hb_arabic_pua_simp_mapj, symObjAddr: 0x46AC, symBinAddr: 0x62164, symSize: 0x80 }
  - { offset: 0x3587EB, size: 0x8, addend: 0x0, symName: __ZL23_hb_arabic_pua_simp_mapj, symObjAddr: 0x46AC, symBinAddr: 0x62164, symSize: 0x80 }
  - { offset: 0x35885B, size: 0x8, addend: 0x0, symName: __ZN2OT4cmap13accelerator_t21get_glyph_from_symbolINS_12CmapSubtableEXadL_ZL23_hb_arabic_pua_trad_mapjEEEEbPKvjPj, symObjAddr: 0x3430, symBinAddr: 0x61FFC, symSize: 0x60 }
  - { offset: 0x358921, size: 0x8, addend: 0x0, symName: __ZL23_hb_arabic_pua_trad_mapj, symObjAddr: 0x472C, symBinAddr: 0x621E4, symSize: 0x84 }
  - { offset: 0x35892D, size: 0x8, addend: 0x0, symName: __ZL23_hb_arabic_pua_trad_mapj, symObjAddr: 0x472C, symBinAddr: 0x621E4, symSize: 0x84 }
  - { offset: 0x35BEBB, size: 0x8, addend: 0x0, symName: __ZNK2OT23VariationSelectorRecord9get_glyphEjPjPKv, symObjAddr: 0x4A3C, symBinAddr: 0x62410, symSize: 0x150 }
  - { offset: 0x35BF23, size: 0x8, addend: 0x0, symName: __ZNK2OT23VariationSelectorRecord9get_glyphEjPjPKv, symObjAddr: 0x4A3C, symBinAddr: 0x62410, symSize: 0x150 }
  - { offset: 0x35BF43, size: 0x8, addend: 0x0, symName: __ZNK2OT23VariationSelectorRecord9get_glyphEjPjPKv, symObjAddr: 0x4A3C, symBinAddr: 0x62410, symSize: 0x150 }
  - { offset: 0x35BF6B, size: 0x8, addend: 0x0, symName: __ZNK2OT23VariationSelectorRecord9get_glyphEjPjPKv, symObjAddr: 0x4A3C, symBinAddr: 0x62410, symSize: 0x150 }
  - { offset: 0x35BF8B, size: 0x8, addend: 0x0, symName: __ZNK2OT23VariationSelectorRecord9get_glyphEjPjPKv, symObjAddr: 0x4A3C, symBinAddr: 0x62410, symSize: 0x150 }
  - { offset: 0x35BFAB, size: 0x8, addend: 0x0, symName: __ZNK2OT23VariationSelectorRecord9get_glyphEjPjPKv, symObjAddr: 0x4A3C, symBinAddr: 0x62410, symSize: 0x150 }
  - { offset: 0x36034E, size: 0x8, addend: 0x0, symName: __ZNK2OT16DeltaSetIndexMap3mapEj, symObjAddr: 0x5F28, symBinAddr: 0x62634, symSize: 0xC8 }
  - { offset: 0x360389, size: 0x8, addend: 0x0, symName: __ZNK2OT16DeltaSetIndexMap3mapEj, symObjAddr: 0x5F28, symBinAddr: 0x62634, symSize: 0xC8 }
  - { offset: 0x3603A7, size: 0x8, addend: 0x0, symName: __ZNK2OT16DeltaSetIndexMap3mapEj, symObjAddr: 0x5F28, symBinAddr: 0x62634, symSize: 0xC8 }
  - { offset: 0x36064F, size: 0x8, addend: 0x0, symName: __ZNK2OT7VarData9get_deltaEjPKijRKNS_13VarRegionListEPf, symObjAddr: 0x5FF0, symBinAddr: 0x626FC, symSize: 0x1D0 }
  - { offset: 0x360EC2, size: 0x8, addend: 0x0, symName: __ZNK3AAT15TrackTableEntry9get_valueEfPKv10hb_array_tIKN2OT7HBFixedINS4_7IntTypeIiLj4EEELj16EEEE, symObjAddr: 0x64DC, symBinAddr: 0x62AA0, symSize: 0x13C }
  - { offset: 0x3610C8, size: 0x8, addend: 0x0, symName: __ZNK3AAT15TrackTableEntry14interpolate_atEjfPKv10hb_array_tIKN2OT7HBFixedINS4_7IntTypeIiLj4EEELj16EEEE, symObjAddr: 0x6618, symBinAddr: 0x62BDC, symSize: 0x10C }
  - { offset: 0x36118C, size: 0x8, addend: 0x0, symName: __ZNK3AAT15TrackTableEntry14interpolate_atEjfPKv10hb_array_tIKN2OT7HBFixedINS4_7IntTypeIiLj4EEELj16EEEE, symObjAddr: 0x6618, symBinAddr: 0x62BDC, symSize: 0x10C }
  - { offset: 0x3611AB, size: 0x8, addend: 0x0, symName: __ZNK3AAT15TrackTableEntry14interpolate_atEjfPKv10hb_array_tIKN2OT7HBFixedINS4_7IntTypeIiLj4EEELj16EEEE, symObjAddr: 0x6618, symBinAddr: 0x62BDC, symSize: 0x10C }
  - { offset: 0x3611D3, size: 0x8, addend: 0x0, symName: __ZNK3AAT15TrackTableEntry14interpolate_atEjfPKv10hb_array_tIKN2OT7HBFixedINS4_7IntTypeIiLj4EEELj16EEEE, symObjAddr: 0x6618, symBinAddr: 0x62BDC, symSize: 0x10C }
  - { offset: 0x3611F3, size: 0x8, addend: 0x0, symName: __ZNK3AAT15TrackTableEntry14interpolate_atEjfPKv10hb_array_tIKN2OT7HBFixedINS4_7IntTypeIiLj4EEELj16EEEE, symObjAddr: 0x6618, symBinAddr: 0x62BDC, symSize: 0x10C }
  - { offset: 0x3631EA, size: 0x8, addend: 0x0, symName: __ZNK2OT9glyf_impl11GlyphHeader30get_extents_without_var_scaledINS_18glyf_accelerator_tEEEbP9hb_font_tRKT_jP18hb_glyph_extents_t, symObjAddr: 0xCD64, symBinAddr: 0x634CC, symSize: 0x1C4 }
  - { offset: 0x363895, size: 0x8, addend: 0x0, symName: __ZNK2OT8HVARVVAR22get_lsb_delta_unscaledEjPKijPf, symObjAddr: 0xCF28, symBinAddr: 0x63690, symSize: 0xD0 }
  - { offset: 0x363D67, size: 0x8, addend: 0x0, symName: __ZN21hb_sanitize_context_t13sanitize_blobIN2OT4VORGEEEP9hb_blob_tS4_, symObjAddr: 0x75F4, symBinAddr: 0x63160, symSize: 0x36C }
  - { offset: 0x36C77E, size: 0x8, addend: 0x0, symName: __ZN2OT9glyf_impl14path_builder_t11contour_endEv, symObjAddr: 0xE750, symBinAddr: 0x64EB8, symSize: 0x884 }
  - { offset: 0x36E4D2, size: 0x8, addend: 0x0, symName: __ZN21hb_sanitize_context_t13sanitize_blobIN2OT4cff2EEEP9hb_blob_tS4_, symObjAddr: 0xFF24, symBinAddr: 0x6637C, symSize: 0x23C }
  - { offset: 0x36E801, size: 0x8, addend: 0x0, symName: __ZN3CFF21cff2_top_dict_opset_t10process_opEjRNS_12interp_env_tINS_8number_tEEERNS_22cff2_top_dict_values_tE, symObjAddr: 0x10160, symBinAddr: 0x665B8, symSize: 0x388 }
  - { offset: 0x36EF1D, size: 0x8, addend: 0x0, symName: __ZNK2OT8CFFIndexINS_7IntTypeIjLj4EEEE8sanitizeEP21hb_sanitize_context_t, symObjAddr: 0x10ABC, symBinAddr: 0x66CAC, symSize: 0x134 }
  - { offset: 0x36EF63, size: 0x8, addend: 0x0, symName: __ZNK2OT8CFFIndexINS_7IntTypeIjLj4EEEE8sanitizeEP21hb_sanitize_context_t, symObjAddr: 0x10ABC, symBinAddr: 0x66CAC, symSize: 0x134 }
  - { offset: 0x36F376, size: 0x8, addend: 0x0, symName: __ZN11hb_vector_tIN3CFF31cff2_private_dict_values_base_tINS0_10dict_val_tEEELb0EE6resizeEibb, symObjAddr: 0xF9D4, symBinAddr: 0x660EC, symSize: 0x170 }
  - { offset: 0x36F8CA, size: 0x8, addend: 0x0, symName: __ZN11hb_vector_tIN3CFF23cff2_font_dict_values_tELb0EE6resizeEibb, symObjAddr: 0x1114C, symBinAddr: 0x6733C, symSize: 0x170 }
  - { offset: 0x36FBCC, size: 0x8, addend: 0x0, symName: __ZN3CFF22cff2_font_dict_opset_t10process_opEjRNS_12interp_env_tINS_8number_tEEERNS_23cff2_font_dict_values_tE, symObjAddr: 0x1139C, symBinAddr: 0x6758C, symSize: 0x208 }
  - { offset: 0x370049, size: 0x8, addend: 0x0, symName: __ZN3CFF25cff2_private_dict_opset_t10process_opEjRNS_27cff2_priv_dict_interp_env_tERNS_31cff2_private_dict_values_base_tINS_10dict_val_tEEE, symObjAddr: 0x115A4, symBinAddr: 0x67794, symSize: 0x258 }
  - { offset: 0x3704DF, size: 0x8, addend: 0x0, symName: __ZNK3CFF11FDSelect3_4IN2OT7IntTypeIjLj4EEENS2_ItLj2EEEE8sanitizeEP21hb_sanitize_context_tj, symObjAddr: 0x10E2C, symBinAddr: 0x6701C, symSize: 0x238 }
  - { offset: 0x370531, size: 0x8, addend: 0x0, symName: __ZNK3CFF11FDSelect3_4IN2OT7IntTypeIjLj4EEENS2_ItLj2EEEE8sanitizeEP21hb_sanitize_context_tj, symObjAddr: 0x10E2C, symBinAddr: 0x6701C, symSize: 0x238 }
  - { offset: 0x370D95, size: 0x8, addend: 0x0, symName: __ZNK3CFF11FDSelect3_4IN2OT7IntTypeItLj2EEENS2_IhLj1EEEE8sanitizeEP21hb_sanitize_context_tj, symObjAddr: 0x10C00, symBinAddr: 0x66DF0, symSize: 0x22C }
  - { offset: 0x370DE7, size: 0x8, addend: 0x0, symName: __ZNK3CFF11FDSelect3_4IN2OT7IntTypeItLj2EEENS2_IhLj1EEEE8sanitizeEP21hb_sanitize_context_tj, symObjAddr: 0x10C00, symBinAddr: 0x66DF0, symSize: 0x22C }
  - { offset: 0x3717CC, size: 0x8, addend: 0x0, symName: __ZN11hb_vector_tIN3CFF31cff2_private_dict_values_base_tINS0_10dict_val_tEEELb0EED1Ev, symObjAddr: 0xFE24, symBinAddr: 0x6627C, symSize: 0x80 }
  - { offset: 0x371966, size: 0x8, addend: 0x0, symName: __ZN11hb_vector_tIN3CFF23cff2_font_dict_values_tELb0EED1Ev, symObjAddr: 0xFEA4, symBinAddr: 0x662FC, symSize: 0x80 }
  - { offset: 0x371D90, size: 0x8, addend: 0x0, symName: __ZN11hb_vector_tIN3CFF31cff2_private_dict_values_base_tINS0_10dict_val_tEEELb0EE14realloc_vectorIS3_LPv0EEEPS3_j11hb_priorityILj0EE, symObjAddr: 0x11064, symBinAddr: 0x67254, symSize: 0xE8 }
  - { offset: 0x372753, size: 0x8, addend: 0x0, symName: __ZN3CFF12dict_opset_t10process_opEjRNS_12interp_env_tINS_8number_tEEE, symObjAddr: 0x104E8, symBinAddr: 0x66940, symSize: 0x1E8 }
  - { offset: 0x3736FA, size: 0x8, addend: 0x0, symName: __ZN11hb_vector_tIN3CFF23cff2_font_dict_values_tELb0EE14realloc_vectorIS1_LPv0EEEPS1_j11hb_priorityILj0EE, symObjAddr: 0x112BC, symBinAddr: 0x674AC, symSize: 0xE0 }
  - { offset: 0x37413D, size: 0x8, addend: 0x0, symName: __ZN2OT4cff119accelerator_templ_tIN3CFF25cff1_private_dict_opset_tENS2_31cff1_private_dict_values_base_tINS2_10dict_val_tEEEEC2EP9hb_face_t, symObjAddr: 0x11A00, symBinAddr: 0x67AD0, symSize: 0xBE8 }
  - { offset: 0x3770C3, size: 0x8, addend: 0x0, symName: __ZN21hb_sanitize_context_t13sanitize_blobIN2OT4cff1EEEP9hb_blob_tS4_, symObjAddr: 0x12FD8, symBinAddr: 0x68CF0, symSize: 0x23C }
  - { offset: 0x3773F2, size: 0x8, addend: 0x0, symName: __ZNK2OT8CFFIndexINS_7IntTypeItLj2EEEE8sanitizeEP21hb_sanitize_context_t, symObjAddr: 0x12728, symBinAddr: 0x686D8, symSize: 0x128 }
  - { offset: 0x377438, size: 0x8, addend: 0x0, symName: __ZNK2OT8CFFIndexINS_7IntTypeItLj2EEEE8sanitizeEP21hb_sanitize_context_t, symObjAddr: 0x12728, symBinAddr: 0x686D8, symSize: 0x128 }
  - { offset: 0x377A88, size: 0x8, addend: 0x0, symName: __ZN3CFF21cff1_top_dict_opset_t10process_opEjRNS_26cff1_top_dict_interp_env_tERNS_22cff1_top_dict_values_tE, symObjAddr: 0x13214, symBinAddr: 0x68F2C, symSize: 0x6B4 }
  - { offset: 0x378800, size: 0x8, addend: 0x0, symName: __ZNK3CFF7Charset8sanitizeEP21hb_sanitize_context_tPj, symObjAddr: 0x138C8, symBinAddr: 0x695E0, symSize: 0x14C }
  - { offset: 0x378855, size: 0x8, addend: 0x0, symName: __ZNK3CFF7Charset8sanitizeEP21hb_sanitize_context_tPj, symObjAddr: 0x138C8, symBinAddr: 0x695E0, symSize: 0x14C }
  - { offset: 0x378D9A, size: 0x8, addend: 0x0, symName: __ZNK3CFF8Encoding8sanitizeEP21hb_sanitize_context_t, symObjAddr: 0x13A14, symBinAddr: 0x6972C, symSize: 0x1EC }
  - { offset: 0x378DE0, size: 0x8, addend: 0x0, symName: __ZNK3CFF8Encoding8sanitizeEP21hb_sanitize_context_t, symObjAddr: 0x13A14, symBinAddr: 0x6972C, symSize: 0x1EC }
  - { offset: 0x37957C, size: 0x8, addend: 0x0, symName: __ZNK2OT8CFFIndexINS_7IntTypeItLj2EEEE8get_sizeEv, symObjAddr: 0x12860, symBinAddr: 0x68810, symSize: 0xB8 }
  - { offset: 0x3795A2, size: 0x8, addend: 0x0, symName: __ZNK2OT8CFFIndexINS_7IntTypeItLj2EEEE8get_sizeEv, symObjAddr: 0x12860, symBinAddr: 0x68810, symSize: 0xB8 }
  - { offset: 0x3795C0, size: 0x8, addend: 0x0, symName: __ZNK2OT8CFFIndexINS_7IntTypeItLj2EEEE8get_sizeEv, symObjAddr: 0x12860, symBinAddr: 0x68810, symSize: 0xB8 }
  - { offset: 0x37972E, size: 0x8, addend: 0x0, symName: __ZN11hb_vector_tIN3CFF31cff1_private_dict_values_base_tINS0_10dict_val_tEEELb0EE6resizeEibb, symObjAddr: 0x12B84, symBinAddr: 0x689B4, symSize: 0x170 }
  - { offset: 0x379A34, size: 0x8, addend: 0x0, symName: __ZN11hb_vector_tIN3CFF23cff1_font_dict_values_tELb0EE6resizeEibb, symObjAddr: 0x13CE0, symBinAddr: 0x699F8, symSize: 0x170 }
  - { offset: 0x379D3A, size: 0x8, addend: 0x0, symName: __ZN3CFF22cff1_font_dict_opset_t10process_opEjRNS_12interp_env_tINS_8number_tEEERNS_23cff1_font_dict_values_tE, symObjAddr: 0x13F30, symBinAddr: 0x69C48, symSize: 0x290 }
  - { offset: 0x37A2CA, size: 0x8, addend: 0x0, symName: __ZN3CFF25cff1_private_dict_opset_t10process_opEjRNS_12interp_env_tINS_8number_tEEERNS_31cff1_private_dict_values_base_tINS_10dict_val_tEEE, symObjAddr: 0x141C0, symBinAddr: 0x69ED8, symSize: 0x1E0 }
  - { offset: 0x37A6A1, size: 0x8, addend: 0x0, symName: __ZN3CFF18dict_interpreter_tINS_25cff1_private_dict_opset_tENS_31cff1_private_dict_values_base_tINS_10dict_val_tEEENS_12interp_env_tINS_8number_tEEEE9interpretERS4_, symObjAddr: 0x12CF4, symBinAddr: 0x68B24, symSize: 0xCC }
  - { offset: 0x37A90C, size: 0x8, addend: 0x0, symName: __ZN11hb_vector_tIN3CFF31cff1_private_dict_values_base_tINS0_10dict_val_tEEELb0EED1Ev, symObjAddr: 0x12ED8, symBinAddr: 0x68BF0, symSize: 0x80 }
  - { offset: 0x37AAA8, size: 0x8, addend: 0x0, symName: __ZN11hb_vector_tIN3CFF23cff1_font_dict_values_tELb0EED1Ev, symObjAddr: 0x12F58, symBinAddr: 0x68C70, symSize: 0x80 }
  - { offset: 0x37AF8F, size: 0x8, addend: 0x0, symName: __ZN11hb_vector_tIN3CFF31cff1_private_dict_values_base_tINS0_10dict_val_tEEELb0EE14realloc_vectorIS3_LPv0EEEPS3_j11hb_priorityILj0EE, symObjAddr: 0x13C00, symBinAddr: 0x69918, symSize: 0xE0 }
  - { offset: 0x37BE69, size: 0x8, addend: 0x0, symName: __ZN11hb_vector_tIN3CFF23cff1_font_dict_values_tELb0EE14realloc_vectorIS1_LPv0EEEPS1_j11hb_priorityILj0EE, symObjAddr: 0x13E50, symBinAddr: 0x69B68, symSize: 0xE0 }
  - { offset: 0x37EB40, size: 0x8, addend: 0x0, symName: __ZN2OT18hb_paint_context_tC2EPKvP16hb_paint_funcs_tPvP9hb_font_tjjRNS_21ItemVarStoreInstancerE, symObjAddr: 0x16CA4, symBinAddr: 0x6AC2C, symSize: 0x15C }
  - { offset: 0x37F346, size: 0x8, addend: 0x0, symName: __ZNK2OT8ClipList11get_extentsEjP18hb_glyph_extents_tRKNS_21ItemVarStoreInstancerE, symObjAddr: 0x17330, symBinAddr: 0x6AD88, symSize: 0x15C }
  - { offset: 0x37F805, size: 0x8, addend: 0x0, symName: __ZN26hb_paint_extents_context_tC2Ev, symObjAddr: 0x176A0, symBinAddr: 0x6B0F8, symSize: 0x1A8 }
  - { offset: 0x37FB70, size: 0x8, addend: 0x0, symName: __ZNK2OT5Paint8dispatchINS_18hb_paint_context_tEJEEENT_8return_tEPS3_DpOT0_, symObjAddr: 0x17848, symBinAddr: 0x6B2A0, symSize: 0x13C }
  - { offset: 0x37FBB4, size: 0x8, addend: 0x0, symName: __ZNK2OT5Paint8dispatchINS_18hb_paint_context_tEJEEENT_8return_tEPS3_DpOT0_, symObjAddr: 0x17848, symBinAddr: 0x6B2A0, symSize: 0x13C }
  - { offset: 0x37FBD2, size: 0x8, addend: 0x0, symName: __ZNK2OT5Paint8dispatchINS_18hb_paint_context_tEJEEENT_8return_tEPS3_DpOT0_, symObjAddr: 0x17848, symBinAddr: 0x6B2A0, symSize: 0x13C }
  - { offset: 0x380918, size: 0x8, addend: 0x0, symName: __ZN26hb_paint_extents_context_tD1Ev, symObjAddr: 0x16C34, symBinAddr: 0x6ABBC, symSize: 0x70 }
  - { offset: 0x38BAAA, size: 0x8, addend: 0x0, symName: __ZNK2OT14ClipBoxFormat212get_clip_boxERNS_11ClipBoxDataERKNS_21ItemVarStoreInstancerE, symObjAddr: 0x1748C, symBinAddr: 0x6AEE4, symSize: 0x168 }
  - { offset: 0x38BE2E, size: 0x8, addend: 0x0, symName: __ZNK2OT21ItemVarStoreInstancerclEjt, symObjAddr: 0x175F4, symBinAddr: 0x6B04C, symSize: 0xAC }
  - { offset: 0x38CE56, size: 0x8, addend: 0x0, symName: __ZNK2OT15PaintColrLayers11paint_glyphEPNS_18hb_paint_context_tE, symObjAddr: 0x17984, symBinAddr: 0x6B3DC, symSize: 0x238 }
  - { offset: 0x38D3B7, size: 0x8, addend: 0x0, symName: __ZNK2OT10PaintSolid11paint_glyphEPNS_18hb_paint_context_tEj, symObjAddr: 0x17BBC, symBinAddr: 0x6B614, symSize: 0x150 }
  - { offset: 0x38D62A, size: 0x8, addend: 0x0, symName: __ZNK2OT19PaintLinearGradientINS_10NoVariableEE11paint_glyphEPNS_18hb_paint_context_tEj, symObjAddr: 0x17D0C, symBinAddr: 0x6B764, symSize: 0x204 }
  - { offset: 0x38D950, size: 0x8, addend: 0x0, symName: __ZNK2OT19PaintLinearGradientINS_8VariableEE11paint_glyphEPNS_18hb_paint_context_tEj, symObjAddr: 0x1816C, symBinAddr: 0x6BBC4, symSize: 0x204 }
  - { offset: 0x38DC76, size: 0x8, addend: 0x0, symName: __ZNK2OT19PaintRadialGradientINS_10NoVariableEE11paint_glyphEPNS_18hb_paint_context_tEj, symObjAddr: 0x1846C, symBinAddr: 0x6BEC4, symSize: 0x1FC }
  - { offset: 0x38DF9C, size: 0x8, addend: 0x0, symName: __ZNK2OT19PaintRadialGradientINS_8VariableEE11paint_glyphEPNS_18hb_paint_context_tEj, symObjAddr: 0x18668, symBinAddr: 0x6C0C0, symSize: 0x1FC }
  - { offset: 0x38E2C2, size: 0x8, addend: 0x0, symName: __ZNK2OT18PaintSweepGradientINS_10NoVariableEE11paint_glyphEPNS_18hb_paint_context_tEj, symObjAddr: 0x18864, symBinAddr: 0x6C2BC, symSize: 0x1C4 }
  - { offset: 0x38E554, size: 0x8, addend: 0x0, symName: __ZNK2OT18PaintSweepGradientINS_8VariableEE11paint_glyphEPNS_18hb_paint_context_tEj, symObjAddr: 0x18A28, symBinAddr: 0x6C480, symSize: 0x1C4 }
  - { offset: 0x38E7E6, size: 0x8, addend: 0x0, symName: __ZNK2OT10PaintGlyph11paint_glyphEPNS_18hb_paint_context_tE, symObjAddr: 0x18BEC, symBinAddr: 0x6C644, symSize: 0x280 }
  - { offset: 0x38EC85, size: 0x8, addend: 0x0, symName: __ZNK2OT14PaintColrGlyph11paint_glyphEPNS_18hb_paint_context_tE, symObjAddr: 0x18E6C, symBinAddr: 0x6C8C4, symSize: 0x348 }
  - { offset: 0x38F3BB, size: 0x8, addend: 0x0, symName: __ZNK2OT14PaintTransformINS_10NoVariableEE11paint_glyphEPNS_18hb_paint_context_tE, symObjAddr: 0x191B4, symBinAddr: 0x6CC0C, symSize: 0xD8 }
  - { offset: 0x38F615, size: 0x8, addend: 0x0, symName: __ZNK2OT14PaintTransformINS_8VariableEE11paint_glyphEPNS_18hb_paint_context_tE, symObjAddr: 0x194E4, symBinAddr: 0x6CF3C, symSize: 0xDC }
  - { offset: 0x38F8B0, size: 0x8, addend: 0x0, symName: __ZNK2OT14PaintTranslate11paint_glyphEPNS_18hb_paint_context_tEj, symObjAddr: 0x195C0, symBinAddr: 0x6D018, symSize: 0x168 }
  - { offset: 0x38FBB4, size: 0x8, addend: 0x0, symName: __ZNK2OT10PaintScale11paint_glyphEPNS_18hb_paint_context_tEj, symObjAddr: 0x19728, symBinAddr: 0x6D180, symSize: 0x17C }
  - { offset: 0x38FEC4, size: 0x8, addend: 0x0, symName: __ZNK2OT22PaintScaleAroundCenter11paint_glyphEPNS_18hb_paint_context_tEj, symObjAddr: 0x198A4, symBinAddr: 0x6D2FC, symSize: 0x2C4 }
  - { offset: 0x390484, size: 0x8, addend: 0x0, symName: __ZNK2OT17PaintScaleUniform11paint_glyphEPNS_18hb_paint_context_tEj, symObjAddr: 0x19B68, symBinAddr: 0x6D5C0, symSize: 0x13C }
  - { offset: 0x39071B, size: 0x8, addend: 0x0, symName: __ZNK2OT29PaintScaleUniformAroundCenter11paint_glyphEPNS_18hb_paint_context_tEj, symObjAddr: 0x19CA4, symBinAddr: 0x6D6FC, symSize: 0x27C }
  - { offset: 0x390C48, size: 0x8, addend: 0x0, symName: __ZNK2OT10NoVariableINS_11PaintRotateEE11paint_glyphEPNS_18hb_paint_context_tE, symObjAddr: 0x19F20, symBinAddr: 0x6D978, symSize: 0x150 }
  - { offset: 0x390EEE, size: 0x8, addend: 0x0, symName: __ZNK2OT8VariableINS_11PaintRotateEE11paint_glyphEPNS_18hb_paint_context_tE, symObjAddr: 0x1A070, symBinAddr: 0x6DAC8, symSize: 0x168 }
  - { offset: 0x3911EB, size: 0x8, addend: 0x0, symName: __ZNK2OT23PaintRotateAroundCenter11paint_glyphEPNS_18hb_paint_context_tEj, symObjAddr: 0x1A1D8, symBinAddr: 0x6DC30, symSize: 0x29C }
  - { offset: 0x39173A, size: 0x8, addend: 0x0, symName: __ZNK2OT9PaintSkew11paint_glyphEPNS_18hb_paint_context_tEj, symObjAddr: 0x1A474, symBinAddr: 0x6DECC, symSize: 0x1C0 }
  - { offset: 0x391A95, size: 0x8, addend: 0x0, symName: __ZNK2OT21PaintSkewAroundCenter11paint_glyphEPNS_18hb_paint_context_tEj, symObjAddr: 0x1A634, symBinAddr: 0x6E08C, symSize: 0x31C }
  - { offset: 0x39209B, size: 0x8, addend: 0x0, symName: __ZNK2OT14PaintComposite11paint_glyphEPNS_18hb_paint_context_tE, symObjAddr: 0x1A950, symBinAddr: 0x6E3A8, symSize: 0x124 }
  - { offset: 0x3925EE, size: 0x8, addend: 0x0, symName: __ZN2OT9ColorLineINS_10NoVariableEE22static_get_color_stopsEP15hb_color_line_tPvjPjP15hb_color_stop_tS5_, symObjAddr: 0x17F10, symBinAddr: 0x6B968, symSize: 0xF0 }
  - { offset: 0x3927F1, size: 0x8, addend: 0x0, symName: __ZNK2OT9ColorStop14get_color_stopEPNS_18hb_paint_context_tEP15hb_color_stop_tjRKNS_21ItemVarStoreInstancerE, symObjAddr: 0x18008, symBinAddr: 0x6BA60, symSize: 0x164 }
  - { offset: 0x392A9D, size: 0x8, addend: 0x0, symName: __ZN2OT9ColorLineINS_10NoVariableEE17static_get_extendEP15hb_color_line_tPvS5_, symObjAddr: 0x18000, symBinAddr: 0x6BA58, symSize: 0x8 }
  - { offset: 0x392AF3, size: 0x8, addend: 0x0, symName: __ZN2OT9ColorLineINS_10NoVariableEE17static_get_extendEP15hb_color_line_tPvS5_, symObjAddr: 0x18000, symBinAddr: 0x6BA58, symSize: 0x8 }
  - { offset: 0x392B11, size: 0x8, addend: 0x0, symName: __ZN2OT9ColorLineINS_10NoVariableEE17static_get_extendEP15hb_color_line_tPvS5_, symObjAddr: 0x18000, symBinAddr: 0x6BA58, symSize: 0x8 }
  - { offset: 0x392B2F, size: 0x8, addend: 0x0, symName: __ZN2OT9ColorLineINS_10NoVariableEE17static_get_extendEP15hb_color_line_tPvS5_, symObjAddr: 0x18000, symBinAddr: 0x6BA58, symSize: 0x8 }
  - { offset: 0x392C5B, size: 0x8, addend: 0x0, symName: __ZN2OT9ColorLineINS_8VariableEE22static_get_color_stopsEP15hb_color_line_tPvjPjP15hb_color_stop_tS5_, symObjAddr: 0x18370, symBinAddr: 0x6BDC8, symSize: 0xF4 }
  - { offset: 0x392EB5, size: 0x8, addend: 0x0, symName: __ZN2OT9ColorLineINS_8VariableEE17static_get_extendEP15hb_color_line_tPvS5_, symObjAddr: 0x18464, symBinAddr: 0x6BEBC, symSize: 0x8 }
  - { offset: 0x392F0B, size: 0x8, addend: 0x0, symName: __ZN2OT9ColorLineINS_8VariableEE17static_get_extendEP15hb_color_line_tPvS5_, symObjAddr: 0x18464, symBinAddr: 0x6BEBC, symSize: 0x8 }
  - { offset: 0x392F29, size: 0x8, addend: 0x0, symName: __ZN2OT9ColorLineINS_8VariableEE17static_get_extendEP15hb_color_line_tPvS5_, symObjAddr: 0x18464, symBinAddr: 0x6BEBC, symSize: 0x8 }
  - { offset: 0x392F47, size: 0x8, addend: 0x0, symName: __ZN2OT9ColorLineINS_8VariableEE17static_get_extendEP15hb_color_line_tPvS5_, symObjAddr: 0x18464, symBinAddr: 0x6BEBC, symSize: 0x8 }
  - { offset: 0x393188, size: 0x8, addend: 0x0, symName: __ZNK2OT9Affine2x311paint_glyphEPNS_18hb_paint_context_tEj, symObjAddr: 0x1928C, symBinAddr: 0x6CCE4, symSize: 0x258 }
  - { offset: 0x3973BF, size: 0x8, addend: 0x0, symName: __ZNK3CFF7Charset7get_sidEjjPNS_11code_pair_tE, symObjAddr: 0x1D434, symBinAddr: 0x6F484, symSize: 0x16C }
  - { offset: 0x39788D, size: 0x8, addend: 0x0, symName: __ZN2OT4post13accelerator_tC2EP9hb_face_t, symObjAddr: 0x1CE7C, symBinAddr: 0x6EECC, symSize: 0x2E8 }
  - { offset: 0x398278, size: 0x8, addend: 0x0, symName: __ZN21hb_sanitize_context_t13sanitize_blobIN2OT4postEEEP9hb_blob_tS4_, symObjAddr: 0x1D164, symBinAddr: 0x6F1B4, symSize: 0x21C }
  - { offset: 0x3984A7, size: 0x8, addend: 0x0, symName: __ZNK2OT4post8sanitizeEP21hb_sanitize_context_t, symObjAddr: 0x1D380, symBinAddr: 0x6F3D0, symSize: 0xB4 }
  - { offset: 0x3984ED, size: 0x8, addend: 0x0, symName: __ZNK2OT4post8sanitizeEP21hb_sanitize_context_t, symObjAddr: 0x1D380, symBinAddr: 0x6F3D0, symSize: 0xB4 }
  - { offset: 0x398513, size: 0x8, addend: 0x0, symName: __ZNK2OT4post8sanitizeEP21hb_sanitize_context_t, symObjAddr: 0x1D380, symBinAddr: 0x6F3D0, symSize: 0xB4 }
  - { offset: 0x398B93, size: 0x8, addend: 0x0, symName: __ZL13sort_r_simpleIJPvEEvS0_mmPFiPKvS2_DpT_ES4_, symObjAddr: 0x1DE80, symBinAddr: 0x6FED0, symSize: 0xBAC }
  - { offset: 0x39A2A1, size: 0x8, addend: 0x0, symName: __ZL13sort_r_simpleIJEEvPvmmPFiPKvS2_DpT_ES4_, symObjAddr: 0x1EA68, symBinAddr: 0x70AB8, symSize: 0xE70 }
  - { offset: 0x39A79C, size: 0x8, addend: 0x0, symName: __ZN2OT4post13accelerator_t8cmp_gidsEPKvS3_Pv, symObjAddr: 0x1DCB0, symBinAddr: 0x6FD00, symSize: 0x1D0 }
  - { offset: 0x39AC85, size: 0x8, addend: 0x0, symName: __ZN2OT4cff113accelerator_t7gname_t3cmpEPKvS4_, symObjAddr: 0x1EA2C, symBinAddr: 0x70A7C, symSize: 0x3C }
  - { offset: 0x39FA37, size: 0x8, addend: 0x0, symName: __ZL6hb_add, symObjAddr: 0x40760, symBinAddr: 0xE8184, symSize: 0x0 }
  - { offset: 0x3A01E3, size: 0x8, addend: 0x0, symName: __ZL9hb_second, symObjAddr: 0x40761, symBinAddr: 0xE8185, symSize: 0x0 }
  - { offset: 0x3A027E, size: 0x8, addend: 0x0, symName: __ZL11hb_identity, symObjAddr: 0x40762, symBinAddr: 0xE8186, symSize: 0x0 }
  - { offset: 0x3A06D7, size: 0x8, addend: 0x0, symName: __ZL8hb_first, symObjAddr: 0x40763, symBinAddr: 0xE8187, symSize: 0x0 }
  - { offset: 0x3A625C, size: 0x8, addend: 0x0, symName: __ZN2OT6Layout9GPOS_implL28reverse_cursive_minor_offsetEP19hb_glyph_position_tj14hb_direction_tj, symObjAddr: 0x3CBA0, symBinAddr: 0xA5278, symSize: 0xD4 }
  - { offset: 0x3A6303, size: 0x8, addend: 0x0, symName: __ZN2OT6LayoutL28propagate_attachment_offsetsEP19hb_glyph_position_tjj14hb_direction_tj, symObjAddr: 0x26D34, symBinAddr: 0x93EF8, symSize: 0x278 }
  - { offset: 0x3B57E9, size: 0x8, addend: 0x0, symName: __ZN2OTL13collect_glyphEP8hb_set_tjPKv, symObjAddr: 0x14B6C, symBinAddr: 0x821CC, symSize: 0x4 }
  - { offset: 0x3B5816, size: 0x8, addend: 0x0, symName: __ZN2OTL13collect_glyphEP8hb_set_tjPKv, symObjAddr: 0x14B6C, symBinAddr: 0x821CC, symSize: 0x4 }
  - { offset: 0x3B5987, size: 0x8, addend: 0x0, symName: __ZN2OTL13collect_classEP8hb_set_tjPKv, symObjAddr: 0x1533C, symBinAddr: 0x8299C, symSize: 0x14 }
  - { offset: 0x3B621F, size: 0x8, addend: 0x0, symName: __ZN2OTL11match_glyphER15hb_glyph_info_tjPKv, symObjAddr: 0x1B114, symBinAddr: 0x88600, symSize: 0x10 }
  - { offset: 0x3B62EF, size: 0x8, addend: 0x0, symName: __ZN2OTL11match_classER15hb_glyph_info_tjPKv, symObjAddr: 0x1B53C, symBinAddr: 0x88A28, symSize: 0x11C }
  - { offset: 0x3B6768, size: 0x8, addend: 0x0, symName: __ZN2OTL14match_coverageER15hb_glyph_info_tjPKv, symObjAddr: 0x1B658, symBinAddr: 0x88B44, symSize: 0x38 }
  - { offset: 0x3B6905, size: 0x8, addend: 0x0, symName: __ZN2OTL16intersects_glyphEPK8hb_set_tjPKvPv, symObjAddr: 0x217F4, symBinAddr: 0x8EB7C, symSize: 0xCC }
  - { offset: 0x3B6A1F, size: 0x8, addend: 0x0, symName: __ZN2OTL16intersects_glyphEPK8hb_set_tjPKvPv, symObjAddr: 0x217F4, symBinAddr: 0x8EB7C, symSize: 0xCC }
  - { offset: 0x3B6C2F, size: 0x8, addend: 0x0, symName: __ZN2OTL17intersected_glyphEPK8hb_set_tPKvjPS0_Pv, symObjAddr: 0x218C0, symBinAddr: 0x8EC48, symSize: 0x10 }
  - { offset: 0x3B6E46, size: 0x8, addend: 0x0, symName: __ZN2OTL31context_closure_recurse_lookupsINS_7IntTypeItLj2EEEEEvPNS_20hb_closure_context_tEjPKT_jPKNS_12LookupRecordEjNS_13ContextFormatEPKvPFvPK8hb_set_tSD_jPSE_PvESI_, symObjAddr: 0x21CD8, symBinAddr: 0x8F060, symSize: 0x4A8 }
  - { offset: 0x3B819A, size: 0x8, addend: 0x0, symName: __ZN2OTL16intersects_classEPK8hb_set_tjPKvPv, symObjAddr: 0x22DB8, symBinAddr: 0x8FF7C, symSize: 0x144 }
  - { offset: 0x3B8429, size: 0x8, addend: 0x0, symName: __ZN2OTL24intersected_class_glyphsEPK8hb_set_tPKvjPS0_Pv, symObjAddr: 0x22EFC, symBinAddr: 0x900C0, symSize: 0x190 }
  - { offset: 0x3B8A26, size: 0x8, addend: 0x0, symName: __ZN2OTL27intersected_coverage_glyphsEPK8hb_set_tPKvjPS0_Pv, symObjAddr: 0x24DE4, symBinAddr: 0x91FA8, symSize: 0x4C }
  - { offset: 0x3B9149, size: 0x8, addend: 0x0, symName: __ZN2OTL12ligate_inputEPNS_21hb_ot_apply_context_tEjPKjjjj, symObjAddr: 0x30880, symBinAddr: 0x99DA4, symSize: 0x488 }
  - { offset: 0x3B9674, size: 0x8, addend: 0x0, symName: __ZN2OTL12match_alwaysER15hb_glyph_info_tjPKv, symObjAddr: 0x30878, symBinAddr: 0x99D9C, symSize: 0x8 }
  - { offset: 0x3B98D8, size: 0x8, addend: 0x0, symName: __ZN2OTL12apply_lookupEPNS_21hb_ot_apply_context_tEjPjjPKNS_12LookupRecordEj, symObjAddr: 0x321B4, symBinAddr: 0x9B4D0, symSize: 0x53C }
  - { offset: 0x3B9CD5, size: 0x8, addend: 0x0, symName: __ZN2OTL18match_class_cachedER15hb_glyph_info_tjPKv, symObjAddr: 0x32AE8, symBinAddr: 0x9BE04, symSize: 0x15C }
  - { offset: 0x3BA3FC, size: 0x8, addend: 0x0, symName: __ZN2OTL19match_class_cached1ER15hb_glyph_info_tjPKv, symObjAddr: 0x35030, symBinAddr: 0x9E34C, symSize: 0x154 }
  - { offset: 0x3BA8C1, size: 0x8, addend: 0x0, symName: __ZN2OTL19match_class_cached2ER15hb_glyph_info_tjPKv, symObjAddr: 0x35184, symBinAddr: 0x9E4A0, symSize: 0x150 }
  - { offset: 0x3D2AAB, size: 0x8, addend: 0x0, symName: __ZNK3AAT9KerxTableIN2OT6KernOTEE5applyEPNS_22hb_aat_apply_context_tERK11hb_vector_tI9hb_pair_tI12hb_bit_set_tS8_ELb0EE, symObjAddr: 0x83E0, symBinAddr: 0x79A0C, symSize: 0x480 }
  - { offset: 0x3D33D9, size: 0x8, addend: 0x0, symName: __ZNK3AAT9KerxTableIN2OT7KernAATEE5applyEPNS_22hb_aat_apply_context_tERK11hb_vector_tI9hb_pair_tI12hb_bit_set_tS8_ELb0EE, symObjAddr: 0xD1B0, symBinAddr: 0x7BF14, symSize: 0x488 }
  - { offset: 0x3D6578, size: 0x8, addend: 0x0, symName: __ZNK2OT24FeatureTableSubstitution15collect_lookupsEPK8hb_set_tPS1_, symObjAddr: 0x124B0, symBinAddr: 0x7FCB0, symSize: 0x248 }
  - { offset: 0x3D721F, size: 0x8, addend: 0x0, symName: __ZNK2OT6Layout9GSUB_impl20SingleSubstFormat1_3INS0_10SmallTypesEE14collect_glyphsEPNS_27hb_collect_glyphs_context_tE, symObjAddr: 0x12C54, symBinAddr: 0x802B4, symSize: 0x2E8 }
  - { offset: 0x3D9EEF, size: 0x8, addend: 0x0, symName: __ZNK2OT6Layout9GSUB_impl22MultipleSubstFormat1_2INS0_10SmallTypesEE14collect_glyphsEPNS_27hb_collect_glyphs_context_tE, symObjAddr: 0x136E0, symBinAddr: 0x80D40, symSize: 0x1E8 }
  - { offset: 0x3DB8D9, size: 0x8, addend: 0x0, symName: __ZNK2OT6Layout9GSUB_impl23AlternateSubstFormat1_2INS0_10SmallTypesEE14collect_glyphsEPNS_27hb_collect_glyphs_context_tE, symObjAddr: 0x13C70, symBinAddr: 0x812D0, symSize: 0x1E8 }
  - { offset: 0x3DD9AF, size: 0x8, addend: 0x0, symName: __ZNK2OT6Layout9GSUB_impl22LigatureSubstFormat1_2INS0_10SmallTypesEE14collect_glyphsEPNS_27hb_collect_glyphs_context_tE, symObjAddr: 0x13F58, symBinAddr: 0x815B8, symSize: 0xB14 }
  - { offset: 0x3E0609, size: 0x8, addend: 0x0, symName: __ZNK2OT7RuleSetINS_6Layout10SmallTypesEE14collect_glyphsEPNS_27hb_collect_glyphs_context_tERNS_33ContextCollectGlyphsLookupContextE, symObjAddr: 0x14B70, symBinAddr: 0x821D0, symSize: 0x64C }
  - { offset: 0x3E2C50, size: 0x8, addend: 0x0, symName: __ZNK2OT21ChainContextFormat1_4INS_6Layout10SmallTypesEE14collect_glyphsEPNS_27hb_collect_glyphs_context_tE, symObjAddr: 0x15420, symBinAddr: 0x82A80, symSize: 0x1358 }
  - { offset: 0x3E6493, size: 0x8, addend: 0x0, symName: __ZNK2OT21ChainContextFormat2_5INS_6Layout10SmallTypesEE14collect_glyphsEPNS_27hb_collect_glyphs_context_tE, symObjAddr: 0x16778, symBinAddr: 0x83DD8, symSize: 0x34F8 }
  - { offset: 0x3F0205, size: 0x8, addend: 0x0, symName: __ZNK2OT6Layout9GSUB_impl20SingleSubstFormat1_3INS0_10SmallTypesEE7closureEPNS_20hb_closure_context_tE, symObjAddr: 0x1E0B4, symBinAddr: 0x8B43C, symSize: 0x410 }
  - { offset: 0x3F31C1, size: 0x8, addend: 0x0, symName: __ZNK2OT6Layout9GSUB_impl22MultipleSubstFormat1_2INS0_10SmallTypesEE7closureEPNS_20hb_closure_context_tE, symObjAddr: 0x1FB14, symBinAddr: 0x8CE9C, symSize: 0x56C }
  - { offset: 0x3F575E, size: 0x8, addend: 0x0, symName: __ZNK2OT6Layout9GSUB_impl23AlternateSubstFormat1_2INS0_10SmallTypesEE7closureEPNS_20hb_closure_context_tE, symObjAddr: 0x20080, symBinAddr: 0x8D408, symSize: 0x56C }
  - { offset: 0x3F7D88, size: 0x8, addend: 0x0, symName: __ZNK2OT6Layout9GSUB_impl22LigatureSubstFormat1_2INS0_10SmallTypesEE7closureEPNS_20hb_closure_context_tE, symObjAddr: 0x205EC, symBinAddr: 0x8D974, symSize: 0xB14 }
  - { offset: 0x3FADBD, size: 0x8, addend: 0x0, symName: __ZNK2OT16ContextFormat1_4INS_6Layout10SmallTypesEE7closureEPNS_20hb_closure_context_tE, symObjAddr: 0x21100, symBinAddr: 0x8E488, symSize: 0x6F4 }
  - { offset: 0x3FD1D9, size: 0x8, addend: 0x0, symName: __ZNK2OT7RuleSetINS_6Layout10SmallTypesEE7closureEPNS_20hb_closure_context_tEjRNS_27ContextClosureLookupContextE, symObjAddr: 0x21B5C, symBinAddr: 0x8EEE4, symSize: 0x17C }
  - { offset: 0x3FD94E, size: 0x8, addend: 0x0, symName: __ZNK2OT6Layout6Common17CoverageFormat2_4INS0_10SmallTypesEE10intersectsEPK8hb_set_t, symObjAddr: 0x2333C, symBinAddr: 0x90500, symSize: 0x248 }
  - { offset: 0x402394, size: 0x8, addend: 0x0, symName: __ZNK2OT16ContextFormat2_5INS_6Layout10SmallTypesEE7closureEPNS_20hb_closure_context_tE, symObjAddr: 0x224C0, symBinAddr: 0x8F684, symSize: 0x8F8 }
  - { offset: 0x404A2C, size: 0x8, addend: 0x0, symName: __ZNK2OT21ChainContextFormat1_4INS_6Layout10SmallTypesEE7closureEPNS_20hb_closure_context_tE, symObjAddr: 0x24E30, symBinAddr: 0x91FF4, symSize: 0xA5C }
  - { offset: 0x40880A, size: 0x8, addend: 0x0, symName: __ZNK2OT21ChainContextFormat2_5INS_6Layout10SmallTypesEE7closureEPNS_20hb_closure_context_tE, symObjAddr: 0x2588C, symBinAddr: 0x92A50, symSize: 0xE10 }
  - { offset: 0x40C66B, size: 0x8, addend: 0x0, symName: __ZNK2OT7RuleSetINS_6Layout10SmallTypesEE5applyEPNS_21hb_ot_apply_context_tERKNS_25ContextApplyLookupContextE, symObjAddr: 0x311D4, symBinAddr: 0x9A4F0, symSize: 0x810 }
  - { offset: 0x40EA3D, size: 0x8, addend: 0x0, symName: __ZNK2OT12ChainRuleSetINS_6Layout10SmallTypesEE5applyEPNS_21hb_ot_apply_context_tERKNS_30ChainContextApplyLookupContextE, symObjAddr: 0x33704, symBinAddr: 0x9CA20, symSize: 0x8E4 }
  - { offset: 0x410ED3, size: 0x8, addend: 0x0, symName: __ZNK3AAT9KerxTableIN2OT6KernOTEE8sanitizeEP21hb_sanitize_context_t, symObjAddr: 0x36B5C, symBinAddr: 0x9FE38, symSize: 0x23C }
  - { offset: 0x411539, size: 0x8, addend: 0x0, symName: __ZNK3AAT9KerxTableIN2OT7KernAATEE8sanitizeEP21hb_sanitize_context_t, symObjAddr: 0x376D8, symBinAddr: 0xA02F4, symSize: 0x258 }
  - { offset: 0x41330D, size: 0x8, addend: 0x0, symName: __Z24hb_ot_layout_has_kerningP9hb_face_t, symObjAddr: 0x0, symBinAddr: 0x71928, symSize: 0x4C }
  - { offset: 0x413493, size: 0x8, addend: 0x0, symName: __ZNK16hb_lazy_loader_tIN2OT18kern_accelerator_tE21hb_face_lazy_loader_tIS1_Lj23EE9hb_face_tLj23ES1_E3getEv, symObjAddr: 0x365F4, symBinAddr: 0x9F910, symSize: 0xE4 }
  - { offset: 0x41380B, size: 0x8, addend: 0x0, symName: __Z32hb_ot_layout_has_machine_kerningP9hb_face_t, symObjAddr: 0x4C, symBinAddr: 0x71974, symSize: 0x3C }
  - { offset: 0x41393D, size: 0x8, addend: 0x0, symName: __ZNK2OT4kern17has_state_machineEv, symObjAddr: 0x88, symBinAddr: 0x719B0, symSize: 0xD8 }
  - { offset: 0x413967, size: 0x8, addend: 0x0, symName: __ZNK2OT4kern17has_state_machineEv, symObjAddr: 0x88, symBinAddr: 0x719B0, symSize: 0xD8 }
  - { offset: 0x413985, size: 0x8, addend: 0x0, symName: __ZNK2OT4kern17has_state_machineEv, symObjAddr: 0x88, symBinAddr: 0x719B0, symSize: 0xD8 }
  - { offset: 0x4139A3, size: 0x8, addend: 0x0, symName: __ZNK2OT4kern17has_state_machineEv, symObjAddr: 0x88, symBinAddr: 0x719B0, symSize: 0xD8 }
  - { offset: 0x413F5E, size: 0x8, addend: 0x0, symName: __Z30hb_ot_layout_has_cross_kerningP9hb_face_t, symObjAddr: 0x160, symBinAddr: 0x71A88, symSize: 0x3C }
  - { offset: 0x414090, size: 0x8, addend: 0x0, symName: __ZNK2OT4kern16has_cross_streamEv, symObjAddr: 0x19C, symBinAddr: 0x71AC4, symSize: 0xC0 }
  - { offset: 0x4140BA, size: 0x8, addend: 0x0, symName: __ZNK2OT4kern16has_cross_streamEv, symObjAddr: 0x19C, symBinAddr: 0x71AC4, symSize: 0xC0 }
  - { offset: 0x4140D8, size: 0x8, addend: 0x0, symName: __ZNK2OT4kern16has_cross_streamEv, symObjAddr: 0x19C, symBinAddr: 0x71AC4, symSize: 0xC0 }
  - { offset: 0x4140F6, size: 0x8, addend: 0x0, symName: __ZNK2OT4kern16has_cross_streamEv, symObjAddr: 0x19C, symBinAddr: 0x71AC4, symSize: 0xC0 }
  - { offset: 0x414691, size: 0x8, addend: 0x0, symName: __Z17hb_ot_layout_kernPK18hb_ot_shape_plan_tP9hb_font_tP11hb_buffer_t, symObjAddr: 0x25C, symBinAddr: 0x71B84, symSize: 0x110 }
  - { offset: 0x414E74, size: 0x8, addend: 0x0, symName: __ZNK2OT4GDEF14is_blocklistedEP9hb_blob_tP9hb_face_t, symObjAddr: 0x3AC, symBinAddr: 0x71C94, symSize: 0x5DC }
  - { offset: 0x415384, size: 0x8, addend: 0x0, symName: __ZN2OT8GSUBGPOS13accelerator_tINS_6Layout4GPOSEEC2EP9hb_face_t, symObjAddr: 0x2A8B0, symBinAddr: 0x941A4, symSize: 0x144 }
  - { offset: 0x415FA0, size: 0x8, addend: 0x0, symName: _hb_ot_layout_has_glyph_classes, symObjAddr: 0x988, symBinAddr: 0x72270, symSize: 0x68 }
  - { offset: 0x416398, size: 0x8, addend: 0x0, symName: _hb_ot_layout_get_glyph_class, symObjAddr: 0x9F0, symBinAddr: 0x722D8, symSize: 0x4C }
  - { offset: 0x416B95, size: 0x8, addend: 0x0, symName: _hb_ot_layout_get_glyphs_in_class, symObjAddr: 0xBA0, symBinAddr: 0x72324, symSize: 0x78 }
  - { offset: 0x416E1A, size: 0x8, addend: 0x0, symName: __ZNK2OT8ClassDef13collect_classI8hb_set_tEEbPT_j, symObjAddr: 0xF57C, symBinAddr: 0x7E2E0, symSize: 0x170 }
  - { offset: 0x41729C, size: 0x8, addend: 0x0, symName: _hb_ot_layout_get_attach_points, symObjAddr: 0xC18, symBinAddr: 0x7239C, symSize: 0x90 }
  - { offset: 0x417547, size: 0x8, addend: 0x0, symName: __ZNK2OT10AttachList17get_attach_pointsEjjPjS1_, symObjAddr: 0x1043C, symBinAddr: 0x7E450, symSize: 0x15C }
  - { offset: 0x417AB5, size: 0x8, addend: 0x0, symName: _hb_ot_layout_get_ligature_carets, symObjAddr: 0xCA8, symBinAddr: 0x7242C, symSize: 0xF0 }
  - { offset: 0x417ECA, size: 0x8, addend: 0x0, symName: __ZNK2OT12LigCaretList14get_lig_caretsEP9hb_font_t14hb_direction_tjRKNS_18ItemVariationStoreEjPjPi, symObjAddr: 0x10598, symBinAddr: 0x7E5AC, symSize: 0x184 }
  - { offset: 0x4185CA, size: 0x8, addend: 0x0, symName: __ZNK2OT6Layout4GSUB14is_blocklistedEP9hb_blob_tP9hb_face_t, symObjAddr: 0xD98, symBinAddr: 0x7251C, symSize: 0x8 }
  - { offset: 0x418612, size: 0x8, addend: 0x0, symName: __ZNK2OT6Layout4GPOS14is_blocklistedEP9hb_blob_tP9hb_face_t, symObjAddr: 0xDA0, symBinAddr: 0x72524, symSize: 0x8 }
  - { offset: 0x4189FB, size: 0x8, addend: 0x0, symName: _hb_ot_layout_table_get_script_tags, symObjAddr: 0xDA8, symBinAddr: 0x7252C, symSize: 0xF8 }
  - { offset: 0x418E93, size: 0x8, addend: 0x0, symName: __ZL18get_gsubgpos_tableP9hb_face_tj, symObjAddr: 0xEA0, symBinAddr: 0x72624, symSize: 0x148 }
  - { offset: 0x4195E7, size: 0x8, addend: 0x0, symName: _hb_ot_layout_table_find_script, symObjAddr: 0xFE8, symBinAddr: 0x7276C, symSize: 0x2B8 }
  - { offset: 0x41A3F1, size: 0x8, addend: 0x0, symName: _hb_ot_layout_table_choose_script, symObjAddr: 0x12A0, symBinAddr: 0x72A24, symSize: 0x24 }
  - { offset: 0x41A47C, size: 0x8, addend: 0x0, symName: _hb_ot_layout_table_select_script, symObjAddr: 0x12C4, symBinAddr: 0x72A48, symSize: 0x324 }
  - { offset: 0x41B552, size: 0x8, addend: 0x0, symName: _hb_ot_layout_table_get_feature_tags, symObjAddr: 0x15E8, symBinAddr: 0x72D6C, symSize: 0xF8 }
  - { offset: 0x41BA7B, size: 0x8, addend: 0x0, symName: __Z31hb_ot_layout_table_find_featureP9hb_face_tjjPj, symObjAddr: 0x16E0, symBinAddr: 0x72E64, symSize: 0x110 }
  - { offset: 0x41C236, size: 0x8, addend: 0x0, symName: _hb_ot_layout_script_get_language_tags, symObjAddr: 0x17F0, symBinAddr: 0x72F74, symSize: 0x14C }
  - { offset: 0x41C8DC, size: 0x8, addend: 0x0, symName: _hb_ot_layout_script_find_language, symObjAddr: 0x193C, symBinAddr: 0x730C0, symSize: 0x30 }
  - { offset: 0x41C9CF, size: 0x8, addend: 0x0, symName: _hb_ot_layout_script_select_language2, symObjAddr: 0x1974, symBinAddr: 0x730F8, symSize: 0x2B0 }
  - { offset: 0x41D148, size: 0x8, addend: 0x0, symName: _hb_ot_layout_script_select_language, symObjAddr: 0x196C, symBinAddr: 0x730F0, symSize: 0x8 }
  - { offset: 0x41D459, size: 0x8, addend: 0x0, symName: _hb_ot_layout_language_get_required_feature_index, symObjAddr: 0x1C24, symBinAddr: 0x733A8, symSize: 0x8 }
  - { offset: 0x41D4F6, size: 0x8, addend: 0x0, symName: _hb_ot_layout_language_get_required_feature, symObjAddr: 0x1C2C, symBinAddr: 0x733B0, symSize: 0x1A8 }
  - { offset: 0x41E08B, size: 0x8, addend: 0x0, symName: _hb_ot_layout_language_get_feature_indexes, symObjAddr: 0x1DD4, symBinAddr: 0x73558, symSize: 0x1B0 }
  - { offset: 0x41E8DE, size: 0x8, addend: 0x0, symName: _hb_ot_layout_language_get_feature_tags, symObjAddr: 0x1F84, symBinAddr: 0x73708, symSize: 0x25C }
  - { offset: 0x41F400, size: 0x8, addend: 0x0, symName: _hb_ot_layout_language_find_feature, symObjAddr: 0x21E0, symBinAddr: 0x73964, symSize: 0x218 }
  - { offset: 0x41FF3D, size: 0x8, addend: 0x0, symName: _hb_ot_layout_feature_get_lookups, symObjAddr: 0x23F8, symBinAddr: 0x73B7C, symSize: 0x14C }
  - { offset: 0x420595, size: 0x8, addend: 0x0, symName: _hb_ot_layout_feature_with_variations_get_lookups, symObjAddr: 0x2544, symBinAddr: 0x73CC8, symSize: 0xEC }
  - { offset: 0x42088D, size: 0x8, addend: 0x0, symName: __ZNK2OT8GSUBGPOS21get_feature_variationEjj, symObjAddr: 0x3680, symBinAddr: 0x74CAC, symSize: 0x174 }
  - { offset: 0x421102, size: 0x8, addend: 0x0, symName: _hb_ot_layout_table_get_lookup_count, symObjAddr: 0x2630, symBinAddr: 0x73DB4, symSize: 0x54 }
  - { offset: 0x42152E, size: 0x8, addend: 0x0, symName: _hb_ot_layout_collect_features, symObjAddr: 0x2684, symBinAddr: 0x73E08, symSize: 0x274 }
  - { offset: 0x422288, size: 0x8, addend: 0x0, symName: __ZN29hb_collect_features_context_tC2EP9hb_face_tjP8hb_set_tPKj, symObjAddr: 0x112AC, symBinAddr: 0x7EC48, symSize: 0xFC }
  - { offset: 0x422A4E, size: 0x8, addend: 0x0, symName: __ZL23script_collect_featuresP29hb_collect_features_context_tRKN2OT6ScriptEPKj, symObjAddr: 0x28F8, symBinAddr: 0x7407C, symSize: 0x1C0 }
  - { offset: 0x42328C, size: 0x8, addend: 0x0, symName: __ZN29hb_collect_features_context_tD1Ev, symObjAddr: 0x2AB8, symBinAddr: 0x7423C, symSize: 0x38 }
  - { offset: 0x4233E7, size: 0x8, addend: 0x0, symName: __ZN29hb_collect_features_context_t7visitedERKN2OT6ScriptE, symObjAddr: 0x11618, symBinAddr: 0x7EFB4, symSize: 0x120 }
  - { offset: 0x42378D, size: 0x8, addend: 0x0, symName: __ZL24langsys_collect_featuresP29hb_collect_features_context_tRKN2OT7LangSysE, symObjAddr: 0x11738, symBinAddr: 0x7F0D4, symSize: 0x224 }
  - { offset: 0x423F8B, size: 0x8, addend: 0x0, symName: _hb_ot_layout_collect_features_map, symObjAddr: 0x2AF0, symBinAddr: 0x74274, symSize: 0x220 }
  - { offset: 0x42533E, size: 0x8, addend: 0x0, symName: _hb_ot_layout_collect_lookups, symObjAddr: 0x2E68, symBinAddr: 0x74494, symSize: 0x2CC }
  - { offset: 0x42619F, size: 0x8, addend: 0x0, symName: __ZNK23hb_bit_set_invertible_t14get_populationEv, symObjAddr: 0x1F24C, symBinAddr: 0x8C5D4, symSize: 0x17C }
  - { offset: 0x42636B, size: 0x8, addend: 0x0, symName: __ZN23hb_bit_set_invertible_t6iter_t8__next__Ev, symObjAddr: 0x1F3C8, symBinAddr: 0x8C750, symSize: 0x100 }
  - { offset: 0x426458, size: 0x8, addend: 0x0, symName: __ZN23hb_bit_set_invertible_t9add_arrayIN2OT5IndexEEEvPKT_jj, symObjAddr: 0x11BC8, symBinAddr: 0x7F420, symSize: 0x108 }
  - { offset: 0x426D48, size: 0x8, addend: 0x0, symName: _hb_ot_layout_lookup_collect_glyphs, symObjAddr: 0x3134, symBinAddr: 0x74760, symSize: 0x414 }
  - { offset: 0x427F2F, size: 0x8, addend: 0x0, symName: __ZNK2OT6Layout9GSUB_impl19SubstLookupSubTable8dispatchINS_27hb_collect_glyphs_context_tEJEEENT_8return_tEPS5_jDpOT0_, symObjAddr: 0x129C4, symBinAddr: 0x80024, symSize: 0x10C }
  - { offset: 0x4285D2, size: 0x8, addend: 0x0, symName: __ZNK2OT6Layout9GPOS_impl17PosLookupSubTable8dispatchINS_27hb_collect_glyphs_context_tEJEEENT_8return_tEPS5_jDpOT0_, symObjAddr: 0x19FF8, symBinAddr: 0x87658, symSize: 0x214 }
  - { offset: 0x428DD7, size: 0x8, addend: 0x0, symName: _hb_ot_layout_table_find_feature_variations, symObjAddr: 0x3548, symBinAddr: 0x74B74, symSize: 0x138 }
  - { offset: 0x4293B3, size: 0x8, addend: 0x0, symName: __ZNK2OT17FeatureVariations10find_indexEPKijPjPNS_21ItemVarStoreInstancerE, symObjAddr: 0x1A538, symBinAddr: 0x87B98, symSize: 0x128 }
  - { offset: 0x4297C9, size: 0x8, addend: 0x0, symName: _hb_ot_layout_has_substitution, symObjAddr: 0x37F4, symBinAddr: 0x74E20, symSize: 0xDC }
  - { offset: 0x429C5E, size: 0x8, addend: 0x0, symName: _hb_ot_layout_lookup_would_substitute, symObjAddr: 0x38D0, symBinAddr: 0x74EFC, symSize: 0x36C }
  - { offset: 0x42AC53, size: 0x8, addend: 0x0, symName: __ZNK2OT6Layout9GSUB_impl11SubstLookup11would_applyEPNS_24hb_would_apply_context_tEPKNS_33hb_ot_layout_lookup_accelerator_tE, symObjAddr: 0x3C3C, symBinAddr: 0x75268, symSize: 0x100 }
  - { offset: 0x42AF35, size: 0x8, addend: 0x0, symName: __ZN2OT33hb_ot_layout_lookup_accelerator_t6createINS_6Layout9GSUB_impl11SubstLookupEEEPS0_RKT_, symObjAddr: 0x2DC50, symBinAddr: 0x97174, symSize: 0x1D0 }
  - { offset: 0x42B486, size: 0x8, addend: 0x0, symName: __ZNK2OT6Layout9GSUB_impl19SubstLookupSubTable8dispatchINS_24hb_would_apply_context_tEJEEENT_8return_tEPS5_jDpOT0_, symObjAddr: 0x1A9F8, symBinAddr: 0x87EE4, symSize: 0x128 }
  - { offset: 0x42B9D4, size: 0x8, addend: 0x0, symName: __Z29hb_ot_layout_substitute_startP9hb_font_tP11hb_buffer_t, symObjAddr: 0x3D3C, symBinAddr: 0x75368, symSize: 0x13C }
  - { offset: 0x42C578, size: 0x8, addend: 0x0, symName: _hb_ot_layout_lookup_substitute_closure, symObjAddr: 0x3E78, symBinAddr: 0x754A4, symSize: 0x374 }
  - { offset: 0x42D80F, size: 0x8, addend: 0x0, symName: __ZN2OT20hb_closure_context_t14is_lookup_doneEj, symObjAddr: 0x1BE30, symBinAddr: 0x891B8, symSize: 0x454 }
  - { offset: 0x42E133, size: 0x8, addend: 0x0, symName: __ZNK2OT6Layout9GSUB_impl19SubstLookupSubTable8dispatchINS_20hb_closure_context_tEJEEENT_8return_tEPS5_jDpOT0_, symObjAddr: 0x1DF60, symBinAddr: 0x8B2E8, symSize: 0x134 }
  - { offset: 0x42E93C, size: 0x8, addend: 0x0, symName: __ZN2OT20hb_closure_context_t5flushEv, symObjAddr: 0x1BD50, symBinAddr: 0x890D8, symSize: 0xE0 }
  - { offset: 0x42EB88, size: 0x8, addend: 0x0, symName: __ZN12hb_hashmap_tIjN2hb10unique_ptrI8hb_set_tEELb0EE4finiEv, symObjAddr: 0x38FE4, symBinAddr: 0xA16BC, symSize: 0xA8 }
  - { offset: 0x42EF2E, size: 0x8, addend: 0x0, symName: __ZN2OT20hb_closure_context_tD1Ev, symObjAddr: 0x41EC, symBinAddr: 0x75818, symSize: 0x7C }
  - { offset: 0x42F0EA, size: 0x8, addend: 0x0, symName: __ZN8hb_map_tD1Ev, symObjAddr: 0x4268, symBinAddr: 0x75894, symSize: 0x6C }
  - { offset: 0x430599, size: 0x8, addend: 0x0, symName: _hb_ot_layout_lookups_substitute_closure, symObjAddr: 0x42D4, symBinAddr: 0x75900, symSize: 0xDE4 }
  - { offset: 0x433E5B, size: 0x8, addend: 0x0, symName: __ZN14hb_sparseset_tI23hb_bit_set_invertible_tE6union_ERKS1_, symObjAddr: 0x1C440, symBinAddr: 0x897C8, symSize: 0x620 }
  - { offset: 0x434B41, size: 0x8, addend: 0x0, symName: __ZNK12hb_bit_set_t4nextEPj, symObjAddr: 0x11F50, symBinAddr: 0x7F7A8, symSize: 0x2E0 }
  - { offset: 0x434EE0, size: 0x8, addend: 0x0, symName: _hb_ot_layout_has_positioning, symObjAddr: 0x50B8, symBinAddr: 0x766E4, symSize: 0xDC }
  - { offset: 0x435257, size: 0x8, addend: 0x0, symName: __Z27hb_ot_layout_position_startP9hb_font_tP11hb_buffer_t, symObjAddr: 0x5194, symBinAddr: 0x767C0, symSize: 0x3C }
  - { offset: 0x435294, size: 0x8, addend: 0x0, symName: __Z27hb_ot_layout_position_startP9hb_font_tP11hb_buffer_t, symObjAddr: 0x5194, symBinAddr: 0x767C0, symSize: 0x3C }
  - { offset: 0x4352DA, size: 0x8, addend: 0x0, symName: __Z37hb_ot_layout_position_finish_advancesP9hb_font_tP11hb_buffer_t, symObjAddr: 0x51D0, symBinAddr: 0x767FC, symSize: 0x4 }
  - { offset: 0x435395, size: 0x8, addend: 0x0, symName: __Z36hb_ot_layout_position_finish_offsetsP9hb_font_tP11hb_buffer_t, symObjAddr: 0x51D4, symBinAddr: 0x76800, symSize: 0xF0 }
  - { offset: 0x4354FC, size: 0x8, addend: 0x0, symName: _hb_ot_layout_get_size_params, symObjAddr: 0x52C4, symBinAddr: 0x768F0, symSize: 0x2E0 }
  - { offset: 0x436192, size: 0x8, addend: 0x0, symName: _hb_ot_layout_feature_get_name_ids, symObjAddr: 0x55A4, symBinAddr: 0x76BD0, symSize: 0x280 }
  - { offset: 0x436BEC, size: 0x8, addend: 0x0, symName: _hb_ot_layout_feature_get_characters, symObjAddr: 0x5824, symBinAddr: 0x76E50, symSize: 0x1E4 }
  - { offset: 0x43757C, size: 0x8, addend: 0x0, symName: __ZNK11hb_ot_map_t10substituteEPK18hb_ot_shape_plan_tP9hb_font_tP11hb_buffer_t, symObjAddr: 0x5A08, symBinAddr: 0x77034, symSize: 0x164 }
  - { offset: 0x4378D8, size: 0x8, addend: 0x0, symName: __ZNK11hb_ot_map_t5applyI9GSUBProxyEEvRKT_PK18hb_ot_shape_plan_tP9hb_font_tP11hb_buffer_t, symObjAddr: 0x5B6C, symBinAddr: 0x77198, symSize: 0x694 }
  - { offset: 0x4390D4, size: 0x8, addend: 0x0, symName: __ZL12apply_stringI9GSUBProxyEbPN2OT21hb_ot_apply_context_tERKNT_6LookupERKNS1_33hb_ot_layout_lookup_accelerator_tE, symObjAddr: 0x6B18, symBinAddr: 0x78144, symSize: 0x23C }
  - { offset: 0x4398C8, size: 0x8, addend: 0x0, symName: __ZNK11hb_ot_map_t8positionEPK18hb_ot_shape_plan_tP9hb_font_tP11hb_buffer_t, symObjAddr: 0x6200, symBinAddr: 0x7782C, symSize: 0x164 }
  - { offset: 0x439C24, size: 0x8, addend: 0x0, symName: __ZNK11hb_ot_map_t5applyI9GPOSProxyEEvRKT_PK18hb_ot_shape_plan_tP9hb_font_tP11hb_buffer_t, symObjAddr: 0x6364, symBinAddr: 0x77990, symSize: 0x7B0 }
  - { offset: 0x43B179, size: 0x8, addend: 0x0, symName: __ZL13apply_forwardPN2OT21hb_ot_apply_context_tERKNS_33hb_ot_layout_lookup_accelerator_tEj, symObjAddr: 0x3E3A0, symBinAddr: 0xA6A78, symSize: 0x2C8 }
  - { offset: 0x43B8BC, size: 0x8, addend: 0x0, symName: __ZN2OT33hb_ot_layout_lookup_accelerator_t6createINS_6Layout9GPOS_impl9PosLookupEEEPS0_RKT_, symObjAddr: 0x3998C, symBinAddr: 0xA2064, symSize: 0x1D0 }
  - { offset: 0x43BD08, size: 0x8, addend: 0x0, symName: __Z30hb_ot_layout_substitute_lookupPN2OT21hb_ot_apply_context_tERKNS_6Layout9GSUB_impl11SubstLookupERKNS_33hb_ot_layout_lookup_accelerator_tE, symObjAddr: 0x6B14, symBinAddr: 0x78140, symSize: 0x4 }
  - { offset: 0x43BD53, size: 0x8, addend: 0x0, symName: __Z30hb_ot_layout_substitute_lookupPN2OT21hb_ot_apply_context_tERKNS_6Layout9GSUB_impl11SubstLookupERKNS_33hb_ot_layout_lookup_accelerator_tE, symObjAddr: 0x6B14, symBinAddr: 0x78140, symSize: 0x4 }
  - { offset: 0x43BE21, size: 0x8, addend: 0x0, symName: __ZL14apply_backwardPN2OT21hb_ot_apply_context_tERKNS_33hb_ot_layout_lookup_accelerator_tEj, symObjAddr: 0x3E668, symBinAddr: 0xA6D40, symSize: 0x200 }
  - { offset: 0x43C374, size: 0x8, addend: 0x0, symName: _hb_ot_layout_get_font_extents, symObjAddr: 0x6D54, symBinAddr: 0x78380, symSize: 0x12C }
  - { offset: 0x43C6EE, size: 0x8, addend: 0x0, symName: __ZNK17hb_data_wrapper_tI9hb_face_tLj27EE11call_createI9hb_blob_t22hb_table_lazy_loader_tIN2OT4BASEELj27ELb1EEEEPT_v, symObjAddr: 0x3E868, symBinAddr: 0xA6F40, symSize: 0x94 }
  - { offset: 0x43C90C, size: 0x8, addend: 0x0, symName: __ZNK2OT4BASE11get_min_maxEP9hb_font_t14hb_direction_tjjjPiS4_, symObjAddr: 0x6E80, symBinAddr: 0x784AC, symSize: 0x124 }
  - { offset: 0x43CC52, size: 0x8, addend: 0x0, symName: __ZNK2OT4Axis11get_min_maxEjjjPPKNS_9BaseCoordES4_, symObjAddr: 0x2D2B4, symBinAddr: 0x96B10, symSize: 0x164 }
  - { offset: 0x43D032, size: 0x8, addend: 0x0, symName: __ZNK2OT9BaseCoord9get_coordEP9hb_font_tRKNS_18ItemVariationStoreE14hb_direction_t, symObjAddr: 0x2D418, symBinAddr: 0x96C74, symSize: 0x158 }
  - { offset: 0x43D434, size: 0x8, addend: 0x0, symName: _hb_ot_layout_get_font_extents2, symObjAddr: 0x6FA4, symBinAddr: 0x785D0, symSize: 0xE0 }
  - { offset: 0x43D593, size: 0x8, addend: 0x0, symName: _hb_ot_layout_get_horizontal_baseline_tag_for_script, symObjAddr: 0x7084, symBinAddr: 0x786B0, symSize: 0x28C }
  - { offset: 0x43D5C0, size: 0x8, addend: 0x0, symName: _hb_ot_layout_get_baseline, symObjAddr: 0x7310, symBinAddr: 0x7893C, symSize: 0xF8 }
  - { offset: 0x43D904, size: 0x8, addend: 0x0, symName: __ZNK2OT4BASE12get_baselineEP9hb_font_tj14hb_direction_tjjPi, symObjAddr: 0x7408, symBinAddr: 0x78A34, symSize: 0x120 }
  - { offset: 0x43DBD7, size: 0x8, addend: 0x0, symName: __ZNK2OT4Axis12get_baselineEjjjPPKNS_9BaseCoordE, symObjAddr: 0x2D7D4, symBinAddr: 0x97030, symSize: 0x144 }
  - { offset: 0x43E17D, size: 0x8, addend: 0x0, symName: _hb_ot_layout_get_baseline2, symObjAddr: 0x7528, symBinAddr: 0x78B54, symSize: 0xF0 }
  - { offset: 0x43E351, size: 0x8, addend: 0x0, symName: _hb_ot_layout_get_baseline_with_fallback, symObjAddr: 0x7618, symBinAddr: 0x78C44, symSize: 0x7E4 }
  - { offset: 0x43E9C0, size: 0x8, addend: 0x0, symName: _hb_ot_layout_get_baseline_with_fallback2, symObjAddr: 0x7DFC, symBinAddr: 0x79428, symSize: 0xF0 }
  - { offset: 0x43EFFC, size: 0x8, addend: 0x0, symName: _hb_ot_layout_lookup_get_glyph_alternates, symObjAddr: 0x7EEC, symBinAddr: 0x79518, symSize: 0x1F8 }
  - { offset: 0x43F948, size: 0x8, addend: 0x0, symName: __ZNK2OT6Layout9GSUB_impl19SubstLookupSubTable8dispatchI34hb_get_glyph_alternates_dispatch_tJRjS5_RPjS7_EEENT_8return_tEPS8_jDpOT0_, symObjAddr: 0x3F7E4, symBinAddr: 0xA7EBC, symSize: 0x124 }
  - { offset: 0x4402FF, size: 0x8, addend: 0x0, symName: _hb_ot_layout_lookup_get_optical_bound, symObjAddr: 0x80E4, symBinAddr: 0x79710, symSize: 0x2EC }
  - { offset: 0x440F10, size: 0x8, addend: 0x0, symName: __ZNK2OT6Layout9GPOS_impl17PosLookupSubTable8dispatchI29hb_position_single_dispatch_tJRP9hb_font_tRP9hb_blob_tR14hb_direction_tRjR19hb_glyph_position_tEEENT_8return_tEPSG_jDpOT0_, symObjAddr: 0x3FBC8, symBinAddr: 0xA82A0, symSize: 0x128 }
  - { offset: 0x4419DB, size: 0x8, addend: 0x0, symName: __ZNK2OT12KernSubTableINS_20KernOTSubTableHeaderEE8dispatchIN3AAT22hb_aat_apply_context_tEJEEENT_8return_tEPS6_DpOT0_, symObjAddr: 0x8860, symBinAddr: 0x79E8C, symSize: 0x1D4 }
  - { offset: 0x442659, size: 0x8, addend: 0x0, symName: __ZNK2OT17hb_kern_machine_tIN3AAT19KerxSubTableFormat0INS_20KernOTSubTableHeaderEE13accelerator_tEE4kernEP9hb_font_tP11hb_buffer_tjb, symObjAddr: 0x91B8, symBinAddr: 0x7A060, symSize: 0x5E4 }
  - { offset: 0x4431DA, size: 0x8, addend: 0x0, symName: __ZN3AAT16StateTableDriverINS_13ObsoleteTypesEvNS_19KerxSubTableFormat1IN2OT20KernOTSubTableHeaderEE5FlagsEE5driveINS5_16driver_context_tEEEvPT_PNS_22hb_aat_apply_context_tE, symObjAddr: 0xBC60, symBinAddr: 0x7A9C4, symSize: 0x414 }
  - { offset: 0x443C9D, size: 0x8, addend: 0x0, symName: __ZNK2OT17hb_kern_machine_tIN3AAT19KerxSubTableFormat2INS_20KernOTSubTableHeaderEE13accelerator_tEE4kernEP9hb_font_tP11hb_buffer_tjb, symObjAddr: 0xC31C, symBinAddr: 0x7B080, symSize: 0x5E4 }
  - { offset: 0x44481E, size: 0x8, addend: 0x0, symName: __ZNK2OT17hb_kern_machine_tINS_19KernSubTableFormat3INS_20KernOTSubTableHeaderEEEE4kernEP9hb_font_tP11hb_buffer_tjb, symObjAddr: 0xCB4C, symBinAddr: 0x7B8B0, symSize: 0x664 }
  - { offset: 0x446077, size: 0x8, addend: 0x0, symName: __ZNK3AAT19KerxSubTableFormat0IN2OT20KernOTSubTableHeaderEE13accelerator_t11get_kerningEjj, symObjAddr: 0x979C, symBinAddr: 0x7A644, symSize: 0x23C }
  - { offset: 0x44D6B7, size: 0x8, addend: 0x0, symName: __ZNK2OT6Layout6Common11RangeRecordINS0_10SmallTypesEE16collect_coverageI15hb_set_digest_tEEbPT_, symObjAddr: 0xB878, symBinAddr: 0x7A880, symSize: 0x10C }
  - { offset: 0x44D6FF, size: 0x8, addend: 0x0, symName: __ZNK2OT6Layout6Common11RangeRecordINS0_10SmallTypesEE16collect_coverageI15hb_set_digest_tEEbPT_, symObjAddr: 0xB878, symBinAddr: 0x7A880, symSize: 0x10C }
  - { offset: 0x44D764, size: 0x8, addend: 0x0, symName: __ZNK2OT21hb_ot_apply_context_t21match_properties_markEjjj, symObjAddr: 0xB994, symBinAddr: 0x7A98C, symSize: 0x38 }
  - { offset: 0x44E1A0, size: 0x8, addend: 0x0, symName: __ZN3AAT19KerxSubTableFormat1IN2OT20KernOTSubTableHeaderEE16driver_context_t10transitionEP11hb_buffer_tPNS_16StateTableDriverINS_13ObsoleteTypesEvNS3_5FlagsEEERKNS_5EntryIvEE, symObjAddr: 0xC074, symBinAddr: 0x7ADD8, symSize: 0x2A8 }
  - { offset: 0x44E202, size: 0x8, addend: 0x0, symName: __ZN3AAT19KerxSubTableFormat1IN2OT20KernOTSubTableHeaderEE16driver_context_t10transitionEP11hb_buffer_tPNS_16StateTableDriverINS_13ObsoleteTypesEvNS3_5FlagsEEERKNS_5EntryIvEE, symObjAddr: 0xC074, symBinAddr: 0x7ADD8, symSize: 0x2A8 }
  - { offset: 0x44E222, size: 0x8, addend: 0x0, symName: __ZN3AAT19KerxSubTableFormat1IN2OT20KernOTSubTableHeaderEE16driver_context_t10transitionEP11hb_buffer_tPNS_16StateTableDriverINS_13ObsoleteTypesEvNS3_5FlagsEEERKNS_5EntryIvEE, symObjAddr: 0xC074, symBinAddr: 0x7ADD8, symSize: 0x2A8 }
  - { offset: 0x44E770, size: 0x8, addend: 0x0, symName: __ZNK3AAT19KerxSubTableFormat2IN2OT20KernOTSubTableHeaderEE13accelerator_t11get_kerningEjj, symObjAddr: 0xC900, symBinAddr: 0x7B664, symSize: 0x178 }
  - { offset: 0x44ECF6, size: 0x8, addend: 0x0, symName: __ZNK3AAT19KerxSubTableFormat2IN2OT20KernOTSubTableHeaderEE11get_kerningEjjPNS_22hb_aat_apply_context_tE, symObjAddr: 0xCA78, symBinAddr: 0x7B7DC, symSize: 0xD4 }
  - { offset: 0x44EDAF, size: 0x8, addend: 0x0, symName: __ZNK3AAT19KerxSubTableFormat2IN2OT20KernOTSubTableHeaderEE11get_kerningEjjPNS_22hb_aat_apply_context_tE, symObjAddr: 0xCA78, symBinAddr: 0x7B7DC, symSize: 0xD4 }
  - { offset: 0x44EDCF, size: 0x8, addend: 0x0, symName: __ZNK3AAT19KerxSubTableFormat2IN2OT20KernOTSubTableHeaderEE11get_kerningEjjPNS_22hb_aat_apply_context_tE, symObjAddr: 0xCA78, symBinAddr: 0x7B7DC, symSize: 0xD4 }
  - { offset: 0x44EDF7, size: 0x8, addend: 0x0, symName: __ZNK3AAT19KerxSubTableFormat2IN2OT20KernOTSubTableHeaderEE11get_kerningEjjPNS_22hb_aat_apply_context_tE, symObjAddr: 0xCA78, symBinAddr: 0x7B7DC, symSize: 0xD4 }
  - { offset: 0x44EE17, size: 0x8, addend: 0x0, symName: __ZNK3AAT19KerxSubTableFormat2IN2OT20KernOTSubTableHeaderEE11get_kerningEjjPNS_22hb_aat_apply_context_tE, symObjAddr: 0xCA78, symBinAddr: 0x7B7DC, symSize: 0xD4 }
  - { offset: 0x44F6E3, size: 0x8, addend: 0x0, symName: __ZNK2OT12KernSubTableINS_21KernAATSubTableHeaderEE8dispatchIN3AAT22hb_aat_apply_context_tEJEEENT_8return_tEPS6_DpOT0_, symObjAddr: 0xD638, symBinAddr: 0x7C39C, symSize: 0x1D4 }
  - { offset: 0x4502F6, size: 0x8, addend: 0x0, symName: __ZNK2OT17hb_kern_machine_tIN3AAT19KerxSubTableFormat0INS_21KernAATSubTableHeaderEE13accelerator_tEE4kernEP9hb_font_tP11hb_buffer_tjb, symObjAddr: 0xD80C, symBinAddr: 0x7C570, symSize: 0x5E4 }
  - { offset: 0x450E77, size: 0x8, addend: 0x0, symName: __ZN3AAT16StateTableDriverINS_13ObsoleteTypesEvNS_19KerxSubTableFormat1IN2OT21KernAATSubTableHeaderEE5FlagsEE5driveINS5_16driver_context_tEEEvPT_PNS_22hb_aat_apply_context_tE, symObjAddr: 0xE02C, symBinAddr: 0x7CD90, symSize: 0x414 }
  - { offset: 0x45193A, size: 0x8, addend: 0x0, symName: __ZNK2OT17hb_kern_machine_tIN3AAT19KerxSubTableFormat2INS_21KernAATSubTableHeaderEE13accelerator_tEE4kernEP9hb_font_tP11hb_buffer_tjb, symObjAddr: 0xE6E8, symBinAddr: 0x7D44C, symSize: 0x5E4 }
  - { offset: 0x4524BB, size: 0x8, addend: 0x0, symName: __ZNK2OT17hb_kern_machine_tINS_19KernSubTableFormat3INS_21KernAATSubTableHeaderEEEE4kernEP9hb_font_tP11hb_buffer_tjb, symObjAddr: 0xEF18, symBinAddr: 0x7DC7C, symSize: 0x664 }
  - { offset: 0x4533DE, size: 0x8, addend: 0x0, symName: __ZNK3AAT19KerxSubTableFormat0IN2OT21KernAATSubTableHeaderEE13accelerator_t11get_kerningEjj, symObjAddr: 0xDDF0, symBinAddr: 0x7CB54, symSize: 0x23C }
  - { offset: 0x453C7C, size: 0x8, addend: 0x0, symName: __ZN3AAT19KerxSubTableFormat1IN2OT21KernAATSubTableHeaderEE16driver_context_t10transitionEP11hb_buffer_tPNS_16StateTableDriverINS_13ObsoleteTypesEvNS3_5FlagsEEERKNS_5EntryIvEE, symObjAddr: 0xE440, symBinAddr: 0x7D1A4, symSize: 0x2A8 }
  - { offset: 0x453CDE, size: 0x8, addend: 0x0, symName: __ZN3AAT19KerxSubTableFormat1IN2OT21KernAATSubTableHeaderEE16driver_context_t10transitionEP11hb_buffer_tPNS_16StateTableDriverINS_13ObsoleteTypesEvNS3_5FlagsEEERKNS_5EntryIvEE, symObjAddr: 0xE440, symBinAddr: 0x7D1A4, symSize: 0x2A8 }
  - { offset: 0x453CFE, size: 0x8, addend: 0x0, symName: __ZN3AAT19KerxSubTableFormat1IN2OT21KernAATSubTableHeaderEE16driver_context_t10transitionEP11hb_buffer_tPNS_16StateTableDriverINS_13ObsoleteTypesEvNS3_5FlagsEEERKNS_5EntryIvEE, symObjAddr: 0xE440, symBinAddr: 0x7D1A4, symSize: 0x2A8 }
  - { offset: 0x4540E3, size: 0x8, addend: 0x0, symName: __ZNK3AAT19KerxSubTableFormat2IN2OT21KernAATSubTableHeaderEE13accelerator_t11get_kerningEjj, symObjAddr: 0xECCC, symBinAddr: 0x7DA30, symSize: 0x178 }
  - { offset: 0x454669, size: 0x8, addend: 0x0, symName: __ZNK3AAT19KerxSubTableFormat2IN2OT21KernAATSubTableHeaderEE11get_kerningEjjPNS_22hb_aat_apply_context_tE, symObjAddr: 0xEE44, symBinAddr: 0x7DBA8, symSize: 0xD4 }
  - { offset: 0x454722, size: 0x8, addend: 0x0, symName: __ZNK3AAT19KerxSubTableFormat2IN2OT21KernAATSubTableHeaderEE11get_kerningEjjPNS_22hb_aat_apply_context_tE, symObjAddr: 0xEE44, symBinAddr: 0x7DBA8, symSize: 0xD4 }
  - { offset: 0x454742, size: 0x8, addend: 0x0, symName: __ZNK3AAT19KerxSubTableFormat2IN2OT21KernAATSubTableHeaderEE11get_kerningEjjPNS_22hb_aat_apply_context_tE, symObjAddr: 0xEE44, symBinAddr: 0x7DBA8, symSize: 0xD4 }
  - { offset: 0x45476A, size: 0x8, addend: 0x0, symName: __ZNK3AAT19KerxSubTableFormat2IN2OT21KernAATSubTableHeaderEE11get_kerningEjjPNS_22hb_aat_apply_context_tE, symObjAddr: 0xEE44, symBinAddr: 0x7DBA8, symSize: 0xD4 }
  - { offset: 0x45478A, size: 0x8, addend: 0x0, symName: __ZNK3AAT19KerxSubTableFormat2IN2OT21KernAATSubTableHeaderEE11get_kerningEjjPNS_22hb_aat_apply_context_tE, symObjAddr: 0xEE44, symBinAddr: 0x7DBA8, symSize: 0xD4 }
  - { offset: 0x456BA7, size: 0x8, addend: 0x0, symName: __ZNK2OT10CaretValue15get_caret_valueEP9hb_font_t14hb_direction_tjRKNS_18ItemVariationStoreE, symObjAddr: 0x1071C, symBinAddr: 0x7E730, symSize: 0x120 }
  - { offset: 0x456ED2, size: 0x8, addend: 0x0, symName: __ZNK2OT17CaretValueFormat215get_caret_valueEP9hb_font_t14hb_direction_tj, symObjAddr: 0x1083C, symBinAddr: 0x7E850, symSize: 0xC0 }
  - { offset: 0x4570C2, size: 0x8, addend: 0x0, symName: __ZNK2OT6Device11get_x_deltaEP9hb_font_tRKNS_18ItemVariationStoreEPf, symObjAddr: 0x10C5C, symBinAddr: 0x7E910, symSize: 0x19C }
  - { offset: 0x457694, size: 0x8, addend: 0x0, symName: __ZNK2OT6Device11get_y_deltaEP9hb_font_tRKNS_18ItemVariationStoreEPf, symObjAddr: 0x10DF8, symBinAddr: 0x7EAAC, symSize: 0x19C }
  - { offset: 0x458B52, size: 0x8, addend: 0x0, symName: __ZN29hb_collect_features_context_t22compute_feature_filterEPKj, symObjAddr: 0x113A8, symBinAddr: 0x7ED44, symSize: 0x270 }
  - { offset: 0x459670, size: 0x8, addend: 0x0, symName: __ZN29hb_collect_features_context_t7visitedERKN2OT7LangSysE, symObjAddr: 0x1195C, symBinAddr: 0x7F2F8, symSize: 0x128 }
  - { offset: 0x459A1A, size: 0x8, addend: 0x0, symName: __ZNK23hb_bit_set_invertible_t8is_emptyEv, symObjAddr: 0x11E70, symBinAddr: 0x7F6C8, symSize: 0xE0 }
  - { offset: 0x459F2E, size: 0x8, addend: 0x0, symName: __ZN12hb_bit_set_t9set_arrayIN2OT5IndexEEEvbPKT_jj, symObjAddr: 0x11CD0, symBinAddr: 0x7F528, symSize: 0x1A0 }
  - { offset: 0x45A4B1, size: 0x8, addend: 0x0, symName: __ZNK12hb_bit_set_t7get_minEv, symObjAddr: 0x12230, symBinAddr: 0x7FA88, symSize: 0x228 }
  - { offset: 0x45AC00, size: 0x8, addend: 0x0, symName: __ZN2OT6Layout9GSUB_impl11SubstLookup21dispatch_recurse_funcINS_27hb_collect_glyphs_context_tEEENT_8return_tEPS5_j, symObjAddr: 0x12898, symBinAddr: 0x7FEF8, symSize: 0x12C }
  - { offset: 0x45B6BB, size: 0x8, addend: 0x0, symName: __ZNK2OT7Context8dispatchINS_27hb_collect_glyphs_context_tEJEEENT_8return_tEPS3_DpOT0_, symObjAddr: 0x12AF0, symBinAddr: 0x80150, symSize: 0x164 }
  - { offset: 0x45C08B, size: 0x8, addend: 0x0, symName: __ZNK2OT6Layout9GSUB_impl30ReverseChainSingleSubstFormat114collect_glyphsEPNS_27hb_collect_glyphs_context_tE, symObjAddr: 0x19E54, symBinAddr: 0x874B4, symSize: 0x1A4 }
  - { offset: 0x45C686, size: 0x8, addend: 0x0, symName: __ZNK2OT6Layout9GSUB_impl20SingleSubstFormat2_4INS0_10SmallTypesEE14collect_glyphsEPNS_27hb_collect_glyphs_context_tE, symObjAddr: 0x133C4, symBinAddr: 0x80A24, symSize: 0x21C }
  - { offset: 0x45CC16, size: 0x8, addend: 0x0, symName: __ZNK2OT19ChainContextFormat314collect_glyphsEPNS_27hb_collect_glyphs_context_tE, symObjAddr: 0x19C70, symBinAddr: 0x872D0, symSize: 0x1E4 }
  - { offset: 0x45DF27, size: 0x8, addend: 0x0, symName: __ZNK2OT6Layout6Common8Coverage16collect_coverageI8hb_set_tEEbPT_, symObjAddr: 0x12F3C, symBinAddr: 0x8059C, symSize: 0xDC }
  - { offset: 0x45E27B, size: 0x8, addend: 0x0, symName: __ZNK2OT14ContextFormat314collect_glyphsEPNS_27hb_collect_glyphs_context_tE, symObjAddr: 0x15350, symBinAddr: 0x829B0, symSize: 0xD0 }
  - { offset: 0x45EC22, size: 0x8, addend: 0x0, symName: __ZN23hb_bit_set_invertible_t16add_sorted_arrayIN2OT11HBGlyphID16EEEbPKT_jj, symObjAddr: 0x13018, symBinAddr: 0x80678, symSize: 0x124 }
  - { offset: 0x45EFFF, size: 0x8, addend: 0x0, symName: __ZN12hb_bit_set_t16del_sorted_arrayIN2OT11HBGlyphID16EEEbPKT_jj, symObjAddr: 0x1313C, symBinAddr: 0x8079C, symSize: 0x188 }
  - { offset: 0x45F477, size: 0x8, addend: 0x0, symName: __ZN2OT6Layout6Common8Coverage6iter_t8__next__Ev, symObjAddr: 0x132C4, symBinAddr: 0x80924, symSize: 0x100 }
  - { offset: 0x45F857, size: 0x8, addend: 0x0, symName: '__ZNK4$_18clIRKN2OT6Layout6Common8CoverageERKNS1_7ArrayOfINS1_11HBGlyphID16ENS1_7IntTypeItLj2EEEEELPv0EEE13hb_zip_iter_tIDTcldtclL_ZL8hb_derefEcl10hb_declvalIT_EEE4iterEEDTcldtclL_ZL8hb_derefEcl10hb_declvalIT0_EEE4iterEEEOSG_OSI_', symObjAddr: 0x135E0, symBinAddr: 0x80C40, symSize: 0x100 }
  - { offset: 0x460399, size: 0x8, addend: 0x0, symName: '__ZNK4$_18clIRKN2OT6Layout6Common8CoverageERKNS1_7ArrayOfINS1_8OffsetToINS2_9GSUB_impl8SequenceINS2_10SmallTypesEEENS1_7IntTypeItLj2EEEvLb1EEESE_EELPv0EEE13hb_zip_iter_tIDTcldtclL_ZL8hb_derefEcl10hb_declvalIT_EEE4iterEEDTcldtclL_ZL8hb_derefEcl10hb_declvalIT0_EEE4iterEEEOSL_OSN_', symObjAddr: 0x138C8, symBinAddr: 0x80F28, symSize: 0x100 }
  - { offset: 0x46080C, size: 0x8, addend: 0x0, symName: __ZN23hb_bit_set_invertible_t9add_arrayIN2OT11HBGlyphID16EEEvPKT_jj, symObjAddr: 0x139C8, symBinAddr: 0x81028, symSize: 0x108 }
  - { offset: 0x460CEE, size: 0x8, addend: 0x0, symName: __ZN12hb_bit_set_t9set_arrayIN2OT11HBGlyphID16EEEvbPKT_jj, symObjAddr: 0x13AD0, symBinAddr: 0x81130, symSize: 0x1A0 }
  - { offset: 0x46151F, size: 0x8, addend: 0x0, symName: '__ZNK4$_18clIRKN2OT6Layout6Common8CoverageERKNS1_7ArrayOfINS1_8OffsetToINS2_9GSUB_impl12AlternateSetINS2_10SmallTypesEEENS1_7IntTypeItLj2EEEvLb1EEESE_EELPv0EEE13hb_zip_iter_tIDTcldtclL_ZL8hb_derefEcl10hb_declvalIT_EEE4iterEEDTcldtclL_ZL8hb_derefEcl10hb_declvalIT0_EEE4iterEEEOSL_OSN_', symObjAddr: 0x13E58, symBinAddr: 0x814B8, symSize: 0x100 }
  - { offset: 0x46261E, size: 0x8, addend: 0x0, symName: '__ZNK4$_18clIRKN2OT6Layout6Common8CoverageERKNS1_7ArrayOfINS1_8OffsetToINS2_9GSUB_impl11LigatureSetINS2_10SmallTypesEEENS1_7IntTypeItLj2EEEvLb1EEESE_EELPv0EEE13hb_zip_iter_tIDTcldtclL_ZL8hb_derefEcl10hb_declvalIT_EEE4iterEEDTcldtclL_ZL8hb_derefEcl10hb_declvalIT0_EEE4iterEEEOSL_OSN_', symObjAddr: 0x14A6C, symBinAddr: 0x820CC, symSize: 0x100 }
  - { offset: 0x463213, size: 0x8, addend: 0x0, symName: __ZN2OT27hb_collect_glyphs_context_t7recurseEj, symObjAddr: 0x151BC, symBinAddr: 0x8281C, symSize: 0x180 }
  - { offset: 0x464938, size: 0x8, addend: 0x0, symName: __ZNK2OT6Layout9GPOS_impl16PairPosFormat1_3INS0_10SmallTypesEE14collect_glyphsEPNS_27hb_collect_glyphs_context_tE, symObjAddr: 0x1A22C, symBinAddr: 0x8788C, symSize: 0x100 }
  - { offset: 0x464DE9, size: 0x8, addend: 0x0, symName: __ZNK2OT8ClassDef16collect_coverageI8hb_set_tEEbPT_, symObjAddr: 0x1A32C, symBinAddr: 0x8798C, symSize: 0xDC }
  - { offset: 0x46522B, size: 0x8, addend: 0x0, symName: __ZNK2OT17ClassDefFormat1_3INS_6Layout10SmallTypesEE16collect_coverageI8hb_set_tEEbPT_, symObjAddr: 0x1A408, symBinAddr: 0x87A68, symSize: 0x130 }
  - { offset: 0x46559C, size: 0x8, addend: 0x0, symName: __ZNK2OT9Condition8evaluateINS_21ItemVarStoreInstancerEEEbPKijPT_, symObjAddr: 0x1A660, symBinAddr: 0x87CC0, symSize: 0x214 }
  - { offset: 0x4664BF, size: 0x8, addend: 0x0, symName: __ZNK2OT12ChainContext8dispatchINS_24hb_would_apply_context_tEJEEENT_8return_tEPS3_DpOT0_, symObjAddr: 0x1AC98, symBinAddr: 0x88184, symSize: 0x17C }
  - { offset: 0x466BC9, size: 0x8, addend: 0x0, symName: __ZN2OT24hb_would_apply_context_t8dispatchINS_6Layout9GSUB_impl22LigatureSubstFormat1_2INS2_10SmallTypesEEEEEbRKT_, symObjAddr: 0x1AE14, symBinAddr: 0x88300, symSize: 0x174 }
  - { offset: 0x4672C2, size: 0x8, addend: 0x0, symName: __ZNK2OT7Context8dispatchINS_24hb_would_apply_context_tEJEEENT_8return_tEPS3_DpOT0_, symObjAddr: 0x1AB40, symBinAddr: 0x8802C, symSize: 0x158 }
  - { offset: 0x467725, size: 0x8, addend: 0x0, symName: __ZNK2OT16ContextFormat1_4INS_6Layout10SmallTypesEE11would_applyEPNS_24hb_would_apply_context_tE, symObjAddr: 0x1AF88, symBinAddr: 0x88474, symSize: 0x18C }
  - { offset: 0x467D51, size: 0x8, addend: 0x0, symName: __ZNK2OT16ContextFormat2_5INS_6Layout10SmallTypesEE11would_applyEPNS_24hb_would_apply_context_tE, symObjAddr: 0x1B124, symBinAddr: 0x88610, symSize: 0x418 }
  - { offset: 0x46955B, size: 0x8, addend: 0x0, symName: __ZNK2OT9ChainRuleINS_6Layout10SmallTypesEE11would_applyEPNS_24hb_would_apply_context_tERKNS_30ChainContextApplyLookupContextE, symObjAddr: 0x1B690, symBinAddr: 0x88B7C, symSize: 0x144 }
  - { offset: 0x4698C9, size: 0x8, addend: 0x0, symName: __ZNK2OT19ChainContextFormat311would_applyEPNS_24hb_would_apply_context_tE, symObjAddr: 0x1BA10, symBinAddr: 0x88EFC, symSize: 0x158 }
  - { offset: 0x469BD2, size: 0x8, addend: 0x0, symName: __ZNK2OT21ChainContextFormat2_5INS_6Layout10SmallTypesEE11would_applyEPNS_24hb_would_apply_context_tE, symObjAddr: 0x1B7D4, symBinAddr: 0x88CC0, symSize: 0x23C }
  - { offset: 0x46ADE2, size: 0x8, addend: 0x0, symName: __ZN2OT6Layout9GSUB_impl11SubstLookup29dispatch_closure_recurse_funcEPNS_20hb_closure_context_tEjP8hb_set_tjj, symObjAddr: 0x1BCCC, symBinAddr: 0x89054, symSize: 0x84 }
  - { offset: 0x46AE97, size: 0x8, addend: 0x0, symName: __ZN2OT6Layout9GSUB_impl11SubstLookup27closure_glyphs_recurse_funcEPNS_20hb_closure_context_tEjP8hb_set_tjj, symObjAddr: 0x1DC68, symBinAddr: 0x8AFF0, symSize: 0x1E4 }
  - { offset: 0x46B7C7, size: 0x8, addend: 0x0, symName: __ZN11hb_vector_tI8hb_set_tLb0EE3popEv, symObjAddr: 0x22344, symBinAddr: 0x8F508, symSize: 0x17C }
  - { offset: 0x46C1A7, size: 0x8, addend: 0x0, symName: __ZN11hb_vector_tI8hb_set_tLb0EE6resizeEibb, symObjAddr: 0x219D4, symBinAddr: 0x8ED5C, symSize: 0x188 }
  - { offset: 0x46C9D7, size: 0x8, addend: 0x0, symName: __ZN12hb_hashmap_tIjjLb1EE13set_with_hashIRKjjEEbOT_jOT0_b, symObjAddr: 0x1CA60, symBinAddr: 0x89DE8, symSize: 0x19C }
  - { offset: 0x46CB53, size: 0x8, addend: 0x0, symName: __ZN12hb_hashmap_tIjN2hb10unique_ptrI8hb_set_tEELb0EE13set_with_hashIRKjS3_EEbOT_jOT0_b, symObjAddr: 0x1CBFC, symBinAddr: 0x89F84, symSize: 0x1A0 }
  - { offset: 0x46CCFF, size: 0x8, addend: 0x0, symName: __ZNK14hb_sparseset_tI23hb_bit_set_invertible_tE9is_subsetERKS1_, symObjAddr: 0x1C284, symBinAddr: 0x8960C, symSize: 0x1BC }
  - { offset: 0x46D588, size: 0x8, addend: 0x0, symName: __ZNK12hb_bit_set_t9is_subsetERKS_, symObjAddr: 0x1D0A0, symBinAddr: 0x8A428, symSize: 0x234 }
  - { offset: 0x46D5D4, size: 0x8, addend: 0x0, symName: __ZNK12hb_bit_set_t9is_subsetERKS_, symObjAddr: 0x1D0A0, symBinAddr: 0x8A428, symSize: 0x234 }
  - { offset: 0x46D785, size: 0x8, addend: 0x0, symName: __ZN12hb_bit_set_t6iter_tC2ERKS_b, symObjAddr: 0x1D2D4, symBinAddr: 0x8A65C, symSize: 0x118 }
  - { offset: 0x46DE73, size: 0x8, addend: 0x0, symName: '__ZN12hb_bit_set_t7processI4$_13EEvRKT_RKS_', symObjAddr: 0x1D8F4, symBinAddr: 0x8AC7C, symSize: 0x348 }
  - { offset: 0x46E1AC, size: 0x8, addend: 0x0, symName: __ZN12hb_bit_set_t8process_EPF16hb_vector_size_tIyLj64EERKS1_S3_EbbRKS_, symObjAddr: 0x1D3EC, symBinAddr: 0x8A774, symSize: 0x508 }
  - { offset: 0x46E7B5, size: 0x8, addend: 0x0, symName: __ZN12hb_hashmap_tIjN2hb10unique_ptrI8hb_set_tEELb0EE5allocEj, symObjAddr: 0x1CD9C, symBinAddr: 0x8A124, symSize: 0x164 }
  - { offset: 0x46EA1F, size: 0x8, addend: 0x0, symName: __ZN12hb_hashmap_tIjN2hb10unique_ptrI8hb_set_tEELb0EE13set_with_hashIjS3_EEbOT_jOT0_b, symObjAddr: 0x1CF00, symBinAddr: 0x8A288, symSize: 0x1A0 }
  - { offset: 0x46EF0A, size: 0x8, addend: 0x0, symName: '__ZN12hb_bit_set_t3op_I4$_15EE16hb_vector_size_tIyLj64EERKS3_S5_', symObjAddr: 0x1DC3C, symBinAddr: 0x8AFC4, symSize: 0x2C }
  - { offset: 0x46EF40, size: 0x8, addend: 0x0, symName: '__ZN12hb_bit_set_t3op_I4$_15EE16hb_vector_size_tIyLj64EERKS3_S5_', symObjAddr: 0x1DC3C, symBinAddr: 0x8AFC4, symSize: 0x2C }
  - { offset: 0x46F212, size: 0x8, addend: 0x0, symName: __ZNK2OT6Layout9GSUB_impl19SubstLookupSubTable8dispatchINS_26hb_have_non_1to1_context_tEJEEENT_8return_tEPS5_jDpOT0_, symObjAddr: 0x1DE4C, symBinAddr: 0x8B1D4, symSize: 0x100 }
  - { offset: 0x46FAF2, size: 0x8, addend: 0x0, symName: __ZNK2OT6Layout9GSUB_impl30ReverseChainSingleSubstFormat17closureEPNS_20hb_closure_context_tE, symObjAddr: 0x26A4C, symBinAddr: 0x93C10, symSize: 0xFC }
  - { offset: 0x46FECC, size: 0x8, addend: 0x0, symName: __ZNK2OT6Layout9GSUB_impl20SingleSubstFormat2_4INS0_10SmallTypesEE7closureEPNS_20hb_closure_context_tE, symObjAddr: 0x1F4C8, symBinAddr: 0x8C850, symSize: 0x1C0 }
  - { offset: 0x4704F1, size: 0x8, addend: 0x0, symName: __ZNK2OT14ContextFormat37closureEPNS_20hb_closure_context_tE, symObjAddr: 0x24B9C, symBinAddr: 0x91D60, symSize: 0x248 }
  - { offset: 0x470C08, size: 0x8, addend: 0x0, symName: __ZNK2OT19ChainContextFormat37closureEPNS_20hb_closure_context_tE, symObjAddr: 0x2669C, symBinAddr: 0x93860, symSize: 0x3B0 }
  - { offset: 0x471DE0, size: 0x8, addend: 0x0, symName: __ZNK2OT6Layout6Common17CoverageFormat1_3INS0_10SmallTypesEE13intersect_setIR8hb_set_tLPv0EEEvRKS6_OT_, symObjAddr: 0x1E4C4, symBinAddr: 0x8B84C, symSize: 0x18C }
  - { offset: 0x472369, size: 0x8, addend: 0x0, symName: __ZNK2OT6Layout6Common17CoverageFormat2_4INS0_10SmallTypesEE13intersect_setIR8hb_set_tLPv0EEEvRKS6_OT_, symObjAddr: 0x1E650, symBinAddr: 0x8B9D8, symSize: 0x570 }
  - { offset: 0x472F5D, size: 0x8, addend: 0x0, symName: __ZNK23hb_bit_set_invertible_t7get_maxEv, symObjAddr: 0x1ECD4, symBinAddr: 0x8C05C, symSize: 0xE8 }
  - { offset: 0x47309B, size: 0x8, addend: 0x0, symName: __ZNK14hb_sparseset_tI23hb_bit_set_invertible_tE4nextEPj, symObjAddr: 0x1EBC0, symBinAddr: 0x8BF48, symSize: 0x114 }
  - { offset: 0x4731F4, size: 0x8, addend: 0x0, symName: __ZNK12hb_bit_set_t8previousEPj, symObjAddr: 0x1EDBC, symBinAddr: 0x8C144, symSize: 0x300 }
  - { offset: 0x4735DF, size: 0x8, addend: 0x0, symName: __ZNK12hb_bit_set_t7get_maxEv, symObjAddr: 0x1F0BC, symBinAddr: 0x8C444, symSize: 0x190 }
  - { offset: 0x473870, size: 0x8, addend: 0x0, symName: '__ZorI13hb_zip_iter_tIN2OT6Layout6Common8Coverage6iter_tE10hb_array_tIKNS1_11HBGlyphID16EEE24hb_filter_iter_factory_tIRK8hb_set_tRK3$_8ELPv0EEDTclclsr3stdE7forwardIT0_Efp0_Eclsr3stdE7forwardIT_Efp_EEEOSL_OSK_', symObjAddr: 0x1F95C, symBinAddr: 0x8CCE4, symSize: 0x1B8 }
  - { offset: 0x474035, size: 0x8, addend: 0x0, symName: '__ZorI13hb_map_iter_tI16hb_filter_iter_tI13hb_zip_iter_tIN2OT6Layout6Common8Coverage6iter_tE10hb_array_tIKNS3_11HBGlyphID16EEERK8hb_set_tRK3$_8LPv0EERK3$_9L24hb_function_sortedness_t0ELSJ_0EE9hb_sink_tIRSD_ELSJ_0EEDTclclsr3stdE7forwardIT0_Efp0_Eclsr3stdE7forwardIT_Efp_EEEOSU_OST_', symObjAddr: 0x1F688, symBinAddr: 0x8CA10, symSize: 0x2D4 }
  - { offset: 0x476813, size: 0x8, addend: 0x0, symName: '__ZNK4$_18clIRKN2OT6Layout6Common8CoverageE15hb_range_iter_tIjjELPv0EEE13hb_zip_iter_tIDTcldtclL_ZL8hb_derefEcl10hb_declvalIT_EEE4iterEEDTcldtclL_ZL8hb_derefEcl10hb_declvalIT0_EEE4iterEEEOSB_OSD_', symObjAddr: 0x218D0, symBinAddr: 0x8EC58, symSize: 0x104 }
  - { offset: 0x477B4C, size: 0x8, addend: 0x0, symName: __ZNK2OT6Layout6Common17CoverageFormat1_3INS0_10SmallTypesEE10intersectsEPK8hb_set_t, symObjAddr: 0x2308C, symBinAddr: 0x90250, symSize: 0x2B0 }
  - { offset: 0x478398, size: 0x8, addend: 0x0, symName: __ZNK2OT17ClassDefFormat1_3INS_6Layout10SmallTypesEE16intersects_classEPK8hb_set_tt, symObjAddr: 0x23670, symBinAddr: 0x90834, symSize: 0x1AC }
  - { offset: 0x478847, size: 0x8, addend: 0x0, symName: __ZNK2OT17ClassDefFormat2_4INS_6Layout10SmallTypesEE16intersects_classEPK8hb_set_tt, symObjAddr: 0x2381C, symBinAddr: 0x909E0, symSize: 0x190 }
  - { offset: 0x478C7E, size: 0x8, addend: 0x0, symName: __ZN12hb_hashmap_tIj8hb_set_tLb0EE4finiEv, symObjAddr: 0x24AF8, symBinAddr: 0x91CBC, symSize: 0xA4 }
  - { offset: 0x478F4F, size: 0x8, addend: 0x0, symName: __ZN12hb_hashmap_tIjjLb1EE13set_with_hashIRKjRbEEbOT_jOT0_b, symObjAddr: 0x239AC, symBinAddr: 0x90B70, symSize: 0x19C }
  - { offset: 0x4791D3, size: 0x8, addend: 0x0, symName: __ZNK2OT17ClassDefFormat1_3INS_6Layout10SmallTypesEE24intersected_class_glyphsEPK8hb_set_tjPS4_, symObjAddr: 0x23B48, symBinAddr: 0x90D0C, symSize: 0x224 }
  - { offset: 0x479853, size: 0x8, addend: 0x0, symName: __ZNK2OT17ClassDefFormat2_4INS_6Layout10SmallTypesEE24intersected_class_glyphsEPK8hb_set_tjPS4_, symObjAddr: 0x23D6C, symBinAddr: 0x90F30, symSize: 0x748 }
  - { offset: 0x47AB38, size: 0x8, addend: 0x0, symName: __ZN12hb_hashmap_tIj8hb_set_tLb0EE13set_with_hashIRKjS0_EEbOT_jOT0_b, symObjAddr: 0x244B4, symBinAddr: 0x91678, symSize: 0x254 }
  - { offset: 0x47B3BE, size: 0x8, addend: 0x0, symName: __ZNK23hb_bit_set_invertible_t10intersectsEjj, symObjAddr: 0x23584, symBinAddr: 0x90748, symSize: 0xEC }
  - { offset: 0x47B500, size: 0x8, addend: 0x0, symName: __ZN12hb_hashmap_tIj8hb_set_tLb0EE5allocEj, symObjAddr: 0x24708, symBinAddr: 0x918CC, symSize: 0x19C }
  - { offset: 0x47BACD, size: 0x8, addend: 0x0, symName: __ZN12hb_hashmap_tIj8hb_set_tLb0EE13set_with_hashIjS0_EEbOT_jOT0_b, symObjAddr: 0x248A4, symBinAddr: 0x91A68, symSize: 0x254 }
  - { offset: 0x47D0C5, size: 0x8, addend: 0x0, symName: __ZNK2OT6Layout9GSUB_impl30ReverseChainSingleSubstFormat110intersectsEPK8hb_set_t, symObjAddr: 0x26B48, symBinAddr: 0x93D0C, symSize: 0x1EC }
  - { offset: 0x48CEEA, size: 0x8, addend: 0x0, symName: __ZN21hb_sanitize_context_t13sanitize_blobIN2OT6Layout4GPOSEEEP9hb_blob_tS5_, symObjAddr: 0x2A9F4, symBinAddr: 0x942E8, symSize: 0x288 }
  - { offset: 0x48D391, size: 0x8, addend: 0x0, symName: __ZNK2OT18GSUBGPOSVersion1_2INS_6Layout10SmallTypesEE8sanitizeINS1_9GPOS_impl9PosLookupEEEbP21hb_sanitize_context_t, symObjAddr: 0x2AC7C, symBinAddr: 0x94570, symSize: 0x1A0 }
  - { offset: 0x48E0E7, size: 0x8, addend: 0x0, symName: __ZNK2OT16List16OfOffsetToINS_6Layout9GPOS_impl9PosLookupENS_7IntTypeItLj2EEEE8sanitizeIJEEEbP21hb_sanitize_context_tDpOT_, symObjAddr: 0x2AE1C, symBinAddr: 0x94710, symSize: 0x120 }
  - { offset: 0x48E9A3, size: 0x8, addend: 0x0, symName: __ZNK2OT6Lookup8sanitizeINS_6Layout9GPOS_impl17PosLookupSubTableEEEbP21hb_sanitize_context_t, symObjAddr: 0x2AF3C, symBinAddr: 0x94830, symSize: 0x2F4 }
  - { offset: 0x48FACF, size: 0x8, addend: 0x0, symName: __ZNK2OT6Layout9GPOS_impl17PosLookupSubTable8dispatchI21hb_sanitize_context_tJEEENT_8return_tEPS5_jDpOT0_, symObjAddr: 0x2B230, symBinAddr: 0x94B24, symSize: 0x260 }
  - { offset: 0x491584, size: 0x8, addend: 0x0, symName: __ZNK2OT6Layout9GPOS_impl16SinglePosFormat18sanitizeEP21hb_sanitize_context_t, symObjAddr: 0x2B4B0, symBinAddr: 0x94DA4, symSize: 0x2E4 }
  - { offset: 0x491CA0, size: 0x8, addend: 0x0, symName: __ZNK2OT6Layout9GPOS_impl16PairPosFormat1_3INS0_10SmallTypesEE8sanitizeEP21hb_sanitize_context_t, symObjAddr: 0x2BD34, symBinAddr: 0x95628, symSize: 0x1E0 }
  - { offset: 0x49271E, size: 0x8, addend: 0x0, symName: __ZNK2OT6Layout9GPOS_impl17CursivePosFormat18sanitizeEP21hb_sanitize_context_t, symObjAddr: 0x2C310, symBinAddr: 0x95C04, symSize: 0x1B4 }
  - { offset: 0x492C97, size: 0x8, addend: 0x0, symName: __ZNK2OT6Layout9GPOS_impl20MarkBasePosFormat1_2INS0_10SmallTypesEE8sanitizeEP21hb_sanitize_context_t, symObjAddr: 0x2C8A0, symBinAddr: 0x96194, symSize: 0x1A4 }
  - { offset: 0x4937F7, size: 0x8, addend: 0x0, symName: __ZNK2OT6Layout9GPOS_impl19MarkLigPosFormat1_2INS0_10SmallTypesEE8sanitizeEP21hb_sanitize_context_t, symObjAddr: 0x2CD98, symBinAddr: 0x9668C, symSize: 0x1B8 }
  - { offset: 0x4943B6, size: 0x8, addend: 0x0, symName: __ZNK2OT6Layout9GPOS_impl20MarkMarkPosFormat1_2INS0_10SmallTypesEE8sanitizeEP21hb_sanitize_context_t, symObjAddr: 0x2D078, symBinAddr: 0x9696C, symSize: 0x1A4 }
  - { offset: 0x494F41, size: 0x8, addend: 0x0, symName: __ZNK2OT6Layout9GPOS_impl16SinglePosFormat28sanitizeEP21hb_sanitize_context_t, symObjAddr: 0x2BBB0, symBinAddr: 0x954A4, symSize: 0x184 }
  - { offset: 0x4953E3, size: 0x8, addend: 0x0, symName: __ZNK2OT6Layout9GPOS_impl16PairPosFormat2_4INS0_10SmallTypesEE8sanitizeEP21hb_sanitize_context_t, symObjAddr: 0x2C098, symBinAddr: 0x9598C, symSize: 0x278 }
  - { offset: 0x496095, size: 0x8, addend: 0x0, symName: __ZNK2OT6Layout9GPOS_impl11ValueFormat22sanitize_value_devicesEP21hb_sanitize_context_tPKNS1_9ValueBaseEPKNS_7IntTypeItLj2EEE, symObjAddr: 0x2B794, symBinAddr: 0x95088, symSize: 0x41C }
  - { offset: 0x4960FF, size: 0x8, addend: 0x0, symName: __ZNK2OT6Layout9GPOS_impl11ValueFormat22sanitize_value_devicesEP21hb_sanitize_context_tPKNS1_9ValueBaseEPKNS_7IntTypeItLj2EEE, symObjAddr: 0x2B794, symBinAddr: 0x95088, symSize: 0x41C }
  - { offset: 0x49611D, size: 0x8, addend: 0x0, symName: __ZNK2OT6Layout9GPOS_impl11ValueFormat22sanitize_value_devicesEP21hb_sanitize_context_tPKNS1_9ValueBaseEPKNS_7IntTypeItLj2EEE, symObjAddr: 0x2B794, symBinAddr: 0x95088, symSize: 0x41C }
  - { offset: 0x497975, size: 0x8, addend: 0x0, symName: __ZNK2OT6Layout9GPOS_impl7PairSetINS0_10SmallTypesEE8sanitizeEP21hb_sanitize_context_tPKNS4_18sanitize_closure_tE, symObjAddr: 0x2BF14, symBinAddr: 0x95808, symSize: 0x184 }
  - { offset: 0x497F2F, size: 0x8, addend: 0x0, symName: __ZNK2OT6Layout9GPOS_impl15EntryExitRecord8sanitizeEP21hb_sanitize_context_tPKNS1_17CursivePosFormat1E, symObjAddr: 0x2C4C4, symBinAddr: 0x95DB8, symSize: 0x1E4 }
  - { offset: 0x498B21, size: 0x8, addend: 0x0, symName: __ZNK2OT6Layout9GPOS_impl13AnchorFormat38sanitizeEP21hb_sanitize_context_t, symObjAddr: 0x2C6A8, symBinAddr: 0x95F9C, symSize: 0x1F8 }
  - { offset: 0x498B65, size: 0x8, addend: 0x0, symName: __ZNK2OT6Layout9GPOS_impl13AnchorFormat38sanitizeEP21hb_sanitize_context_t, symObjAddr: 0x2C6A8, symBinAddr: 0x95F9C, symSize: 0x1F8 }
  - { offset: 0x499912, size: 0x8, addend: 0x0, symName: __ZNK2OT6Layout9GPOS_impl9MarkArray8sanitizeEP21hb_sanitize_context_t, symObjAddr: 0x2CA44, symBinAddr: 0x96338, symSize: 0x19C }
  - { offset: 0x499FFB, size: 0x8, addend: 0x0, symName: __ZNK2OT6Layout9GPOS_impl12AnchorMatrix8sanitizeEP21hb_sanitize_context_tj, symObjAddr: 0x2CBE0, symBinAddr: 0x964D4, symSize: 0x1B8 }
  - { offset: 0x49ADA3, size: 0x8, addend: 0x0, symName: __ZNK2OT16List16OfOffsetToINS_6Layout9GPOS_impl12AnchorMatrixENS_7IntTypeItLj2EEEE8sanitizeIJjEEEbP21hb_sanitize_context_tDpOT_, symObjAddr: 0x2CF50, symBinAddr: 0x96844, symSize: 0x128 }
  - { offset: 0x49B894, size: 0x8, addend: 0x0, symName: __ZNK2OT14BaseScriptList15get_base_scriptEj, symObjAddr: 0x2D570, symBinAddr: 0x96DCC, symSize: 0x158 }
  - { offset: 0x49B8DE, size: 0x8, addend: 0x0, symName: __ZNK2OT14BaseScriptList15get_base_scriptEj, symObjAddr: 0x2D570, symBinAddr: 0x96DCC, symSize: 0x158 }
  - { offset: 0x49B906, size: 0x8, addend: 0x0, symName: __ZNK2OT14BaseScriptList15get_base_scriptEj, symObjAddr: 0x2D570, symBinAddr: 0x96DCC, symSize: 0x158 }
  - { offset: 0x49B924, size: 0x8, addend: 0x0, symName: __ZNK2OT14BaseScriptList15get_base_scriptEj, symObjAddr: 0x2D570, symBinAddr: 0x96DCC, symSize: 0x158 }
  - { offset: 0x49B942, size: 0x8, addend: 0x0, symName: __ZNK2OT14BaseScriptList15get_base_scriptEj, symObjAddr: 0x2D570, symBinAddr: 0x96DCC, symSize: 0x158 }
  - { offset: 0x49BD23, size: 0x8, addend: 0x0, symName: __ZNK2OT6MinMax11get_min_maxEjPPKNS_9BaseCoordES4_, symObjAddr: 0x2D6C8, symBinAddr: 0x96F24, symSize: 0x10C }
  - { offset: 0x49BDAB, size: 0x8, addend: 0x0, symName: __ZNK2OT6MinMax11get_min_maxEjPPKNS_9BaseCoordES4_, symObjAddr: 0x2D6C8, symBinAddr: 0x96F24, symSize: 0x10C }
  - { offset: 0x49BDCB, size: 0x8, addend: 0x0, symName: __ZNK2OT6MinMax11get_min_maxEjPPKNS_9BaseCoordES4_, symObjAddr: 0x2D6C8, symBinAddr: 0x96F24, symSize: 0x10C }
  - { offset: 0x49BDEB, size: 0x8, addend: 0x0, symName: __ZNK2OT6MinMax11get_min_maxEjPPKNS_9BaseCoordES4_, symObjAddr: 0x2D6C8, symBinAddr: 0x96F24, symSize: 0x10C }
  - { offset: 0x49CD26, size: 0x8, addend: 0x0, symName: __ZNK2OT6Layout9GSUB_impl19SubstLookupSubTable8dispatchINS_33hb_accelerate_subtables_context_tEJEEENT_8return_tEPS5_jDpOT0_, symObjAddr: 0x2DE20, symBinAddr: 0x97344, symSize: 0x308 }
  - { offset: 0x49D7F5, size: 0x8, addend: 0x0, symName: __ZN2OT33hb_accelerate_subtables_context_t15hb_applicable_t4initINS_6Layout9GSUB_impl20SingleSubstFormat1_3INS3_10SmallTypesEEEEEvRKT_PFbPKvPNS_21hb_ot_apply_context_tEESG_PFPvSH_NS_23hb_ot_lookup_cache_op_tEE, symObjAddr: 0x2E478, symBinAddr: 0x9799C, symSize: 0x114 }
  - { offset: 0x49DC20, size: 0x8, addend: 0x0, symName: __ZNK2OT12ChainContext8dispatchINS_33hb_accelerate_subtables_context_tEJEEENT_8return_tEPS3_DpOT0_, symObjAddr: 0x2E2CC, symBinAddr: 0x977F0, symSize: 0x1AC }
  - { offset: 0x49E049, size: 0x8, addend: 0x0, symName: __ZN2OT33hb_accelerate_subtables_context_t15hb_applicable_t4initINS_6Layout9GSUB_impl22MultipleSubstFormat1_2INS3_10SmallTypesEEEEEvRKT_PFbPKvPNS_21hb_ot_apply_context_tEESG_PFPvSH_NS_23hb_ot_lookup_cache_op_tEE, symObjAddr: 0x2EC84, symBinAddr: 0x981A8, symSize: 0x114 }
  - { offset: 0x49E474, size: 0x8, addend: 0x0, symName: __ZN2OT33hb_accelerate_subtables_context_t15hb_applicable_t4initINS_6Layout9GSUB_impl23AlternateSubstFormat1_2INS3_10SmallTypesEEEEEvRKT_PFbPKvPNS_21hb_ot_apply_context_tEESG_PFPvSH_NS_23hb_ot_lookup_cache_op_tEE, symObjAddr: 0x2F2C4, symBinAddr: 0x987E8, symSize: 0x114 }
  - { offset: 0x49E89F, size: 0x8, addend: 0x0, symName: __ZN2OT33hb_accelerate_subtables_context_t15hb_applicable_t4initINS_6Layout9GSUB_impl22LigatureSubstFormat1_2INS3_10SmallTypesEEEEEvRKT_PFbPKvPNS_21hb_ot_apply_context_tEESG_PFPvSH_NS_23hb_ot_lookup_cache_op_tEE, symObjAddr: 0x2F854, symBinAddr: 0x98D78, symSize: 0x114 }
  - { offset: 0x49ECCA, size: 0x8, addend: 0x0, symName: __ZNK2OT7Context8dispatchINS_33hb_accelerate_subtables_context_tEJEEENT_8return_tEPS3_DpOT0_, symObjAddr: 0x2E148, symBinAddr: 0x9766C, symSize: 0x184 }
  - { offset: 0x49F127, size: 0x8, addend: 0x0, symName: __ZN2OT33hb_accelerate_subtables_context_t15hb_applicable_t4initINS_6Layout9GSUB_impl30ReverseChainSingleSubstFormat1EEEvRKT_PFbPKvPNS_21hb_ot_apply_context_tEESE_PFPvSF_NS_23hb_ot_lookup_cache_op_tEE, symObjAddr: 0x35ED0, symBinAddr: 0x9F1EC, symSize: 0x114 }
  - { offset: 0x49F552, size: 0x8, addend: 0x0, symName: __ZN2OT33hb_accelerate_subtables_context_t15hb_applicable_t4initINS_6Layout9GSUB_impl20SingleSubstFormat2_4INS3_10SmallTypesEEEEEvRKT_PFbPKvPNS_21hb_ot_apply_context_tEESG_PFPvSH_NS_23hb_ot_lookup_cache_op_tEE, symObjAddr: 0x2E9A4, symBinAddr: 0x97EC8, symSize: 0x114 }
  - { offset: 0x49FAD3, size: 0x8, addend: 0x0, symName: __ZN2OT33hb_accelerate_subtables_context_t15hb_applicable_t4initINS_16ContextFormat1_4INS_6Layout10SmallTypesEEEEEvRKT_PFbPKvPNS_21hb_ot_apply_context_tEESF_PFPvSG_NS_23hb_ot_lookup_cache_op_tEE, symObjAddr: 0x30F10, symBinAddr: 0x9A22C, symSize: 0x114 }
  - { offset: 0x49FEFF, size: 0x8, addend: 0x0, symName: __ZN2OT33hb_accelerate_subtables_context_t15hb_applicable_t4initINS_14ContextFormat3EEEvRKT_PFbPKvPNS_21hb_ot_apply_context_tEESC_PFPvSD_NS_23hb_ot_lookup_cache_op_tEE, symObjAddr: 0x32C44, symBinAddr: 0x9BF60, symSize: 0x114 }
  - { offset: 0x4A032B, size: 0x8, addend: 0x0, symName: __ZN2OT33hb_accelerate_subtables_context_t15hb_applicable_t4initINS_16ContextFormat2_5INS_6Layout10SmallTypesEEEEEvRKT_PFbPKvPNS_21hb_ot_apply_context_tEESF_PFPvSG_NS_23hb_ot_lookup_cache_op_tEE, symObjAddr: 0x326F0, symBinAddr: 0x9BA0C, symSize: 0x114 }
  - { offset: 0x4A0874, size: 0x8, addend: 0x0, symName: __ZN2OT33hb_accelerate_subtables_context_t15hb_applicable_t4initINS_21ChainContextFormat1_4INS_6Layout10SmallTypesEEEEEvRKT_PFbPKvPNS_21hb_ot_apply_context_tEESF_PFPvSG_NS_23hb_ot_lookup_cache_op_tEE, symObjAddr: 0x33430, symBinAddr: 0x9C74C, symSize: 0x114 }
  - { offset: 0x4A0CA0, size: 0x8, addend: 0x0, symName: __ZN2OT33hb_accelerate_subtables_context_t15hb_applicable_t4initINS_19ChainContextFormat3EEEvRKT_PFbPKvPNS_21hb_ot_apply_context_tEESC_PFPvSD_NS_23hb_ot_lookup_cache_op_tEE, symObjAddr: 0x352D4, symBinAddr: 0x9E5F0, symSize: 0x150 }
  - { offset: 0x4A11F4, size: 0x8, addend: 0x0, symName: __ZN2OT33hb_accelerate_subtables_context_t15hb_applicable_t4initINS_21ChainContextFormat2_5INS_6Layout10SmallTypesEEEEEvRKT_PFbPKvPNS_21hb_ot_apply_context_tEESF_PFPvSG_NS_23hb_ot_lookup_cache_op_tEE, symObjAddr: 0x34BEC, symBinAddr: 0x9DF08, symSize: 0x114 }
  - { offset: 0x4A1636, size: 0x8, addend: 0x0, symName: __ZN2OT33hb_accelerate_subtables_context_t8apply_toINS_6Layout9GSUB_impl20SingleSubstFormat1_3INS2_10SmallTypesEEEEEbPKvPNS_21hb_ot_apply_context_tE, symObjAddr: 0x2E58C, symBinAddr: 0x97AB0, symSize: 0x4 }
  - { offset: 0x4A167A, size: 0x8, addend: 0x0, symName: __ZN2OT33hb_accelerate_subtables_context_t8apply_toINS_6Layout9GSUB_impl20SingleSubstFormat1_3INS2_10SmallTypesEEEEEbPKvPNS_21hb_ot_apply_context_tE, symObjAddr: 0x2E58C, symBinAddr: 0x97AB0, symSize: 0x4 }
  - { offset: 0x4A169D, size: 0x8, addend: 0x0, symName: __ZNK2OT6Layout9GSUB_impl20SingleSubstFormat1_3INS0_10SmallTypesEE5applyEPNS_21hb_ot_apply_context_tE, symObjAddr: 0x2E59C, symBinAddr: 0x97AC0, symSize: 0x184 }
  - { offset: 0x4A19EF, size: 0x8, addend: 0x0, symName: __ZN2OT33hb_accelerate_subtables_context_t15apply_cached_toINS_6Layout9GSUB_impl20SingleSubstFormat1_3INS2_10SmallTypesEEEEEbPKvPNS_21hb_ot_apply_context_tE, symObjAddr: 0x2E590, symBinAddr: 0x97AB4, symSize: 0x4 }
  - { offset: 0x4A1A34, size: 0x8, addend: 0x0, symName: __ZN2OT33hb_accelerate_subtables_context_t15apply_cached_toINS_6Layout9GSUB_impl20SingleSubstFormat1_3INS2_10SmallTypesEEEEEbPKvPNS_21hb_ot_apply_context_tE, symObjAddr: 0x2E590, symBinAddr: 0x97AB4, symSize: 0x4 }
  - { offset: 0x4A1A5A, size: 0x8, addend: 0x0, symName: __ZN2OT33hb_accelerate_subtables_context_t15apply_cached_toINS_6Layout9GSUB_impl20SingleSubstFormat1_3INS2_10SmallTypesEEEEEbPKvPNS_21hb_ot_apply_context_tE, symObjAddr: 0x2E590, symBinAddr: 0x97AB4, symSize: 0x4 }
  - { offset: 0x4A1A7D, size: 0x8, addend: 0x0, symName: __ZN2OT33hb_accelerate_subtables_context_t13cache_func_toINS_6Layout9GSUB_impl20SingleSubstFormat1_3INS2_10SmallTypesEEEEEPvS7_NS_23hb_ot_lookup_cache_op_tE, symObjAddr: 0x2E594, symBinAddr: 0x97AB8, symSize: 0x8 }
  - { offset: 0x4A1B87, size: 0x8, addend: 0x0, symName: __ZN2OT21hb_ot_apply_context_t16_set_glyph_classEjjbb, symObjAddr: 0x2E7D4, symBinAddr: 0x97CF8, symSize: 0x1D0 }
  - { offset: 0x4A1F08, size: 0x8, addend: 0x0, symName: __ZN2OT21hb_ot_apply_context_t13replace_glyphEj, symObjAddr: 0x2E720, symBinAddr: 0x97C44, symSize: 0xB4 }
  - { offset: 0x4A203B, size: 0x8, addend: 0x0, symName: __ZN2OT33hb_accelerate_subtables_context_t8apply_toINS_6Layout9GSUB_impl20SingleSubstFormat2_4INS2_10SmallTypesEEEEEbPKvPNS_21hb_ot_apply_context_tE, symObjAddr: 0x2EAB8, symBinAddr: 0x97FDC, symSize: 0x4 }
  - { offset: 0x4A207F, size: 0x8, addend: 0x0, symName: __ZN2OT33hb_accelerate_subtables_context_t8apply_toINS_6Layout9GSUB_impl20SingleSubstFormat2_4INS2_10SmallTypesEEEEEbPKvPNS_21hb_ot_apply_context_tE, symObjAddr: 0x2EAB8, symBinAddr: 0x97FDC, symSize: 0x4 }
  - { offset: 0x4A20A2, size: 0x8, addend: 0x0, symName: __ZNK2OT6Layout9GSUB_impl20SingleSubstFormat2_4INS0_10SmallTypesEE5applyEPNS_21hb_ot_apply_context_tE, symObjAddr: 0x2EAC8, symBinAddr: 0x97FEC, symSize: 0x1BC }
  - { offset: 0x4A2476, size: 0x8, addend: 0x0, symName: __ZN2OT33hb_accelerate_subtables_context_t15apply_cached_toINS_6Layout9GSUB_impl20SingleSubstFormat2_4INS2_10SmallTypesEEEEEbPKvPNS_21hb_ot_apply_context_tE, symObjAddr: 0x2EABC, symBinAddr: 0x97FE0, symSize: 0x4 }
  - { offset: 0x4A24BB, size: 0x8, addend: 0x0, symName: __ZN2OT33hb_accelerate_subtables_context_t15apply_cached_toINS_6Layout9GSUB_impl20SingleSubstFormat2_4INS2_10SmallTypesEEEEEbPKvPNS_21hb_ot_apply_context_tE, symObjAddr: 0x2EABC, symBinAddr: 0x97FE0, symSize: 0x4 }
  - { offset: 0x4A24E1, size: 0x8, addend: 0x0, symName: __ZN2OT33hb_accelerate_subtables_context_t15apply_cached_toINS_6Layout9GSUB_impl20SingleSubstFormat2_4INS2_10SmallTypesEEEEEbPKvPNS_21hb_ot_apply_context_tE, symObjAddr: 0x2EABC, symBinAddr: 0x97FE0, symSize: 0x4 }
  - { offset: 0x4A2504, size: 0x8, addend: 0x0, symName: __ZN2OT33hb_accelerate_subtables_context_t13cache_func_toINS_6Layout9GSUB_impl20SingleSubstFormat2_4INS2_10SmallTypesEEEEEPvS7_NS_23hb_ot_lookup_cache_op_tE, symObjAddr: 0x2EAC0, symBinAddr: 0x97FE4, symSize: 0x8 }
  - { offset: 0x4A25C2, size: 0x8, addend: 0x0, symName: __ZN2OT33hb_accelerate_subtables_context_t8apply_toINS_6Layout9GSUB_impl22MultipleSubstFormat1_2INS2_10SmallTypesEEEEEbPKvPNS_21hb_ot_apply_context_tE, symObjAddr: 0x2ED98, symBinAddr: 0x982BC, symSize: 0xB0 }
  - { offset: 0x4A287C, size: 0x8, addend: 0x0, symName: __ZNK2OT6Layout9GSUB_impl8SequenceINS0_10SmallTypesEE5applyEPNS_21hb_ot_apply_context_tE, symObjAddr: 0x2EF00, symBinAddr: 0x98424, symSize: 0x3C4 }
  - { offset: 0x4A2D23, size: 0x8, addend: 0x0, symName: __ZN2OT33hb_accelerate_subtables_context_t15apply_cached_toINS_6Layout9GSUB_impl22MultipleSubstFormat1_2INS2_10SmallTypesEEEEEbPKvPNS_21hb_ot_apply_context_tE, symObjAddr: 0x2EE48, symBinAddr: 0x9836C, symSize: 0xB0 }
  - { offset: 0x4A3008, size: 0x8, addend: 0x0, symName: __ZN2OT33hb_accelerate_subtables_context_t13cache_func_toINS_6Layout9GSUB_impl22MultipleSubstFormat1_2INS2_10SmallTypesEEEEEPvS7_NS_23hb_ot_lookup_cache_op_tE, symObjAddr: 0x2EEF8, symBinAddr: 0x9841C, symSize: 0x8 }
  - { offset: 0x4A31BE, size: 0x8, addend: 0x0, symName: __ZN2OT33hb_accelerate_subtables_context_t8apply_toINS_6Layout9GSUB_impl23AlternateSubstFormat1_2INS2_10SmallTypesEEEEEbPKvPNS_21hb_ot_apply_context_tE, symObjAddr: 0x2F3D8, symBinAddr: 0x988FC, symSize: 0xB0 }
  - { offset: 0x4A3478, size: 0x8, addend: 0x0, symName: __ZNK2OT6Layout9GSUB_impl12AlternateSetINS0_10SmallTypesEE5applyEPNS_21hb_ot_apply_context_tE, symObjAddr: 0x2F540, symBinAddr: 0x98A64, symSize: 0x314 }
  - { offset: 0x4A39C2, size: 0x8, addend: 0x0, symName: __ZN2OT33hb_accelerate_subtables_context_t15apply_cached_toINS_6Layout9GSUB_impl23AlternateSubstFormat1_2INS2_10SmallTypesEEEEEbPKvPNS_21hb_ot_apply_context_tE, symObjAddr: 0x2F488, symBinAddr: 0x989AC, symSize: 0xB0 }
  - { offset: 0x4A3CA7, size: 0x8, addend: 0x0, symName: __ZN2OT33hb_accelerate_subtables_context_t13cache_func_toINS_6Layout9GSUB_impl23AlternateSubstFormat1_2INS2_10SmallTypesEEEEEPvS7_NS_23hb_ot_lookup_cache_op_tE, symObjAddr: 0x2F538, symBinAddr: 0x98A5C, symSize: 0x8 }
  - { offset: 0x4A3E30, size: 0x8, addend: 0x0, symName: __ZN2OT33hb_accelerate_subtables_context_t8apply_toINS_6Layout9GSUB_impl22LigatureSubstFormat1_2INS2_10SmallTypesEEEEEbPKvPNS_21hb_ot_apply_context_tE, symObjAddr: 0x2F968, symBinAddr: 0x98E8C, symSize: 0xB0 }
  - { offset: 0x4A4168, size: 0x8, addend: 0x0, symName: __ZNK2OT6Layout9GSUB_impl11LigatureSetINS0_10SmallTypesEE5applyEPNS_21hb_ot_apply_context_tE, symObjAddr: 0x2FBD0, symBinAddr: 0x990F4, symSize: 0x534 }
  - { offset: 0x4A4996, size: 0x8, addend: 0x0, symName: __ZN2OT33hb_accelerate_subtables_context_t15apply_cached_toINS_6Layout9GSUB_impl22LigatureSubstFormat1_2INS2_10SmallTypesEEEEEbPKvPNS_21hb_ot_apply_context_tE, symObjAddr: 0x2FA18, symBinAddr: 0x98F3C, symSize: 0x8 }
  - { offset: 0x4A49DB, size: 0x8, addend: 0x0, symName: __ZN2OT33hb_accelerate_subtables_context_t15apply_cached_toINS_6Layout9GSUB_impl22LigatureSubstFormat1_2INS2_10SmallTypesEEEEEbPKvPNS_21hb_ot_apply_context_tE, symObjAddr: 0x2FA18, symBinAddr: 0x98F3C, symSize: 0x8 }
  - { offset: 0x4A4A01, size: 0x8, addend: 0x0, symName: __ZN2OT33hb_accelerate_subtables_context_t15apply_cached_toINS_6Layout9GSUB_impl22LigatureSubstFormat1_2INS2_10SmallTypesEEEEEbPKvPNS_21hb_ot_apply_context_tE, symObjAddr: 0x2FA18, symBinAddr: 0x98F3C, symSize: 0x8 }
  - { offset: 0x4A4A50, size: 0x8, addend: 0x0, symName: __ZNK2OT6Layout9GSUB_impl22LigatureSubstFormat1_2INS0_10SmallTypesEE6_applyEPNS_21hb_ot_apply_context_tEb, symObjAddr: 0x2FA94, symBinAddr: 0x98FB8, symSize: 0x13C }
  - { offset: 0x4A4EA5, size: 0x8, addend: 0x0, symName: __ZN2OT33hb_accelerate_subtables_context_t13cache_func_toINS_6Layout9GSUB_impl22LigatureSubstFormat1_2INS2_10SmallTypesEEEEEPvS7_NS_23hb_ot_lookup_cache_op_tE, symObjAddr: 0x2FA20, symBinAddr: 0x98F44, symSize: 0x74 }
  - { offset: 0x4A507D, size: 0x8, addend: 0x0, symName: __ZNK2OT6Layout9GSUB_impl8LigatureINS0_10SmallTypesEE5applyEPNS_21hb_ot_apply_context_tE, symObjAddr: 0x30104, symBinAddr: 0x99628, symSize: 0x774 }
  - { offset: 0x4A5B4E, size: 0x8, addend: 0x0, symName: __ZN2OT33hb_accelerate_subtables_context_t8apply_toINS_16ContextFormat1_4INS_6Layout10SmallTypesEEEEEbPKvPNS_21hb_ot_apply_context_tE, symObjAddr: 0x31024, symBinAddr: 0x9A340, symSize: 0xD4 }
  - { offset: 0x4A5E58, size: 0x8, addend: 0x0, symName: __ZN2OT33hb_accelerate_subtables_context_t15apply_cached_toINS_16ContextFormat1_4INS_6Layout10SmallTypesEEEEEbPKvPNS_21hb_ot_apply_context_tE, symObjAddr: 0x310F8, symBinAddr: 0x9A414, symSize: 0xD4 }
  - { offset: 0x4A6151, size: 0x8, addend: 0x0, symName: __ZN2OT33hb_accelerate_subtables_context_t13cache_func_toINS_16ContextFormat1_4INS_6Layout10SmallTypesEEEEEPvS6_NS_23hb_ot_lookup_cache_op_tE, symObjAddr: 0x311CC, symBinAddr: 0x9A4E8, symSize: 0x8 }
  - { offset: 0x4A6654, size: 0x8, addend: 0x0, symName: __ZNK2OT4RuleINS_6Layout10SmallTypesEE5applyEPNS_21hb_ot_apply_context_tERKNS_25ContextApplyLookupContextE, symObjAddr: 0x31B20, symBinAddr: 0x9AE3C, symSize: 0x694 }
  - { offset: 0x4A6E36, size: 0x8, addend: 0x0, symName: '__ZorI13hb_map_iter_tI10hb_array_tIKN2OT8OffsetToINS2_4RuleINS2_6Layout10SmallTypesEEENS2_7IntTypeItLj2EEEvLb1EEEE12hb_partial_tILj2EPK4$_39PKNS2_7RuleSetIS6_EEEL24hb_function_sortedness_t0ELPv0EE24hb_filter_iter_factory_tIZNKSI_5applyEPNS2_21hb_ot_apply_context_tERKNS2_25ContextApplyLookupContextEEUlRKS7_E0_RK3$_6ELSN_0EEDTclclsr3stdE7forwardIT0_Efp0_Eclsr3stdE7forwardIT_Efp_EEEOS13_OS12_', symObjAddr: 0x31AB0, symBinAddr: 0x9ADCC, symSize: 0x70 }
  - { offset: 0x4A6E75, size: 0x8, addend: 0x0, symName: '__ZorI13hb_map_iter_tI10hb_array_tIKN2OT8OffsetToINS2_4RuleINS2_6Layout10SmallTypesEEENS2_7IntTypeItLj2EEEvLb1EEEE12hb_partial_tILj2EPK4$_39PKNS2_7RuleSetIS6_EEEL24hb_function_sortedness_t0ELPv0EE24hb_filter_iter_factory_tIZNKSI_5applyEPNS2_21hb_ot_apply_context_tERKNS2_25ContextApplyLookupContextEEUlRKS7_E0_RK3$_6ELSN_0EEDTclclsr3stdE7forwardIT0_Efp0_Eclsr3stdE7forwardIT_Efp_EEEOS13_OS12_', symObjAddr: 0x31AB0, symBinAddr: 0x9ADCC, symSize: 0x70 }
  - { offset: 0x4A6E8B, size: 0x8, addend: 0x0, symName: '__ZorI13hb_map_iter_tI10hb_array_tIKN2OT8OffsetToINS2_4RuleINS2_6Layout10SmallTypesEEENS2_7IntTypeItLj2EEEvLb1EEEE12hb_partial_tILj2EPK4$_39PKNS2_7RuleSetIS6_EEEL24hb_function_sortedness_t0ELPv0EE24hb_filter_iter_factory_tIZNKSI_5applyEPNS2_21hb_ot_apply_context_tERKNS2_25ContextApplyLookupContextEEUlRKS7_E0_RK3$_6ELSN_0EEDTclclsr3stdE7forwardIT0_Efp0_Eclsr3stdE7forwardIT_Efp_EEEOS13_OS12_', symObjAddr: 0x31AB0, symBinAddr: 0x9ADCC, symSize: 0x70 }
  - { offset: 0x4A6EB1, size: 0x8, addend: 0x0, symName: '__ZorI13hb_map_iter_tI10hb_array_tIKN2OT8OffsetToINS2_4RuleINS2_6Layout10SmallTypesEEENS2_7IntTypeItLj2EEEvLb1EEEE12hb_partial_tILj2EPK4$_39PKNS2_7RuleSetIS6_EEEL24hb_function_sortedness_t0ELPv0EE24hb_filter_iter_factory_tIZNKSI_5applyEPNS2_21hb_ot_apply_context_tERKNS2_25ContextApplyLookupContextEEUlRKS7_E0_RK3$_6ELSN_0EEDTclclsr3stdE7forwardIT0_Efp0_Eclsr3stdE7forwardIT_Efp_EEEOS13_OS12_', symObjAddr: 0x31AB0, symBinAddr: 0x9ADCC, symSize: 0x70 }
  - { offset: 0x4A7220, size: 0x8, addend: 0x0, symName: '__ZorI13hb_map_iter_tI16hb_filter_iter_tIS0_I10hb_array_tIKN2OT8OffsetToINS3_4RuleINS3_6Layout10SmallTypesEEENS3_7IntTypeItLj2EEEvLb1EEEE12hb_partial_tILj2EPK4$_39PKNS3_7RuleSetIS7_EEEL24hb_function_sortedness_t0ELPv0EEZNKSJ_5applyEPNS3_21hb_ot_apply_context_tERKNS3_25ContextApplyLookupContextEEUlRKS8_E0_RK3$_6LSO_0EEZNKSJ_5applyESR_SU_EUlSW_E1_LSN_0ELSO_0EERK4$_33LSO_0EEDTclclsr3stdE7forwardIT0_Efp0_Eclsr3stdE7forwardIT_Efp_EEEOS18_OS17_', symObjAddr: 0x319E4, symBinAddr: 0x9AD00, symSize: 0xCC }
  - { offset: 0x4A7EBD, size: 0x8, addend: 0x0, symName: __ZN2OT33hb_accelerate_subtables_context_t8apply_toINS_16ContextFormat2_5INS_6Layout10SmallTypesEEEEEbPKvPNS_21hb_ot_apply_context_tE, symObjAddr: 0x32804, symBinAddr: 0x9BB20, symSize: 0x8 }
  - { offset: 0x4A7F02, size: 0x8, addend: 0x0, symName: __ZN2OT33hb_accelerate_subtables_context_t8apply_toINS_16ContextFormat2_5INS_6Layout10SmallTypesEEEEEbPKvPNS_21hb_ot_apply_context_tE, symObjAddr: 0x32804, symBinAddr: 0x9BB20, symSize: 0x8 }
  - { offset: 0x4A7F50, size: 0x8, addend: 0x0, symName: __ZNK2OT16ContextFormat2_5INS_6Layout10SmallTypesEE6_applyEPNS_21hb_ot_apply_context_tEb, symObjAddr: 0x328C0, symBinAddr: 0x9BBDC, symSize: 0x228 }
  - { offset: 0x4A87D5, size: 0x8, addend: 0x0, symName: __ZN2OT33hb_accelerate_subtables_context_t15apply_cached_toINS_16ContextFormat2_5INS_6Layout10SmallTypesEEEEEbPKvPNS_21hb_ot_apply_context_tE, symObjAddr: 0x3280C, symBinAddr: 0x9BB28, symSize: 0x8 }
  - { offset: 0x4A881A, size: 0x8, addend: 0x0, symName: __ZN2OT33hb_accelerate_subtables_context_t15apply_cached_toINS_16ContextFormat2_5INS_6Layout10SmallTypesEEEEEbPKvPNS_21hb_ot_apply_context_tE, symObjAddr: 0x3280C, symBinAddr: 0x9BB28, symSize: 0x8 }
  - { offset: 0x4A8840, size: 0x8, addend: 0x0, symName: __ZN2OT33hb_accelerate_subtables_context_t15apply_cached_toINS_16ContextFormat2_5INS_6Layout10SmallTypesEEEEEbPKvPNS_21hb_ot_apply_context_tE, symObjAddr: 0x3280C, symBinAddr: 0x9BB28, symSize: 0x8 }
  - { offset: 0x4A89CC, size: 0x8, addend: 0x0, symName: __ZN2OT33hb_accelerate_subtables_context_t13cache_func_toINS_16ContextFormat2_5INS_6Layout10SmallTypesEEEEEPvS6_NS_23hb_ot_lookup_cache_op_tE, symObjAddr: 0x32814, symBinAddr: 0x9BB30, symSize: 0xAC }
  - { offset: 0x4A8B1E, size: 0x8, addend: 0x0, symName: __ZN2OT33hb_accelerate_subtables_context_t8apply_toINS_14ContextFormat3EEEbPKvPNS_21hb_ot_apply_context_tE, symObjAddr: 0x32D58, symBinAddr: 0x9C074, symSize: 0x4 }
  - { offset: 0x4A8B62, size: 0x8, addend: 0x0, symName: __ZN2OT33hb_accelerate_subtables_context_t8apply_toINS_14ContextFormat3EEEbPKvPNS_21hb_ot_apply_context_tE, symObjAddr: 0x32D58, symBinAddr: 0x9C074, symSize: 0x4 }
  - { offset: 0x4A8B85, size: 0x8, addend: 0x0, symName: __ZNK2OT14ContextFormat35applyEPNS_21hb_ot_apply_context_tE, symObjAddr: 0x32D68, symBinAddr: 0x9C084, symSize: 0x6C8 }
  - { offset: 0x4A94AE, size: 0x8, addend: 0x0, symName: __ZN2OT33hb_accelerate_subtables_context_t15apply_cached_toINS_14ContextFormat3EEEbPKvPNS_21hb_ot_apply_context_tE, symObjAddr: 0x32D5C, symBinAddr: 0x9C078, symSize: 0x4 }
  - { offset: 0x4A94F3, size: 0x8, addend: 0x0, symName: __ZN2OT33hb_accelerate_subtables_context_t15apply_cached_toINS_14ContextFormat3EEEbPKvPNS_21hb_ot_apply_context_tE, symObjAddr: 0x32D5C, symBinAddr: 0x9C078, symSize: 0x4 }
  - { offset: 0x4A9519, size: 0x8, addend: 0x0, symName: __ZN2OT33hb_accelerate_subtables_context_t15apply_cached_toINS_14ContextFormat3EEEbPKvPNS_21hb_ot_apply_context_tE, symObjAddr: 0x32D5C, symBinAddr: 0x9C078, symSize: 0x4 }
  - { offset: 0x4A953C, size: 0x8, addend: 0x0, symName: __ZN2OT33hb_accelerate_subtables_context_t13cache_func_toINS_14ContextFormat3EEEPvS3_NS_23hb_ot_lookup_cache_op_tE, symObjAddr: 0x32D60, symBinAddr: 0x9C07C, symSize: 0x8 }
  - { offset: 0x4A95D1, size: 0x8, addend: 0x0, symName: __ZN2OT33hb_accelerate_subtables_context_t8apply_toINS_21ChainContextFormat1_4INS_6Layout10SmallTypesEEEEEbPKvPNS_21hb_ot_apply_context_tE, symObjAddr: 0x33544, symBinAddr: 0x9C860, symSize: 0xDC }
  - { offset: 0x4A98DF, size: 0x8, addend: 0x0, symName: __ZN2OT33hb_accelerate_subtables_context_t15apply_cached_toINS_21ChainContextFormat1_4INS_6Layout10SmallTypesEEEEEbPKvPNS_21hb_ot_apply_context_tE, symObjAddr: 0x33620, symBinAddr: 0x9C93C, symSize: 0xDC }
  - { offset: 0x4A9BE0, size: 0x8, addend: 0x0, symName: __ZN2OT33hb_accelerate_subtables_context_t13cache_func_toINS_21ChainContextFormat1_4INS_6Layout10SmallTypesEEEEEPvS6_NS_23hb_ot_lookup_cache_op_tE, symObjAddr: 0x336FC, symBinAddr: 0x9CA18, symSize: 0x8 }
  - { offset: 0x4AA0E3, size: 0x8, addend: 0x0, symName: '__ZorI13hb_map_iter_tI10hb_array_tIKN2OT8OffsetToINS2_9ChainRuleINS2_6Layout10SmallTypesEEENS2_7IntTypeItLj2EEEvLb1EEEE12hb_partial_tILj2EPK4$_39PKNS2_12ChainRuleSetIS6_EEEL24hb_function_sortedness_t0ELPv0EE24hb_filter_iter_factory_tIZNKSI_5applyEPNS2_21hb_ot_apply_context_tERKNS2_30ChainContextApplyLookupContextEEUlRKS7_E0_RK3$_6ELSN_0EEDTclclsr3stdE7forwardIT0_Efp0_Eclsr3stdE7forwardIT_Efp_EEEOS13_OS12_', symObjAddr: 0x340F0, symBinAddr: 0x9D40C, symSize: 0xA0 }
  - { offset: 0x4AA122, size: 0x8, addend: 0x0, symName: '__ZorI13hb_map_iter_tI10hb_array_tIKN2OT8OffsetToINS2_9ChainRuleINS2_6Layout10SmallTypesEEENS2_7IntTypeItLj2EEEvLb1EEEE12hb_partial_tILj2EPK4$_39PKNS2_12ChainRuleSetIS6_EEEL24hb_function_sortedness_t0ELPv0EE24hb_filter_iter_factory_tIZNKSI_5applyEPNS2_21hb_ot_apply_context_tERKNS2_30ChainContextApplyLookupContextEEUlRKS7_E0_RK3$_6ELSN_0EEDTclclsr3stdE7forwardIT0_Efp0_Eclsr3stdE7forwardIT_Efp_EEEOS13_OS12_', symObjAddr: 0x340F0, symBinAddr: 0x9D40C, symSize: 0xA0 }
  - { offset: 0x4AA138, size: 0x8, addend: 0x0, symName: '__ZorI13hb_map_iter_tI10hb_array_tIKN2OT8OffsetToINS2_9ChainRuleINS2_6Layout10SmallTypesEEENS2_7IntTypeItLj2EEEvLb1EEEE12hb_partial_tILj2EPK4$_39PKNS2_12ChainRuleSetIS6_EEEL24hb_function_sortedness_t0ELPv0EE24hb_filter_iter_factory_tIZNKSI_5applyEPNS2_21hb_ot_apply_context_tERKNS2_30ChainContextApplyLookupContextEEUlRKS7_E0_RK3$_6ELSN_0EEDTclclsr3stdE7forwardIT0_Efp0_Eclsr3stdE7forwardIT_Efp_EEEOS13_OS12_', symObjAddr: 0x340F0, symBinAddr: 0x9D40C, symSize: 0xA0 }
  - { offset: 0x4AA15E, size: 0x8, addend: 0x0, symName: '__ZorI13hb_map_iter_tI10hb_array_tIKN2OT8OffsetToINS2_9ChainRuleINS2_6Layout10SmallTypesEEENS2_7IntTypeItLj2EEEvLb1EEEE12hb_partial_tILj2EPK4$_39PKNS2_12ChainRuleSetIS6_EEEL24hb_function_sortedness_t0ELPv0EE24hb_filter_iter_factory_tIZNKSI_5applyEPNS2_21hb_ot_apply_context_tERKNS2_30ChainContextApplyLookupContextEEUlRKS7_E0_RK3$_6ELSN_0EEDTclclsr3stdE7forwardIT0_Efp0_Eclsr3stdE7forwardIT_Efp_EEEOS13_OS12_', symObjAddr: 0x340F0, symBinAddr: 0x9D40C, symSize: 0xA0 }
  - { offset: 0x4AA618, size: 0x8, addend: 0x0, symName: '__ZorI13hb_map_iter_tI16hb_filter_iter_tIS0_I10hb_array_tIKN2OT8OffsetToINS3_9ChainRuleINS3_6Layout10SmallTypesEEENS3_7IntTypeItLj2EEEvLb1EEEE12hb_partial_tILj2EPK4$_39PKNS3_12ChainRuleSetIS7_EEEL24hb_function_sortedness_t0ELPv0EEZNKSJ_5applyEPNS3_21hb_ot_apply_context_tERKNS3_30ChainContextApplyLookupContextEEUlRKS8_E0_RK3$_6LSO_0EEZNKSJ_5applyESR_SU_EUlSW_E1_LSN_0ELSO_0EERK4$_33LSO_0EEDTclclsr3stdE7forwardIT0_Efp0_Eclsr3stdE7forwardIT_Efp_EEEOS18_OS17_', symObjAddr: 0x33FE8, symBinAddr: 0x9D304, symSize: 0x108 }
  - { offset: 0x4AACD5, size: 0x8, addend: 0x0, symName: __ZNK2OT9ChainRuleINS_6Layout10SmallTypesEE5applyEPNS_21hb_ot_apply_context_tERKNS_30ChainContextApplyLookupContextE, symObjAddr: 0x34190, symBinAddr: 0x9D4AC, symSize: 0xA5C }
  - { offset: 0x4AC207, size: 0x8, addend: 0x0, symName: __ZN2OT33hb_accelerate_subtables_context_t8apply_toINS_21ChainContextFormat2_5INS_6Layout10SmallTypesEEEEEbPKvPNS_21hb_ot_apply_context_tE, symObjAddr: 0x34D00, symBinAddr: 0x9E01C, symSize: 0x8 }
  - { offset: 0x4AC24C, size: 0x8, addend: 0x0, symName: __ZN2OT33hb_accelerate_subtables_context_t8apply_toINS_21ChainContextFormat2_5INS_6Layout10SmallTypesEEEEEbPKvPNS_21hb_ot_apply_context_tE, symObjAddr: 0x34D00, symBinAddr: 0x9E01C, symSize: 0x8 }
  - { offset: 0x4AC29A, size: 0x8, addend: 0x0, symName: __ZNK2OT21ChainContextFormat2_5INS_6Layout10SmallTypesEE6_applyEPNS_21hb_ot_apply_context_tEb, symObjAddr: 0x34DBC, symBinAddr: 0x9E0D8, symSize: 0x274 }
  - { offset: 0x4ACC99, size: 0x8, addend: 0x0, symName: __ZN2OT33hb_accelerate_subtables_context_t15apply_cached_toINS_21ChainContextFormat2_5INS_6Layout10SmallTypesEEEEEbPKvPNS_21hb_ot_apply_context_tE, symObjAddr: 0x34D08, symBinAddr: 0x9E024, symSize: 0x8 }
  - { offset: 0x4ACCDE, size: 0x8, addend: 0x0, symName: __ZN2OT33hb_accelerate_subtables_context_t15apply_cached_toINS_21ChainContextFormat2_5INS_6Layout10SmallTypesEEEEEbPKvPNS_21hb_ot_apply_context_tE, symObjAddr: 0x34D08, symBinAddr: 0x9E024, symSize: 0x8 }
  - { offset: 0x4ACD04, size: 0x8, addend: 0x0, symName: __ZN2OT33hb_accelerate_subtables_context_t15apply_cached_toINS_21ChainContextFormat2_5INS_6Layout10SmallTypesEEEEEbPKvPNS_21hb_ot_apply_context_tE, symObjAddr: 0x34D08, symBinAddr: 0x9E024, symSize: 0x8 }
  - { offset: 0x4ACDFE, size: 0x8, addend: 0x0, symName: __ZN2OT33hb_accelerate_subtables_context_t13cache_func_toINS_21ChainContextFormat2_5INS_6Layout10SmallTypesEEEEEPvS6_NS_23hb_ot_lookup_cache_op_tE, symObjAddr: 0x34D10, symBinAddr: 0x9E02C, symSize: 0xAC }
  - { offset: 0x4ACF50, size: 0x8, addend: 0x0, symName: __ZN2OT33hb_accelerate_subtables_context_t8apply_toINS_19ChainContextFormat3EEEbPKvPNS_21hb_ot_apply_context_tE, symObjAddr: 0x35424, symBinAddr: 0x9E740, symSize: 0x4 }
  - { offset: 0x4ACF94, size: 0x8, addend: 0x0, symName: __ZN2OT33hb_accelerate_subtables_context_t8apply_toINS_19ChainContextFormat3EEEbPKvPNS_21hb_ot_apply_context_tE, symObjAddr: 0x35424, symBinAddr: 0x9E740, symSize: 0x4 }
  - { offset: 0x4ACFB7, size: 0x8, addend: 0x0, symName: __ZNK2OT19ChainContextFormat35applyEPNS_21hb_ot_apply_context_tE, symObjAddr: 0x35434, symBinAddr: 0x9E750, symSize: 0xA9C }
  - { offset: 0x4ADFE8, size: 0x8, addend: 0x0, symName: __ZN2OT33hb_accelerate_subtables_context_t15apply_cached_toINS_19ChainContextFormat3EEEbPKvPNS_21hb_ot_apply_context_tE, symObjAddr: 0x35428, symBinAddr: 0x9E744, symSize: 0x4 }
  - { offset: 0x4AE02D, size: 0x8, addend: 0x0, symName: __ZN2OT33hb_accelerate_subtables_context_t15apply_cached_toINS_19ChainContextFormat3EEEbPKvPNS_21hb_ot_apply_context_tE, symObjAddr: 0x35428, symBinAddr: 0x9E744, symSize: 0x4 }
  - { offset: 0x4AE053, size: 0x8, addend: 0x0, symName: __ZN2OT33hb_accelerate_subtables_context_t15apply_cached_toINS_19ChainContextFormat3EEEbPKvPNS_21hb_ot_apply_context_tE, symObjAddr: 0x35428, symBinAddr: 0x9E744, symSize: 0x4 }
  - { offset: 0x4AE076, size: 0x8, addend: 0x0, symName: __ZN2OT33hb_accelerate_subtables_context_t13cache_func_toINS_19ChainContextFormat3EEEPvS3_NS_23hb_ot_lookup_cache_op_tE, symObjAddr: 0x3542C, symBinAddr: 0x9E748, symSize: 0x8 }
  - { offset: 0x4AE0CA, size: 0x8, addend: 0x0, symName: __ZN2OT33hb_accelerate_subtables_context_t8apply_toINS_6Layout9GSUB_impl30ReverseChainSingleSubstFormat1EEEbPKvPNS_21hb_ot_apply_context_tE, symObjAddr: 0x35FE4, symBinAddr: 0x9F300, symSize: 0x4 }
  - { offset: 0x4AE10E, size: 0x8, addend: 0x0, symName: __ZN2OT33hb_accelerate_subtables_context_t8apply_toINS_6Layout9GSUB_impl30ReverseChainSingleSubstFormat1EEEbPKvPNS_21hb_ot_apply_context_tE, symObjAddr: 0x35FE4, symBinAddr: 0x9F300, symSize: 0x4 }
  - { offset: 0x4AE131, size: 0x8, addend: 0x0, symName: __ZNK2OT6Layout9GSUB_impl30ReverseChainSingleSubstFormat15applyEPNS_21hb_ot_apply_context_tE, symObjAddr: 0x35FF4, symBinAddr: 0x9F310, symSize: 0x600 }
  - { offset: 0x4AECD3, size: 0x8, addend: 0x0, symName: __ZN2OT33hb_accelerate_subtables_context_t15apply_cached_toINS_6Layout9GSUB_impl30ReverseChainSingleSubstFormat1EEEbPKvPNS_21hb_ot_apply_context_tE, symObjAddr: 0x35FE8, symBinAddr: 0x9F304, symSize: 0x4 }
  - { offset: 0x4AED18, size: 0x8, addend: 0x0, symName: __ZN2OT33hb_accelerate_subtables_context_t15apply_cached_toINS_6Layout9GSUB_impl30ReverseChainSingleSubstFormat1EEEbPKvPNS_21hb_ot_apply_context_tE, symObjAddr: 0x35FE8, symBinAddr: 0x9F304, symSize: 0x4 }
  - { offset: 0x4AED3E, size: 0x8, addend: 0x0, symName: __ZN2OT33hb_accelerate_subtables_context_t15apply_cached_toINS_6Layout9GSUB_impl30ReverseChainSingleSubstFormat1EEEbPKvPNS_21hb_ot_apply_context_tE, symObjAddr: 0x35FE8, symBinAddr: 0x9F304, symSize: 0x4 }
  - { offset: 0x4AED61, size: 0x8, addend: 0x0, symName: __ZN2OT33hb_accelerate_subtables_context_t13cache_func_toINS_6Layout9GSUB_impl30ReverseChainSingleSubstFormat1EEEPvS5_NS_23hb_ot_lookup_cache_op_tE, symObjAddr: 0x35FEC, symBinAddr: 0x9F308, symSize: 0x8 }
  - { offset: 0x4AF017, size: 0x8, addend: 0x0, symName: __ZN2OT4kern13accelerator_tC2EP9hb_face_t, symObjAddr: 0x366D8, symBinAddr: 0x9F9F4, symSize: 0x180 }
  - { offset: 0x4AF96B, size: 0x8, addend: 0x0, symName: __ZN21hb_sanitize_context_t13sanitize_blobIN2OT4kernEEEP9hb_blob_tS4_, symObjAddr: 0x36898, symBinAddr: 0x9FB74, symSize: 0x2C4 }
  - { offset: 0x4AFF06, size: 0x8, addend: 0x0, symName: __ZNK3AAT9KerxTableIN2OT6KernOTEE23create_accelerator_dataEj, symObjAddr: 0x37BB0, symBinAddr: 0xA07CC, symSize: 0x290 }
  - { offset: 0x4B06F7, size: 0x8, addend: 0x0, symName: __ZNK3AAT9KerxTableIN2OT7KernAATEE23create_accelerator_dataEj, symObjAddr: 0x37E40, symBinAddr: 0xA0A5C, symSize: 0x290 }
  - { offset: 0x4B1136, size: 0x8, addend: 0x0, symName: __ZNK2OT12KernSubTableINS_20KernOTSubTableHeaderEE8dispatchI21hb_sanitize_context_tJEEENT_8return_tEPS5_DpOT0_, symObjAddr: 0x36E80, symBinAddr: 0xA0074, symSize: 0x11C }
  - { offset: 0x4B118A, size: 0x8, addend: 0x0, symName: __ZNK2OT12KernSubTableINS_20KernOTSubTableHeaderEE8dispatchI21hb_sanitize_context_tJEEENT_8return_tEPS5_DpOT0_, symObjAddr: 0x36E80, symBinAddr: 0xA0074, symSize: 0x11C }
  - { offset: 0x4B11A7, size: 0x8, addend: 0x0, symName: __ZNK2OT12KernSubTableINS_20KernOTSubTableHeaderEE8dispatchI21hb_sanitize_context_tJEEENT_8return_tEPS5_DpOT0_, symObjAddr: 0x36E80, symBinAddr: 0xA0074, symSize: 0x11C }
  - { offset: 0x4B11C6, size: 0x8, addend: 0x0, symName: __ZNK2OT12KernSubTableINS_20KernOTSubTableHeaderEE8dispatchI21hb_sanitize_context_tJEEENT_8return_tEPS5_DpOT0_, symObjAddr: 0x36E80, symBinAddr: 0xA0074, symSize: 0x11C }
  - { offset: 0x4B246E, size: 0x8, addend: 0x0, symName: __ZNK3AAT19KerxSubTableFormat2IN2OT20KernOTSubTableHeaderEE8sanitizeEP21hb_sanitize_context_t, symObjAddr: 0x37584, symBinAddr: 0xA01A0, symSize: 0x154 }
  - { offset: 0x4B24B4, size: 0x8, addend: 0x0, symName: __ZNK3AAT19KerxSubTableFormat2IN2OT20KernOTSubTableHeaderEE8sanitizeEP21hb_sanitize_context_t, symObjAddr: 0x37584, symBinAddr: 0xA01A0, symSize: 0x154 }
  - { offset: 0x4B24DA, size: 0x8, addend: 0x0, symName: __ZNK3AAT19KerxSubTableFormat2IN2OT20KernOTSubTableHeaderEE8sanitizeEP21hb_sanitize_context_t, symObjAddr: 0x37584, symBinAddr: 0xA01A0, symSize: 0x154 }
  - { offset: 0x4B30B0, size: 0x8, addend: 0x0, symName: __ZNK2OT12KernSubTableINS_21KernAATSubTableHeaderEE8dispatchI21hb_sanitize_context_tJEEENT_8return_tEPS5_DpOT0_, symObjAddr: 0x37930, symBinAddr: 0xA054C, symSize: 0x11C }
  - { offset: 0x4B3104, size: 0x8, addend: 0x0, symName: __ZNK2OT12KernSubTableINS_21KernAATSubTableHeaderEE8dispatchI21hb_sanitize_context_tJEEENT_8return_tEPS5_DpOT0_, symObjAddr: 0x37930, symBinAddr: 0xA054C, symSize: 0x11C }
  - { offset: 0x4B3121, size: 0x8, addend: 0x0, symName: __ZNK2OT12KernSubTableINS_21KernAATSubTableHeaderEE8dispatchI21hb_sanitize_context_tJEEENT_8return_tEPS5_DpOT0_, symObjAddr: 0x37930, symBinAddr: 0xA054C, symSize: 0x11C }
  - { offset: 0x4B3140, size: 0x8, addend: 0x0, symName: __ZNK2OT12KernSubTableINS_21KernAATSubTableHeaderEE8dispatchI21hb_sanitize_context_tJEEENT_8return_tEPS5_DpOT0_, symObjAddr: 0x37930, symBinAddr: 0xA054C, symSize: 0x11C }
  - { offset: 0x4B381C, size: 0x8, addend: 0x0, symName: __ZNK3AAT19KerxSubTableFormat2IN2OT21KernAATSubTableHeaderEE8sanitizeEP21hb_sanitize_context_t, symObjAddr: 0x37A5C, symBinAddr: 0xA0678, symSize: 0x154 }
  - { offset: 0x4B3862, size: 0x8, addend: 0x0, symName: __ZNK3AAT19KerxSubTableFormat2IN2OT21KernAATSubTableHeaderEE8sanitizeEP21hb_sanitize_context_t, symObjAddr: 0x37A5C, symBinAddr: 0xA0678, symSize: 0x154 }
  - { offset: 0x4B3888, size: 0x8, addend: 0x0, symName: __ZNK3AAT19KerxSubTableFormat2IN2OT21KernAATSubTableHeaderEE8sanitizeEP21hb_sanitize_context_t, symObjAddr: 0x37A5C, symBinAddr: 0xA0678, symSize: 0x154 }
  - { offset: 0x4B40E6, size: 0x8, addend: 0x0, symName: __ZNK3AAT19KerxSubTableFormat0IN2OT20KernOTSubTableHeaderEE14collect_glyphsI12hb_bit_set_tEEvRT_S7_j, symObjAddr: 0x380D0, symBinAddr: 0xA0CEC, symSize: 0xF4 }
  - { offset: 0x4B43B8, size: 0x8, addend: 0x0, symName: __ZNK3AAT19KerxSubTableFormat1IN2OT20KernOTSubTableHeaderEE14collect_glyphsI12hb_bit_set_tEEvRT_S7_j, symObjAddr: 0x381C4, symBinAddr: 0xA0DE0, symSize: 0x180 }
  - { offset: 0x4B48D0, size: 0x8, addend: 0x0, symName: __ZNK3AAT19KerxSubTableFormat2IN2OT20KernOTSubTableHeaderEE14collect_glyphsI12hb_bit_set_tEEvRT_S7_j, symObjAddr: 0x38344, symBinAddr: 0xA0F60, symSize: 0x1BC }
  - { offset: 0x4B4D9B, size: 0x8, addend: 0x0, symName: __ZNK2OT19KernSubTableFormat3INS_20KernOTSubTableHeaderEE14collect_glyphsI12hb_bit_set_tEEvRT_S6_j, symObjAddr: 0x38500, symBinAddr: 0xA111C, symSize: 0xB8 }
  - { offset: 0x4B5A48, size: 0x8, addend: 0x0, symName: __ZNK3AAT19KerxSubTableFormat0IN2OT21KernAATSubTableHeaderEE14collect_glyphsI12hb_bit_set_tEEvRT_S7_j, symObjAddr: 0x38A28, symBinAddr: 0xA11D4, symSize: 0xF4 }
  - { offset: 0x4B5D1A, size: 0x8, addend: 0x0, symName: __ZNK3AAT19KerxSubTableFormat1IN2OT21KernAATSubTableHeaderEE14collect_glyphsI12hb_bit_set_tEEvRT_S7_j, symObjAddr: 0x38B1C, symBinAddr: 0xA12C8, symSize: 0x180 }
  - { offset: 0x4B6232, size: 0x8, addend: 0x0, symName: __ZNK3AAT19KerxSubTableFormat2IN2OT21KernAATSubTableHeaderEE14collect_glyphsI12hb_bit_set_tEEvRT_S7_j, symObjAddr: 0x38C9C, symBinAddr: 0xA1448, symSize: 0x1BC }
  - { offset: 0x4B66FD, size: 0x8, addend: 0x0, symName: __ZNK2OT19KernSubTableFormat3INS_21KernAATSubTableHeaderEE14collect_glyphsI12hb_bit_set_tEEvRT_S6_j, symObjAddr: 0x38E58, symBinAddr: 0xA1604, symSize: 0xB8 }
  - { offset: 0x4B74D6, size: 0x8, addend: 0x0, symName: __ZN2OT6Layout9GSUB_impl11SubstLookup21dispatch_recurse_funcINS_21hb_ot_apply_context_tEEENT_8return_tEPS5_j, symObjAddr: 0x3908C, symBinAddr: 0xA1764, symSize: 0x480 }
  - { offset: 0x4B872C, size: 0x8, addend: 0x0, symName: __ZN2OT6Layout9GPOS_impl9PosLookup21dispatch_recurse_funcINS_21hb_ot_apply_context_tEEENT_8return_tEPS5_j, symObjAddr: 0x3950C, symBinAddr: 0xA1BE4, symSize: 0x480 }
  - { offset: 0x4B99F1, size: 0x8, addend: 0x0, symName: __ZNK2OT6Layout9GPOS_impl17PosLookupSubTable8dispatchINS_33hb_accelerate_subtables_context_tEJEEENT_8return_tEPS5_jDpOT0_, symObjAddr: 0x39B5C, symBinAddr: 0xA2234, symSize: 0x234 }
  - { offset: 0x4BA2C5, size: 0x8, addend: 0x0, symName: __ZN2OT33hb_accelerate_subtables_context_t15hb_applicable_t4initINS_6Layout9GPOS_impl16SinglePosFormat1EEEvRKT_PFbPKvPNS_21hb_ot_apply_context_tEESE_PFPvSF_NS_23hb_ot_lookup_cache_op_tEE, symObjAddr: 0x39EF0, symBinAddr: 0xA25C8, symSize: 0x114 }
  - { offset: 0x4BA6F0, size: 0x8, addend: 0x0, symName: __ZN2OT33hb_accelerate_subtables_context_t15hb_applicable_t4initINS_6Layout9GPOS_impl17CursivePosFormat1EEEvRKT_PFbPKvPNS_21hb_ot_apply_context_tEESE_PFPvSF_NS_23hb_ot_lookup_cache_op_tEE, symObjAddr: 0x3C054, symBinAddr: 0xA472C, symSize: 0x114 }
  - { offset: 0x4BAB1B, size: 0x8, addend: 0x0, symName: __ZN2OT33hb_accelerate_subtables_context_t15hb_applicable_t4initINS_6Layout9GPOS_impl19MarkLigPosFormat1_2INS3_10SmallTypesEEEEEvRKT_PFbPKvPNS_21hb_ot_apply_context_tEESG_PFPvSH_NS_23hb_ot_lookup_cache_op_tEE, symObjAddr: 0x3DAA8, symBinAddr: 0xA6180, symSize: 0x114 }
  - { offset: 0x4BAF46, size: 0x8, addend: 0x0, symName: __ZNK2OT6Layout9GPOS_impl7PairPos8dispatchINS_33hb_accelerate_subtables_context_tEJEEENT_8return_tEPS5_DpOT0_, symObjAddr: 0x39DB0, symBinAddr: 0xA2488, symSize: 0x140 }
  - { offset: 0x4BB237, size: 0x8, addend: 0x0, symName: __ZN2OT33hb_accelerate_subtables_context_t15hb_applicable_t4initINS_6Layout9GPOS_impl20MarkBasePosFormat1_2INS3_10SmallTypesEEEEEvRKT_PFbPKvPNS_21hb_ot_apply_context_tEESG_PFPvSH_NS_23hb_ot_lookup_cache_op_tEE, symObjAddr: 0x3D094, symBinAddr: 0xA576C, symSize: 0x114 }
  - { offset: 0x4BB662, size: 0x8, addend: 0x0, symName: __ZN2OT33hb_accelerate_subtables_context_t15hb_applicable_t4initINS_6Layout9GPOS_impl20MarkMarkPosFormat1_2INS3_10SmallTypesEEEEEvRKT_PFbPKvPNS_21hb_ot_apply_context_tEESG_PFPvSH_NS_23hb_ot_lookup_cache_op_tEE, symObjAddr: 0x3DF0C, symBinAddr: 0xA65E4, symSize: 0x114 }
  - { offset: 0x4BBA8D, size: 0x8, addend: 0x0, symName: __ZN2OT33hb_accelerate_subtables_context_t15hb_applicable_t4initINS_6Layout9GPOS_impl16SinglePosFormat2EEEvRKT_PFbPKvPNS_21hb_ot_apply_context_tEESE_PFPvSF_NS_23hb_ot_lookup_cache_op_tEE, symObjAddr: 0x3A570, symBinAddr: 0xA2C48, symSize: 0x114 }
  - { offset: 0x4BBFC4, size: 0x8, addend: 0x0, symName: __ZN2OT33hb_accelerate_subtables_context_t15hb_applicable_t4initINS_6Layout9GPOS_impl16PairPosFormat1_3INS3_10SmallTypesEEEEEvRKT_PFbPKvPNS_21hb_ot_apply_context_tEESG_PFPvSH_NS_23hb_ot_lookup_cache_op_tEE, symObjAddr: 0x3A7CC, symBinAddr: 0xA2EA4, symSize: 0x114 }
  - { offset: 0x4BC3EF, size: 0x8, addend: 0x0, symName: __ZN2OT33hb_accelerate_subtables_context_t15hb_applicable_t4initINS_6Layout9GPOS_impl16PairPosFormat2_4INS3_10SmallTypesEEEEEvRKT_PFbPKvPNS_21hb_ot_apply_context_tEESG_PFPvSH_NS_23hb_ot_lookup_cache_op_tEE, symObjAddr: 0x3B29C, symBinAddr: 0xA3974, symSize: 0x114 }
  - { offset: 0x4BC81A, size: 0x8, addend: 0x0, symName: __ZNK2OT6Layout9GPOS_impl16PairPosFormat2_4INS0_10SmallTypesEE10cache_costEv, symObjAddr: 0x3BF2C, symBinAddr: 0xA4604, symSize: 0x128 }
  - { offset: 0x4BC844, size: 0x8, addend: 0x0, symName: __ZNK2OT6Layout9GPOS_impl16PairPosFormat2_4INS0_10SmallTypesEE10cache_costEv, symObjAddr: 0x3BF2C, symBinAddr: 0xA4604, symSize: 0x128 }
  - { offset: 0x4BC863, size: 0x8, addend: 0x0, symName: __ZNK2OT6Layout9GPOS_impl16PairPosFormat2_4INS0_10SmallTypesEE10cache_costEv, symObjAddr: 0x3BF2C, symBinAddr: 0xA4604, symSize: 0x128 }
  - { offset: 0x4BC88B, size: 0x8, addend: 0x0, symName: __ZNK2OT6Layout9GPOS_impl16PairPosFormat2_4INS0_10SmallTypesEE10cache_costEv, symObjAddr: 0x3BF2C, symBinAddr: 0xA4604, symSize: 0x128 }
  - { offset: 0x4BC8AB, size: 0x8, addend: 0x0, symName: __ZNK2OT6Layout9GPOS_impl16PairPosFormat2_4INS0_10SmallTypesEE10cache_costEv, symObjAddr: 0x3BF2C, symBinAddr: 0xA4604, symSize: 0x128 }
  - { offset: 0x4BC8CB, size: 0x8, addend: 0x0, symName: __ZNK2OT6Layout9GPOS_impl16PairPosFormat2_4INS0_10SmallTypesEE10cache_costEv, symObjAddr: 0x3BF2C, symBinAddr: 0xA4604, symSize: 0x128 }
  - { offset: 0x4BCD70, size: 0x8, addend: 0x0, symName: __ZN2OT33hb_accelerate_subtables_context_t8apply_toINS_6Layout9GPOS_impl16SinglePosFormat1EEEbPKvPNS_21hb_ot_apply_context_tE, symObjAddr: 0x3A004, symBinAddr: 0xA26DC, symSize: 0x4 }
  - { offset: 0x4BCDB4, size: 0x8, addend: 0x0, symName: __ZN2OT33hb_accelerate_subtables_context_t8apply_toINS_6Layout9GPOS_impl16SinglePosFormat1EEEbPKvPNS_21hb_ot_apply_context_tE, symObjAddr: 0x3A004, symBinAddr: 0xA26DC, symSize: 0x4 }
  - { offset: 0x4BCDD7, size: 0x8, addend: 0x0, symName: __ZNK2OT6Layout9GPOS_impl16SinglePosFormat15applyEPNS_21hb_ot_apply_context_tE, symObjAddr: 0x3A014, symBinAddr: 0xA26EC, symSize: 0xF4 }
  - { offset: 0x4BCFEC, size: 0x8, addend: 0x0, symName: __ZN2OT33hb_accelerate_subtables_context_t15apply_cached_toINS_6Layout9GPOS_impl16SinglePosFormat1EEEbPKvPNS_21hb_ot_apply_context_tE, symObjAddr: 0x3A008, symBinAddr: 0xA26E0, symSize: 0x4 }
  - { offset: 0x4BD031, size: 0x8, addend: 0x0, symName: __ZN2OT33hb_accelerate_subtables_context_t15apply_cached_toINS_6Layout9GPOS_impl16SinglePosFormat1EEEbPKvPNS_21hb_ot_apply_context_tE, symObjAddr: 0x3A008, symBinAddr: 0xA26E0, symSize: 0x4 }
  - { offset: 0x4BD057, size: 0x8, addend: 0x0, symName: __ZN2OT33hb_accelerate_subtables_context_t15apply_cached_toINS_6Layout9GPOS_impl16SinglePosFormat1EEEbPKvPNS_21hb_ot_apply_context_tE, symObjAddr: 0x3A008, symBinAddr: 0xA26E0, symSize: 0x4 }
  - { offset: 0x4BD07A, size: 0x8, addend: 0x0, symName: __ZN2OT33hb_accelerate_subtables_context_t13cache_func_toINS_6Layout9GPOS_impl16SinglePosFormat1EEEPvS5_NS_23hb_ot_lookup_cache_op_tE, symObjAddr: 0x3A00C, symBinAddr: 0xA26E4, symSize: 0x8 }
  - { offset: 0x4BD0DA, size: 0x8, addend: 0x0, symName: __ZNK2OT6Layout9GPOS_impl11ValueFormat11apply_valueEPNS_21hb_ot_apply_context_tEPKNS1_9ValueBaseEPKNS_7IntTypeItLj2EEER19hb_glyph_position_t, symObjAddr: 0x3A108, symBinAddr: 0xA27E0, symSize: 0x338 }
  - { offset: 0x4BD6AA, size: 0x8, addend: 0x0, symName: __ZN2OT6Layout9GPOS_impl11ValueFormat10get_deviceEPKNS_7IntTypeItLj2EEEPbPKNS1_9ValueBaseER21hb_sanitize_context_t, symObjAddr: 0x3A440, symBinAddr: 0xA2B18, symSize: 0x130 }
  - { offset: 0x4BDCB9, size: 0x8, addend: 0x0, symName: __ZN2OT33hb_accelerate_subtables_context_t8apply_toINS_6Layout9GPOS_impl16SinglePosFormat2EEEbPKvPNS_21hb_ot_apply_context_tE, symObjAddr: 0x3A684, symBinAddr: 0xA2D5C, symSize: 0x4 }
  - { offset: 0x4BDCFD, size: 0x8, addend: 0x0, symName: __ZN2OT33hb_accelerate_subtables_context_t8apply_toINS_6Layout9GPOS_impl16SinglePosFormat2EEEbPKvPNS_21hb_ot_apply_context_tE, symObjAddr: 0x3A684, symBinAddr: 0xA2D5C, symSize: 0x4 }
  - { offset: 0x4BDD20, size: 0x8, addend: 0x0, symName: __ZNK2OT6Layout9GPOS_impl16SinglePosFormat25applyEPNS_21hb_ot_apply_context_tE, symObjAddr: 0x3A694, symBinAddr: 0xA2D6C, symSize: 0x138 }
  - { offset: 0x4BDFFC, size: 0x8, addend: 0x0, symName: __ZN2OT33hb_accelerate_subtables_context_t15apply_cached_toINS_6Layout9GPOS_impl16SinglePosFormat2EEEbPKvPNS_21hb_ot_apply_context_tE, symObjAddr: 0x3A688, symBinAddr: 0xA2D60, symSize: 0x4 }
  - { offset: 0x4BE041, size: 0x8, addend: 0x0, symName: __ZN2OT33hb_accelerate_subtables_context_t15apply_cached_toINS_6Layout9GPOS_impl16SinglePosFormat2EEEbPKvPNS_21hb_ot_apply_context_tE, symObjAddr: 0x3A688, symBinAddr: 0xA2D60, symSize: 0x4 }
  - { offset: 0x4BE067, size: 0x8, addend: 0x0, symName: __ZN2OT33hb_accelerate_subtables_context_t15apply_cached_toINS_6Layout9GPOS_impl16SinglePosFormat2EEEbPKvPNS_21hb_ot_apply_context_tE, symObjAddr: 0x3A688, symBinAddr: 0xA2D60, symSize: 0x4 }
  - { offset: 0x4BE08A, size: 0x8, addend: 0x0, symName: __ZN2OT33hb_accelerate_subtables_context_t13cache_func_toINS_6Layout9GPOS_impl16SinglePosFormat2EEEPvS5_NS_23hb_ot_lookup_cache_op_tE, symObjAddr: 0x3A68C, symBinAddr: 0xA2D64, symSize: 0x8 }
  - { offset: 0x4BE100, size: 0x8, addend: 0x0, symName: __ZN2OT33hb_accelerate_subtables_context_t8apply_toINS_6Layout9GPOS_impl16PairPosFormat1_3INS2_10SmallTypesEEEEEbPKvPNS_21hb_ot_apply_context_tE, symObjAddr: 0x3A8E0, symBinAddr: 0xA2FB8, symSize: 0x8 }
  - { offset: 0x4BE145, size: 0x8, addend: 0x0, symName: __ZN2OT33hb_accelerate_subtables_context_t8apply_toINS_6Layout9GPOS_impl16PairPosFormat1_3INS2_10SmallTypesEEEEEbPKvPNS_21hb_ot_apply_context_tE, symObjAddr: 0x3A8E0, symBinAddr: 0xA2FB8, symSize: 0x8 }
  - { offset: 0x4BE193, size: 0x8, addend: 0x0, symName: __ZNK2OT6Layout9GPOS_impl16PairPosFormat1_3INS0_10SmallTypesEE6_applyEPNS_21hb_ot_apply_context_tEb, symObjAddr: 0x3A964, symBinAddr: 0xA303C, symSize: 0x394 }
  - { offset: 0x4BE84E, size: 0x8, addend: 0x0, symName: __ZN2OT33hb_accelerate_subtables_context_t15apply_cached_toINS_6Layout9GPOS_impl16PairPosFormat1_3INS2_10SmallTypesEEEEEbPKvPNS_21hb_ot_apply_context_tE, symObjAddr: 0x3A8E8, symBinAddr: 0xA2FC0, symSize: 0x8 }
  - { offset: 0x4BE893, size: 0x8, addend: 0x0, symName: __ZN2OT33hb_accelerate_subtables_context_t15apply_cached_toINS_6Layout9GPOS_impl16PairPosFormat1_3INS2_10SmallTypesEEEEEbPKvPNS_21hb_ot_apply_context_tE, symObjAddr: 0x3A8E8, symBinAddr: 0xA2FC0, symSize: 0x8 }
  - { offset: 0x4BE8B9, size: 0x8, addend: 0x0, symName: __ZN2OT33hb_accelerate_subtables_context_t15apply_cached_toINS_6Layout9GPOS_impl16PairPosFormat1_3INS2_10SmallTypesEEEEEbPKvPNS_21hb_ot_apply_context_tE, symObjAddr: 0x3A8E8, symBinAddr: 0xA2FC0, symSize: 0x8 }
  - { offset: 0x4BE985, size: 0x8, addend: 0x0, symName: __ZN2OT33hb_accelerate_subtables_context_t13cache_func_toINS_6Layout9GPOS_impl16PairPosFormat1_3INS2_10SmallTypesEEEEEPvS7_NS_23hb_ot_lookup_cache_op_tE, symObjAddr: 0x3A8F0, symBinAddr: 0xA2FC8, symSize: 0x74 }
  - { offset: 0x4BEA92, size: 0x8, addend: 0x0, symName: __ZNK2OT6Layout9GPOS_impl7PairSetINS0_10SmallTypesEE5applyEPNS_21hb_ot_apply_context_tEPKNS1_11ValueFormatEj, symObjAddr: 0x3ACF8, symBinAddr: 0xA33D0, symSize: 0x5A4 }
  - { offset: 0x4BF395, size: 0x8, addend: 0x0, symName: __ZN2OT33hb_accelerate_subtables_context_t8apply_toINS_6Layout9GPOS_impl16PairPosFormat2_4INS2_10SmallTypesEEEEEbPKvPNS_21hb_ot_apply_context_tE, symObjAddr: 0x3B3B0, symBinAddr: 0xA3A88, symSize: 0x8 }
  - { offset: 0x4BF3DA, size: 0x8, addend: 0x0, symName: __ZN2OT33hb_accelerate_subtables_context_t8apply_toINS_6Layout9GPOS_impl16PairPosFormat2_4INS2_10SmallTypesEEEEEbPKvPNS_21hb_ot_apply_context_tE, symObjAddr: 0x3B3B0, symBinAddr: 0xA3A88, symSize: 0x8 }
  - { offset: 0x4BF428, size: 0x8, addend: 0x0, symName: __ZNK2OT6Layout9GPOS_impl16PairPosFormat2_4INS0_10SmallTypesEE6_applyEPNS_21hb_ot_apply_context_tEb, symObjAddr: 0x3B444, symBinAddr: 0xA3B1C, symSize: 0x974 }
  - { offset: 0x4C029B, size: 0x8, addend: 0x0, symName: __ZN2OT33hb_accelerate_subtables_context_t15apply_cached_toINS_6Layout9GPOS_impl16PairPosFormat2_4INS2_10SmallTypesEEEEEbPKvPNS_21hb_ot_apply_context_tE, symObjAddr: 0x3B3B8, symBinAddr: 0xA3A90, symSize: 0x8 }
  - { offset: 0x4C02E0, size: 0x8, addend: 0x0, symName: __ZN2OT33hb_accelerate_subtables_context_t15apply_cached_toINS_6Layout9GPOS_impl16PairPosFormat2_4INS2_10SmallTypesEEEEEbPKvPNS_21hb_ot_apply_context_tE, symObjAddr: 0x3B3B8, symBinAddr: 0xA3A90, symSize: 0x8 }
  - { offset: 0x4C0306, size: 0x8, addend: 0x0, symName: __ZN2OT33hb_accelerate_subtables_context_t15apply_cached_toINS_6Layout9GPOS_impl16PairPosFormat2_4INS2_10SmallTypesEEEEEbPKvPNS_21hb_ot_apply_context_tE, symObjAddr: 0x3B3B8, symBinAddr: 0xA3A90, symSize: 0x8 }
  - { offset: 0x4C03D2, size: 0x8, addend: 0x0, symName: __ZN2OT33hb_accelerate_subtables_context_t13cache_func_toINS_6Layout9GPOS_impl16PairPosFormat2_4INS2_10SmallTypesEEEEEPvS7_NS_23hb_ot_lookup_cache_op_tE, symObjAddr: 0x3B3C0, symBinAddr: 0xA3A98, symSize: 0x84 }
  - { offset: 0x4C04E6, size: 0x8, addend: 0x0, symName: __ZNK2OT8ClassDef9get_classEjP10hb_cache_tILj15ELj8ELj7ELb1EE, symObjAddr: 0x3BDB8, symBinAddr: 0xA4490, symSize: 0x174 }
  - { offset: 0x4C0A68, size: 0x8, addend: 0x0, symName: __ZN2OT33hb_accelerate_subtables_context_t8apply_toINS_6Layout9GPOS_impl17CursivePosFormat1EEEbPKvPNS_21hb_ot_apply_context_tE, symObjAddr: 0x3C168, symBinAddr: 0xA4840, symSize: 0x4 }
  - { offset: 0x4C0AAC, size: 0x8, addend: 0x0, symName: __ZN2OT33hb_accelerate_subtables_context_t8apply_toINS_6Layout9GPOS_impl17CursivePosFormat1EEEbPKvPNS_21hb_ot_apply_context_tE, symObjAddr: 0x3C168, symBinAddr: 0xA4840, symSize: 0x4 }
  - { offset: 0x4C0ACF, size: 0x8, addend: 0x0, symName: __ZNK2OT6Layout9GPOS_impl17CursivePosFormat15applyEPNS_21hb_ot_apply_context_tE, symObjAddr: 0x3C178, symBinAddr: 0xA4850, symSize: 0xA18 }
  - { offset: 0x4C228C, size: 0x8, addend: 0x0, symName: __ZN2OT33hb_accelerate_subtables_context_t15apply_cached_toINS_6Layout9GPOS_impl17CursivePosFormat1EEEbPKvPNS_21hb_ot_apply_context_tE, symObjAddr: 0x3C16C, symBinAddr: 0xA4844, symSize: 0x4 }
  - { offset: 0x4C22D1, size: 0x8, addend: 0x0, symName: __ZN2OT33hb_accelerate_subtables_context_t15apply_cached_toINS_6Layout9GPOS_impl17CursivePosFormat1EEEbPKvPNS_21hb_ot_apply_context_tE, symObjAddr: 0x3C16C, symBinAddr: 0xA4844, symSize: 0x4 }
  - { offset: 0x4C22F7, size: 0x8, addend: 0x0, symName: __ZN2OT33hb_accelerate_subtables_context_t15apply_cached_toINS_6Layout9GPOS_impl17CursivePosFormat1EEEbPKvPNS_21hb_ot_apply_context_tE, symObjAddr: 0x3C16C, symBinAddr: 0xA4844, symSize: 0x4 }
  - { offset: 0x4C231A, size: 0x8, addend: 0x0, symName: __ZN2OT33hb_accelerate_subtables_context_t13cache_func_toINS_6Layout9GPOS_impl17CursivePosFormat1EEEPvS5_NS_23hb_ot_lookup_cache_op_tE, symObjAddr: 0x3C170, symBinAddr: 0xA4848, symSize: 0x8 }
  - { offset: 0x4C24B7, size: 0x8, addend: 0x0, symName: __ZNK2OT6Layout9GPOS_impl13AnchorFormat310get_anchorEPNS_21hb_ot_apply_context_tEjPfS5_, symObjAddr: 0x3CDC0, symBinAddr: 0xA5498, symSize: 0x2D4 }
  - { offset: 0x4C3133, size: 0x8, addend: 0x0, symName: __ZNK2OT6Layout9GPOS_impl13AnchorFormat210get_anchorEPNS_21hb_ot_apply_context_tEjPfS5_, symObjAddr: 0x3CC74, symBinAddr: 0xA534C, symSize: 0x14C }
  - { offset: 0x4C34F5, size: 0x8, addend: 0x0, symName: __ZN2OT33hb_accelerate_subtables_context_t8apply_toINS_6Layout9GPOS_impl20MarkBasePosFormat1_2INS2_10SmallTypesEEEEEbPKvPNS_21hb_ot_apply_context_tE, symObjAddr: 0x3D1A8, symBinAddr: 0xA5880, symSize: 0x4 }
  - { offset: 0x4C3539, size: 0x8, addend: 0x0, symName: __ZN2OT33hb_accelerate_subtables_context_t8apply_toINS_6Layout9GPOS_impl20MarkBasePosFormat1_2INS2_10SmallTypesEEEEEbPKvPNS_21hb_ot_apply_context_tE, symObjAddr: 0x3D1A8, symBinAddr: 0xA5880, symSize: 0x4 }
  - { offset: 0x4C355C, size: 0x8, addend: 0x0, symName: __ZNK2OT6Layout9GPOS_impl20MarkBasePosFormat1_2INS0_10SmallTypesEE5applyEPNS_21hb_ot_apply_context_tE, symObjAddr: 0x3D1B8, symBinAddr: 0xA5890, symSize: 0x304 }
  - { offset: 0x4C3C82, size: 0x8, addend: 0x0, symName: __ZN2OT33hb_accelerate_subtables_context_t15apply_cached_toINS_6Layout9GPOS_impl20MarkBasePosFormat1_2INS2_10SmallTypesEEEEEbPKvPNS_21hb_ot_apply_context_tE, symObjAddr: 0x3D1AC, symBinAddr: 0xA5884, symSize: 0x4 }
  - { offset: 0x4C3CC7, size: 0x8, addend: 0x0, symName: __ZN2OT33hb_accelerate_subtables_context_t15apply_cached_toINS_6Layout9GPOS_impl20MarkBasePosFormat1_2INS2_10SmallTypesEEEEEbPKvPNS_21hb_ot_apply_context_tE, symObjAddr: 0x3D1AC, symBinAddr: 0xA5884, symSize: 0x4 }
  - { offset: 0x4C3CED, size: 0x8, addend: 0x0, symName: __ZN2OT33hb_accelerate_subtables_context_t15apply_cached_toINS_6Layout9GPOS_impl20MarkBasePosFormat1_2INS2_10SmallTypesEEEEEbPKvPNS_21hb_ot_apply_context_tE, symObjAddr: 0x3D1AC, symBinAddr: 0xA5884, symSize: 0x4 }
  - { offset: 0x4C3D10, size: 0x8, addend: 0x0, symName: __ZN2OT33hb_accelerate_subtables_context_t13cache_func_toINS_6Layout9GPOS_impl20MarkBasePosFormat1_2INS2_10SmallTypesEEEEEPvS7_NS_23hb_ot_lookup_cache_op_tE, symObjAddr: 0x3D1B0, symBinAddr: 0xA5888, symSize: 0x8 }
  - { offset: 0x4C3DB7, size: 0x8, addend: 0x0, symName: __ZN2OT6Layout9GPOS_impl20MarkBasePosFormat1_2INS0_10SmallTypesEE6acceptEP11hb_buffer_tj, symObjAddr: 0x3D4BC, symBinAddr: 0xA5B94, symSize: 0x80 }
  - { offset: 0x4C3E14, size: 0x8, addend: 0x0, symName: __ZNK2OT6Layout9GPOS_impl9MarkArray5applyEPNS_21hb_ot_apply_context_tEjjRKNS1_12AnchorMatrixEjj, symObjAddr: 0x3D53C, symBinAddr: 0xA5C14, symSize: 0x418 }
  - { offset: 0x4C47A9, size: 0x8, addend: 0x0, symName: __ZNK2OT6Layout9GPOS_impl12AnchorMatrix10get_anchorEPNS_21hb_ot_apply_context_tEjjjPb, symObjAddr: 0x3D954, symBinAddr: 0xA602C, symSize: 0x154 }
  - { offset: 0x4C4DBF, size: 0x8, addend: 0x0, symName: __ZN2OT33hb_accelerate_subtables_context_t8apply_toINS_6Layout9GPOS_impl19MarkLigPosFormat1_2INS2_10SmallTypesEEEEEbPKvPNS_21hb_ot_apply_context_tE, symObjAddr: 0x3DBBC, symBinAddr: 0xA6294, symSize: 0x4 }
  - { offset: 0x4C4E03, size: 0x8, addend: 0x0, symName: __ZN2OT33hb_accelerate_subtables_context_t8apply_toINS_6Layout9GPOS_impl19MarkLigPosFormat1_2INS2_10SmallTypesEEEEEbPKvPNS_21hb_ot_apply_context_tE, symObjAddr: 0x3DBBC, symBinAddr: 0xA6294, symSize: 0x4 }
  - { offset: 0x4C4E26, size: 0x8, addend: 0x0, symName: __ZNK2OT6Layout9GPOS_impl19MarkLigPosFormat1_2INS0_10SmallTypesEE5applyEPNS_21hb_ot_apply_context_tE, symObjAddr: 0x3DBCC, symBinAddr: 0xA62A4, symSize: 0x340 }
  - { offset: 0x4C5669, size: 0x8, addend: 0x0, symName: __ZN2OT33hb_accelerate_subtables_context_t15apply_cached_toINS_6Layout9GPOS_impl19MarkLigPosFormat1_2INS2_10SmallTypesEEEEEbPKvPNS_21hb_ot_apply_context_tE, symObjAddr: 0x3DBC0, symBinAddr: 0xA6298, symSize: 0x4 }
  - { offset: 0x4C56AE, size: 0x8, addend: 0x0, symName: __ZN2OT33hb_accelerate_subtables_context_t15apply_cached_toINS_6Layout9GPOS_impl19MarkLigPosFormat1_2INS2_10SmallTypesEEEEEbPKvPNS_21hb_ot_apply_context_tE, symObjAddr: 0x3DBC0, symBinAddr: 0xA6298, symSize: 0x4 }
  - { offset: 0x4C56D4, size: 0x8, addend: 0x0, symName: __ZN2OT33hb_accelerate_subtables_context_t15apply_cached_toINS_6Layout9GPOS_impl19MarkLigPosFormat1_2INS2_10SmallTypesEEEEEbPKvPNS_21hb_ot_apply_context_tE, symObjAddr: 0x3DBC0, symBinAddr: 0xA6298, symSize: 0x4 }
  - { offset: 0x4C56F7, size: 0x8, addend: 0x0, symName: __ZN2OT33hb_accelerate_subtables_context_t13cache_func_toINS_6Layout9GPOS_impl19MarkLigPosFormat1_2INS2_10SmallTypesEEEEEPvS7_NS_23hb_ot_lookup_cache_op_tE, symObjAddr: 0x3DBC4, symBinAddr: 0xA629C, symSize: 0x8 }
  - { offset: 0x4C57B4, size: 0x8, addend: 0x0, symName: __ZN2OT33hb_accelerate_subtables_context_t8apply_toINS_6Layout9GPOS_impl20MarkMarkPosFormat1_2INS2_10SmallTypesEEEEEbPKvPNS_21hb_ot_apply_context_tE, symObjAddr: 0x3E020, symBinAddr: 0xA66F8, symSize: 0x4 }
  - { offset: 0x4C57F8, size: 0x8, addend: 0x0, symName: __ZN2OT33hb_accelerate_subtables_context_t8apply_toINS_6Layout9GPOS_impl20MarkMarkPosFormat1_2INS2_10SmallTypesEEEEEbPKvPNS_21hb_ot_apply_context_tE, symObjAddr: 0x3E020, symBinAddr: 0xA66F8, symSize: 0x4 }
  - { offset: 0x4C581B, size: 0x8, addend: 0x0, symName: __ZNK2OT6Layout9GPOS_impl20MarkMarkPosFormat1_2INS0_10SmallTypesEE5applyEPNS_21hb_ot_apply_context_tE, symObjAddr: 0x3E030, symBinAddr: 0xA6708, symSize: 0x370 }
  - { offset: 0x4C5FA5, size: 0x8, addend: 0x0, symName: __ZN2OT33hb_accelerate_subtables_context_t15apply_cached_toINS_6Layout9GPOS_impl20MarkMarkPosFormat1_2INS2_10SmallTypesEEEEEbPKvPNS_21hb_ot_apply_context_tE, symObjAddr: 0x3E024, symBinAddr: 0xA66FC, symSize: 0x4 }
  - { offset: 0x4C5FEA, size: 0x8, addend: 0x0, symName: __ZN2OT33hb_accelerate_subtables_context_t15apply_cached_toINS_6Layout9GPOS_impl20MarkMarkPosFormat1_2INS2_10SmallTypesEEEEEbPKvPNS_21hb_ot_apply_context_tE, symObjAddr: 0x3E024, symBinAddr: 0xA66FC, symSize: 0x4 }
  - { offset: 0x4C6010, size: 0x8, addend: 0x0, symName: __ZN2OT33hb_accelerate_subtables_context_t15apply_cached_toINS_6Layout9GPOS_impl20MarkMarkPosFormat1_2INS2_10SmallTypesEEEEEbPKvPNS_21hb_ot_apply_context_tE, symObjAddr: 0x3E024, symBinAddr: 0xA66FC, symSize: 0x4 }
  - { offset: 0x4C6033, size: 0x8, addend: 0x0, symName: __ZN2OT33hb_accelerate_subtables_context_t13cache_func_toINS_6Layout9GPOS_impl20MarkMarkPosFormat1_2INS2_10SmallTypesEEEEEPvS7_NS_23hb_ot_lookup_cache_op_tE, symObjAddr: 0x3E028, symBinAddr: 0xA6700, symSize: 0x8 }
  - { offset: 0x4C6421, size: 0x8, addend: 0x0, symName: __ZN21hb_sanitize_context_t13sanitize_blobIN2OT4BASEEEEP9hb_blob_tS4_, symObjAddr: 0x3E8FC, symBinAddr: 0xA6FD4, symSize: 0x21C }
  - { offset: 0x4C6650, size: 0x8, addend: 0x0, symName: __ZNK2OT4BASE8sanitizeEP21hb_sanitize_context_t, symObjAddr: 0x3EB18, symBinAddr: 0xA71F0, symSize: 0x170 }
  - { offset: 0x4C71B9, size: 0x8, addend: 0x0, symName: __ZNK2OT4Axis8sanitizeEP21hb_sanitize_context_t, symObjAddr: 0x3EC88, symBinAddr: 0xA7360, symSize: 0x140 }
  - { offset: 0x4C7D12, size: 0x8, addend: 0x0, symName: __ZNK2OT14BaseScriptList8sanitizeEP21hb_sanitize_context_t, symObjAddr: 0x3EDC8, symBinAddr: 0xA74A0, symSize: 0x128 }
  - { offset: 0x4C85E7, size: 0x8, addend: 0x0, symName: __ZNK2OT10BaseScript8sanitizeEP21hb_sanitize_context_t, symObjAddr: 0x3EEF0, symBinAddr: 0xA75C8, symSize: 0x280 }
  - { offset: 0x4C996C, size: 0x8, addend: 0x0, symName: __ZN21hb_sanitize_context_t9_dispatchIN2OT8OffsetToINS1_9BaseCoordENS1_7IntTypeItLj2EEEvLb1EEEJPKNS1_10BaseValuesEEEEDTcldtfp_8sanitizefpTspclsr3stdE7forwardIT0_Efp1_EEERKT_11hb_priorityILj1EEDpOSA_, symObjAddr: 0x3F170, symBinAddr: 0xA7848, symSize: 0x108 }
  - { offset: 0x4C9EAD, size: 0x8, addend: 0x0, symName: __ZNK2OT6MinMax8sanitizeEP21hb_sanitize_context_t, symObjAddr: 0x3F374, symBinAddr: 0xA7A4C, symSize: 0x278 }
  - { offset: 0x4CADBE, size: 0x8, addend: 0x0, symName: __ZNK2OT16BaseCoordFormat38sanitizeEP21hb_sanitize_context_t, symObjAddr: 0x3F278, symBinAddr: 0xA7950, symSize: 0xFC }
  - { offset: 0x4CAE02, size: 0x8, addend: 0x0, symName: __ZNK2OT16BaseCoordFormat38sanitizeEP21hb_sanitize_context_t, symObjAddr: 0x3F278, symBinAddr: 0xA7950, symSize: 0xFC }
  - { offset: 0x4CAE27, size: 0x8, addend: 0x0, symName: __ZNK2OT16BaseCoordFormat38sanitizeEP21hb_sanitize_context_t, symObjAddr: 0x3F278, symBinAddr: 0xA7950, symSize: 0xFC }
  - { offset: 0x4CB423, size: 0x8, addend: 0x0, symName: __ZNK2OT16FeatMinMaxRecord8sanitizeEP21hb_sanitize_context_tPKv, symObjAddr: 0x3F5EC, symBinAddr: 0xA7CC4, symSize: 0x1F8 }
  - { offset: 0x4CC20C, size: 0x8, addend: 0x0, symName: __ZNK2OT6Layout9GSUB_impl11SingleSubst8dispatchI34hb_get_glyph_alternates_dispatch_tJRjS5_RPjS7_EEENT_8return_tEPS8_DpOT0_, symObjAddr: 0x3F920, symBinAddr: 0xA7FF8, symSize: 0x168 }
  - { offset: 0x4CC6EC, size: 0x8, addend: 0x0, symName: __ZN34hb_get_glyph_alternates_dispatch_t9_dispatchIN2OT6Layout9GSUB_impl23AlternateSubstFormat1_2INS2_10SmallTypesEEEJRjS7_RPjS9_EEEDTcldtfp_20get_glyph_alternatesspclsr3stdE7forwardIT0_Efp1_EEERKT_11hb_priorityILj1EEDpOSA_, symObjAddr: 0x3FA88, symBinAddr: 0xA8160, symSize: 0x140 }
  - { offset: 0x4CD440, size: 0x8, addend: 0x0, symName: __ZN29hb_position_single_dispatch_t9_dispatchIN2OT6Layout9GPOS_impl16SinglePosFormat1EJRP9hb_font_tRP9hb_blob_tR14hb_direction_tRjR19hb_glyph_position_tEEEDTcldtfp_15position_singlespclsr3stdE7forwardIT0_Efp1_EEERKT_11hb_priorityILj1EEDpOSG_, symObjAddr: 0x3FCF0, symBinAddr: 0xA83C8, symSize: 0xFC }
  - { offset: 0x4CD94E, size: 0x8, addend: 0x0, symName: __ZNK2OT6Layout9GPOS_impl16SinglePosFormat215position_singleEP9hb_font_tP9hb_blob_t14hb_direction_tjR19hb_glyph_position_t, symObjAddr: 0x3FDEC, symBinAddr: 0xA84C4, symSize: 0x10C }
  - { offset: 0x4D068A, size: 0x8, addend: 0x0, symName: __ZL10table_tags, symObjAddr: 0x3240, symBinAddr: 0xE8220, symSize: 0x0 }
  - { offset: 0x4D863C, size: 0x8, addend: 0x0, symName: __ZNK11hb_ot_map_t15collect_lookupsEjP8hb_set_t, symObjAddr: 0x0, symBinAddr: 0xA85D0, symSize: 0x90 }
  - { offset: 0x4D9054, size: 0x8, addend: 0x0, symName: __ZN19hb_ot_map_builder_tC2EP9hb_face_tRK23hb_segment_properties_t, symObjAddr: 0x1CC, symBinAddr: 0xA8660, symSize: 0x1DC }
  - { offset: 0x4D9397, size: 0x8, addend: 0x0, symName: __ZN19hb_ot_map_builder_tC1EP9hb_face_tRK23hb_segment_properties_t, symObjAddr: 0x3A8, symBinAddr: 0xA883C, symSize: 0x4 }
  - { offset: 0x4D93E0, size: 0x8, addend: 0x0, symName: __ZN19hb_ot_map_builder_tC1EP9hb_face_tRK23hb_segment_properties_t, symObjAddr: 0x3A8, symBinAddr: 0xA883C, symSize: 0x4 }
  - { offset: 0x4D9401, size: 0x8, addend: 0x0, symName: __ZN19hb_ot_map_builder_tD2Ev, symObjAddr: 0x3AC, symBinAddr: 0xA8840, symSize: 0xB0 }
  - { offset: 0x4D968A, size: 0x8, addend: 0x0, symName: __ZN19hb_ot_map_builder_tD1Ev, symObjAddr: 0x46C, symBinAddr: 0xA88F0, symSize: 0x4 }
  - { offset: 0x4D96B7, size: 0x8, addend: 0x0, symName: __ZN19hb_ot_map_builder_tD1Ev, symObjAddr: 0x46C, symBinAddr: 0xA88F0, symSize: 0x4 }
  - { offset: 0x4D98D3, size: 0x8, addend: 0x0, symName: __ZN19hb_ot_map_builder_t11add_featureEj25hb_ot_map_feature_flags_tj, symObjAddr: 0x470, symBinAddr: 0xA88F4, symSize: 0x134 }
  - { offset: 0x4D9AD8, size: 0x8, addend: 0x0, symName: __ZN19hb_ot_map_builder_t11has_featureEj, symObjAddr: 0x5A4, symBinAddr: 0xA8A28, symSize: 0x7C }
  - { offset: 0x4D9D6E, size: 0x8, addend: 0x0, symName: __ZN19hb_ot_map_builder_t11add_lookupsER11hb_ot_map_tjjjjbbbbj, symObjAddr: 0x620, symBinAddr: 0xA8AA4, symSize: 0x274 }
  - { offset: 0x4DA233, size: 0x8, addend: 0x0, symName: __ZN19hb_ot_map_builder_t9add_pauseEjPFbPK18hb_ot_shape_plan_tP9hb_font_tP11hb_buffer_tE, symObjAddr: 0x894, symBinAddr: 0xA8D18, symSize: 0x124 }
  - { offset: 0x4DB0F9, size: 0x8, addend: 0x0, symName: __ZN19hb_ot_map_builder_t7compileER11hb_ot_map_tRK22hb_ot_shape_plan_key_t, symObjAddr: 0x9B8, symBinAddr: 0xA8E3C, symSize: 0x1364 }
  - { offset: 0x4DCE87, size: 0x8, addend: 0x0, symName: __ZL13sort_r_simpleIJEEvPvmmPFiPKvS2_DpT_ES4_, symObjAddr: 0x2318, symBinAddr: 0xAA2F4, symSize: 0xE70 }
  - { offset: 0x4DD574, size: 0x8, addend: 0x0, symName: __ZN19hb_ot_map_builder_t14feature_info_t3cmpEPKvS2_, symObjAddr: 0x1D1C, symBinAddr: 0xAA1A0, symSize: 0x38 }
  - { offset: 0x4DD5C9, size: 0x8, addend: 0x0, symName: __ZN11hb_ot_map_t13feature_map_t3cmpEPKvS2_, symObjAddr: 0x1D54, symBinAddr: 0xAA1D8, symSize: 0x18 }
  - { offset: 0x4DD6E6, size: 0x8, addend: 0x0, symName: __ZNK11hb_ot_map_t16get_feature_tagsEjPjS0_, symObjAddr: 0x1D6C, symBinAddr: 0xAA1F0, symSize: 0x104 }
  - { offset: 0x4DDF24, size: 0x8, addend: 0x0, symName: __ZN11hb_ot_map_t12lookup_map_t3cmpEPKvS2_, symObjAddr: 0x3188, symBinAddr: 0xAB164, symSize: 0x18 }
  - { offset: 0x4DFDEB, size: 0x8, addend: 0x0, symName: _hb_ot_math_has_data, symObjAddr: 0x0, symBinAddr: 0xAB17C, symSize: 0xBC }
  - { offset: 0x4EE337, size: 0x8, addend: 0x0, symName: _hb_ot_math_has_data, symObjAddr: 0x0, symBinAddr: 0xAB17C, symSize: 0xBC }
  - { offset: 0x4EE632, size: 0x8, addend: 0x0, symName: __ZNK17hb_data_wrapper_tI9hb_face_tLj40EE11call_createI9hb_blob_t22hb_table_lazy_loader_tIN2OT4MATHELj40ELb1EEEEPT_v, symObjAddr: 0x1D24, symBinAddr: 0xAC708, symSize: 0x98 }
  - { offset: 0x4EE90D, size: 0x8, addend: 0x0, symName: _hb_ot_math_get_constant, symObjAddr: 0xBC, symBinAddr: 0xAB238, symSize: 0xD8 }
  - { offset: 0x4EECC6, size: 0x8, addend: 0x0, symName: __ZNK2OT13MathConstants9get_valueE21hb_ot_math_constant_tP9hb_font_t, symObjAddr: 0xD98, symBinAddr: 0xABF14, symSize: 0x184 }
  - { offset: 0x4EF316, size: 0x8, addend: 0x0, symName: _hb_ot_math_get_glyph_italics_correction, symObjAddr: 0x194, symBinAddr: 0xAB310, symSize: 0x16C }
  - { offset: 0x4F0103, size: 0x8, addend: 0x0, symName: _hb_ot_math_get_glyph_top_accent_attachment, symObjAddr: 0x300, symBinAddr: 0xAB47C, symSize: 0xEC }
  - { offset: 0x4F058A, size: 0x8, addend: 0x0, symName: __ZNK2OT23MathTopAccentAttachment9get_valueEjP9hb_font_t, symObjAddr: 0x16B4, symBinAddr: 0xAC098, symSize: 0x108 }
  - { offset: 0x4F090A, size: 0x8, addend: 0x0, symName: _hb_ot_math_is_glyph_extended_shape, symObjAddr: 0x3EC, symBinAddr: 0xAB568, symSize: 0xF0 }
  - { offset: 0x4F0F14, size: 0x8, addend: 0x0, symName: _hb_ot_math_get_glyph_kerning, symObjAddr: 0x4DC, symBinAddr: 0xAB658, symSize: 0x174 }
  - { offset: 0x4F1636, size: 0x8, addend: 0x0, symName: __ZNK2OT8MathKern9get_valueEiP9hb_font_t, symObjAddr: 0x17BC, symBinAddr: 0xAC1A0, symSize: 0x1E8 }
  - { offset: 0x4F1C54, size: 0x8, addend: 0x0, symName: _hb_ot_math_get_glyph_kernings, symObjAddr: 0x650, symBinAddr: 0xAB7CC, symSize: 0x188 }
  - { offset: 0x4F23BB, size: 0x8, addend: 0x0, symName: __ZNK2OT8MathKern11get_entriesEjPjP23hb_ot_math_kern_entry_tP9hb_font_t, symObjAddr: 0x19A4, symBinAddr: 0xAC388, symSize: 0x1A0 }
  - { offset: 0x4F285E, size: 0x8, addend: 0x0, symName: _hb_ot_math_get_glyph_variants, symObjAddr: 0x7D8, symBinAddr: 0xAB954, symSize: 0x108 }
  - { offset: 0x4F2C4C, size: 0x8, addend: 0x0, symName: __ZNK2OT12MathVariants18get_glyph_variantsEj14hb_direction_tP9hb_font_tjPjP26hb_ot_math_glyph_variant_t, symObjAddr: 0x8E0, symBinAddr: 0xABA5C, symSize: 0x1E4 }
  - { offset: 0x4F3723, size: 0x8, addend: 0x0, symName: _hb_ot_math_get_min_connector_overlap, symObjAddr: 0xAC4, symBinAddr: 0xABC40, symSize: 0x108 }
  - { offset: 0x4F3C41, size: 0x8, addend: 0x0, symName: _hb_ot_math_get_glyph_assembly, symObjAddr: 0xBCC, symBinAddr: 0xABD48, symSize: 0x1CC }
  - { offset: 0x4F437A, size: 0x8, addend: 0x0, symName: __ZNK2OT17MathGlyphAssembly9get_partsE14hb_direction_tP9hb_font_tjPjP23hb_ot_math_glyph_part_tPi, symObjAddr: 0x1B44, symBinAddr: 0xAC528, symSize: 0x1E0 }
  - { offset: 0x4F62AB, size: 0x8, addend: 0x0, symName: __ZN21hb_sanitize_context_t13sanitize_blobIN2OT4MATHEEEP9hb_blob_tS4_, symObjAddr: 0x1DBC, symBinAddr: 0xAC7A0, symSize: 0x21C }
  - { offset: 0x4F658D, size: 0x8, addend: 0x0, symName: __ZNK2OT4MATH8sanitizeEP21hb_sanitize_context_t, symObjAddr: 0x1FD8, symBinAddr: 0xAC9BC, symSize: 0x1D4 }
  - { offset: 0x4F76C7, size: 0x8, addend: 0x0, symName: __ZNK2OT15MathValueRecord8sanitizeEP21hb_sanitize_context_tPKv, symObjAddr: 0x21AC, symBinAddr: 0xACB90, symSize: 0xFC }
  - { offset: 0x4F7719, size: 0x8, addend: 0x0, symName: __ZNK2OT15MathValueRecord8sanitizeEP21hb_sanitize_context_tPKv, symObjAddr: 0x21AC, symBinAddr: 0xACB90, symSize: 0xFC }
  - { offset: 0x4F773E, size: 0x8, addend: 0x0, symName: __ZNK2OT15MathValueRecord8sanitizeEP21hb_sanitize_context_tPKv, symObjAddr: 0x21AC, symBinAddr: 0xACB90, symSize: 0xFC }
  - { offset: 0x4F7B70, size: 0x8, addend: 0x0, symName: __ZNK2OT13MathGlyphInfo8sanitizeEP21hb_sanitize_context_t, symObjAddr: 0x22A8, symBinAddr: 0xACC8C, symSize: 0x1A4 }
  - { offset: 0x4F8697, size: 0x8, addend: 0x0, symName: __ZNK2OT12MathVariants8sanitizeEP21hb_sanitize_context_t, symObjAddr: 0x2DC0, symBinAddr: 0xAD6B0, symSize: 0x1F0 }
  - { offset: 0x4F9A82, size: 0x8, addend: 0x0, symName: __ZNK2OT25MathItalicsCorrectionInfo8sanitizeEP21hb_sanitize_context_t, symObjAddr: 0x244C, symBinAddr: 0xACE30, symSize: 0x14C }
  - { offset: 0x4F9FAC, size: 0x8, addend: 0x0, symName: __ZNK2OT23MathTopAccentAttachment8sanitizeEP21hb_sanitize_context_t, symObjAddr: 0x2598, symBinAddr: 0xACF7C, symSize: 0x14C }
  - { offset: 0x4FA768, size: 0x8, addend: 0x0, symName: __ZNK2OT12MathKernInfo8sanitizeEP21hb_sanitize_context_t, symObjAddr: 0x27D8, symBinAddr: 0xAD0C8, symSize: 0x158 }
  - { offset: 0x4FB2D6, size: 0x8, addend: 0x0, symName: __ZNK2OT18MathKernInfoRecord8sanitizeEP21hb_sanitize_context_tPKv, symObjAddr: 0x2930, symBinAddr: 0xAD220, symSize: 0x490 }
  - { offset: 0x4FBE0D, size: 0x8, addend: 0x0, symName: __ZNK2OT21MathGlyphConstruction8sanitizeEP21hb_sanitize_context_t, symObjAddr: 0x2FB0, symBinAddr: 0xAD8A0, symSize: 0x184 }
  - { offset: 0x4FE651, size: 0x8, addend: 0x0, symName: _hb_ot_meta_get_entry_tags, symObjAddr: 0x0, symBinAddr: 0xADA24, symSize: 0xEC }
  - { offset: 0x50176D, size: 0x8, addend: 0x0, symName: __ZNK2OT4meta13accelerator_t11get_entriesEjPjP16hb_ot_meta_tag_t, symObjAddr: 0xEC, symBinAddr: 0xADB10, symSize: 0xC0 }
  - { offset: 0x503555, size: 0x8, addend: 0x0, symName: _hb_ot_meta_get_entry_tags, symObjAddr: 0x0, symBinAddr: 0xADA24, symSize: 0xEC }
  - { offset: 0x50387E, size: 0x8, addend: 0x0, symName: __ZN2OT4meta13accelerator_tC2EP9hb_face_t, symObjAddr: 0x338, symBinAddr: 0xADD5C, symSize: 0xB0 }
  - { offset: 0x503FF1, size: 0x8, addend: 0x0, symName: _hb_ot_meta_reference_entry, symObjAddr: 0x1AC, symBinAddr: 0xADBD0, symSize: 0xD4 }
  - { offset: 0x5042E3, size: 0x8, addend: 0x0, symName: __ZNK2OT4meta13accelerator_t15reference_entryEj, symObjAddr: 0x280, symBinAddr: 0xADCA4, symSize: 0xB8 }
  - { offset: 0x50431D, size: 0x8, addend: 0x0, symName: __ZNK2OT4meta13accelerator_t15reference_entryEj, symObjAddr: 0x280, symBinAddr: 0xADCA4, symSize: 0xB8 }
  - { offset: 0x50433C, size: 0x8, addend: 0x0, symName: __ZNK2OT4meta13accelerator_t15reference_entryEj, symObjAddr: 0x280, symBinAddr: 0xADCA4, symSize: 0xB8 }
  - { offset: 0x50435B, size: 0x8, addend: 0x0, symName: __ZNK2OT4meta13accelerator_t15reference_entryEj, symObjAddr: 0x280, symBinAddr: 0xADCA4, symSize: 0xB8 }
  - { offset: 0x50437A, size: 0x8, addend: 0x0, symName: __ZNK2OT4meta13accelerator_t15reference_entryEj, symObjAddr: 0x280, symBinAddr: 0xADCA4, symSize: 0xB8 }
  - { offset: 0x5049F9, size: 0x8, addend: 0x0, symName: __ZN21hb_sanitize_context_t13sanitize_blobIN2OT4metaEEEP9hb_blob_tS4_, symObjAddr: 0x424, symBinAddr: 0xADE0C, symSize: 0x21C }
  - { offset: 0x504D19, size: 0x8, addend: 0x0, symName: __ZNK2OT4meta8sanitizeEP21hb_sanitize_context_t, symObjAddr: 0x640, symBinAddr: 0xAE028, symSize: 0x138 }
  - { offset: 0x504D5D, size: 0x8, addend: 0x0, symName: __ZNK2OT4meta8sanitizeEP21hb_sanitize_context_t, symObjAddr: 0x640, symBinAddr: 0xAE028, symSize: 0x138 }
  - { offset: 0x50CA66, size: 0x8, addend: 0x0, symName: __Z34_hb_ot_metrics_get_position_commonP9hb_font_t19hb_ot_metrics_tag_tPi, symObjAddr: 0x0, symBinAddr: 0xAE160, symSize: 0x17C4 }
  - { offset: 0x511F89, size: 0x8, addend: 0x0, symName: __ZNK2OT4MVAR7get_varEjPKij, symObjAddr: 0x187C, symBinAddr: 0xAF924, symSize: 0xE0 }
  - { offset: 0x511FEF, size: 0x8, addend: 0x0, symName: __ZNK2OT4MVAR7get_varEjPKij, symObjAddr: 0x187C, symBinAddr: 0xAF924, symSize: 0xE0 }
  - { offset: 0x51200E, size: 0x8, addend: 0x0, symName: __ZNK2OT4MVAR7get_varEjPKij, symObjAddr: 0x187C, symBinAddr: 0xAF924, symSize: 0xE0 }
  - { offset: 0x5125E9, size: 0x8, addend: 0x0, symName: __ZNK17hb_data_wrapper_tI9hb_face_tLj22EE11call_createI9hb_blob_t22hb_table_lazy_loader_tIN2OT4MVARELj22ELb1EEEEPT_v, symObjAddr: 0x4704, symBinAddr: 0xB20A8, symSize: 0x94 }
  - { offset: 0x513034, size: 0x8, addend: 0x0, symName: __ZNK16hb_lazy_loader_tIN2OT4hheaE22hb_table_lazy_loader_tIS1_Lj4ELb1EE9hb_face_tLj4E9hb_blob_tEptEv, symObjAddr: 0x195C, symBinAddr: 0xAFA04, symSize: 0xB8 }
  - { offset: 0x5132BF, size: 0x8, addend: 0x0, symName: __ZNK16hb_lazy_loader_tIN2OT4vheaE22hb_table_lazy_loader_tIS1_Lj11ELb1EE9hb_face_tLj11E9hb_blob_tEptEv, symObjAddr: 0x1A14, symBinAddr: 0xAFABC, symSize: 0xB8 }
  - { offset: 0x513749, size: 0x8, addend: 0x0, symName: _hb_ot_metrics_get_position, symObjAddr: 0x1ACC, symBinAddr: 0xAFB74, symSize: 0x1F04 }
  - { offset: 0x51A576, size: 0x8, addend: 0x0, symName: _hb_ot_metrics_get_variation, symObjAddr: 0x39D0, symBinAddr: 0xB1A78, symSize: 0xC8 }
  - { offset: 0x51A851, size: 0x8, addend: 0x0, symName: _hb_ot_metrics_get_position_with_fallback, symObjAddr: 0x3A98, symBinAddr: 0xB1B40, symSize: 0x500 }
  - { offset: 0x51AA24, size: 0x8, addend: 0x0, symName: _hb_ot_metrics_get_x_variation, symObjAddr: 0x3F98, symBinAddr: 0xB2040, symSize: 0x34 }
  - { offset: 0x51AB1B, size: 0x8, addend: 0x0, symName: _hb_ot_metrics_get_y_variation, symObjAddr: 0x3FCC, symBinAddr: 0xB2074, symSize: 0x34 }
  - { offset: 0x51B61F, size: 0x8, addend: 0x0, symName: __ZN21hb_sanitize_context_t13sanitize_blobIN2OT4MVAREEEP9hb_blob_tS4_, symObjAddr: 0x4798, symBinAddr: 0xB213C, symSize: 0x21C }
  - { offset: 0x51B84E, size: 0x8, addend: 0x0, symName: __ZNK2OT4MVAR8sanitizeEP21hb_sanitize_context_t, symObjAddr: 0x49B4, symBinAddr: 0xB2358, symSize: 0x128 }
  - { offset: 0x521C96, size: 0x8, addend: 0x0, symName: __ZN2OT22hb_ot_name_convert_utfI13hb_utf16_xe_tINS_7IntTypeItLj2EEEE9hb_utf8_tEEj10hb_array_tIKcEPjPNT0_11codepoint_tE, symObjAddr: 0x2CC0, symBinAddr: 0xB4D04, symSize: 0x298 }
  - { offset: 0x522071, size: 0x8, addend: 0x0, symName: __ZN2OT22hb_ot_name_convert_utfI13hb_utf16_xe_tINS_7IntTypeItLj2EEEES1_ItEEEj10hb_array_tIKcEPjPNT0_11codepoint_tE, symObjAddr: 0x2F58, symBinAddr: 0xB4F9C, symSize: 0x208 }
  - { offset: 0x52260E, size: 0x8, addend: 0x0, symName: __ZN2OTL21_hb_ot_name_entry_cmpEPKvS1_, symObjAddr: 0x1288, symBinAddr: 0xB36CC, symSize: 0xC8 }
  - { offset: 0x524263, size: 0x8, addend: 0x0, symName: _hb_ot_name_list_names, symObjAddr: 0x0, symBinAddr: 0xB2480, symSize: 0x34 }
  - { offset: 0x5242F9, size: 0x8, addend: 0x0, symName: __ZNK16hb_lazy_loader_tIN2OT18name_accelerator_tE21hb_face_lazy_loader_tIS1_Lj8EE9hb_face_tLj8ES1_E3getEv, symObjAddr: 0xA10, symBinAddr: 0xB2E90, symSize: 0xDC }
  - { offset: 0x524980, size: 0x8, addend: 0x0, symName: _hb_ot_name_get_utf8, symObjAddr: 0x34, symBinAddr: 0xB24B4, symSize: 0x42C }
  - { offset: 0x524E4C, size: 0x8, addend: 0x0, symName: __ZNK2OT4name13accelerator_t9get_indexEjPK18hb_language_impl_tPj, symObjAddr: 0x2AA4, symBinAddr: 0xB4AE8, symSize: 0x21C }
  - { offset: 0x525206, size: 0x8, addend: 0x0, symName: _hb_ot_name_get_utf16, symObjAddr: 0x460, symBinAddr: 0xB28E0, symSize: 0x218 }
  - { offset: 0x5257E8, size: 0x8, addend: 0x0, symName: _hb_ot_name_get_utf32, symObjAddr: 0x678, symBinAddr: 0xB2AF8, symSize: 0x398 }
  - { offset: 0x5261F3, size: 0x8, addend: 0x0, symName: __ZN2OT4name13accelerator_tC2EP9hb_face_t, symObjAddr: 0xAEC, symBinAddr: 0xB2F6C, symSize: 0x61C }
  - { offset: 0x5274DA, size: 0x8, addend: 0x0, symName: __ZN21hb_sanitize_context_t13sanitize_blobIN2OT4nameEEEP9hb_blob_tS4_, symObjAddr: 0x1350, symBinAddr: 0xB3794, symSize: 0x3EC }
  - { offset: 0x527A1C, size: 0x8, addend: 0x0, symName: __ZNK2OT10NameRecord8languageEP9hb_face_t, symObjAddr: 0x1144, symBinAddr: 0xB3588, symSize: 0x144 }
  - { offset: 0x527F43, size: 0x8, addend: 0x0, symName: __ZL13sort_r_simpleIJEEvPvmmPFiPKvS2_DpT_ES4_, symObjAddr: 0x1C34, symBinAddr: 0xB3C78, symSize: 0xE70 }
  - { offset: 0x528A90, size: 0x8, addend: 0x0, symName: __ZNK2OT4name16sanitize_recordsEP21hb_sanitize_context_t, symObjAddr: 0x173C, symBinAddr: 0xB3B80, symSize: 0xF8 }
  - { offset: 0x532A35, size: 0x8, addend: 0x0, symName: __Z54_hb_ot_shape_fallback_mark_position_recategorize_marksPK18hb_ot_shape_plan_tP9hb_font_tP11hb_buffer_t, symObjAddr: 0x0, symBinAddr: 0xB51A4, symSize: 0x104 }
  - { offset: 0x532B52, size: 0x8, addend: 0x0, symName: __Z35_hb_ot_shape_fallback_mark_positionPK18hb_ot_shape_plan_tP9hb_font_tP11hb_buffer_tb, symObjAddr: 0x104, symBinAddr: 0xB52A8, symSize: 0xF4 }
  - { offset: 0x532CED, size: 0x8, addend: 0x0, symName: __ZL16position_clusterPK18hb_ot_shape_plan_tP9hb_font_tP11hb_buffer_tjjb, symObjAddr: 0x238, symBinAddr: 0xB539C, symSize: 0x890 }
  - { offset: 0x533CB2, size: 0x8, addend: 0x0, symName: __Z26_hb_ot_shape_fallback_kernPK18hb_ot_shape_plan_tP9hb_font_tP11hb_buffer_t, symObjAddr: 0xAC8, symBinAddr: 0xB5C2C, symSize: 0x280 }
  - { offset: 0x534249, size: 0x8, addend: 0x0, symName: __ZNK2OT17hb_kern_machine_tI34hb_ot_shape_fallback_kern_driver_tE4kernEP9hb_font_tP11hb_buffer_tjb, symObjAddr: 0xD48, symBinAddr: 0xB5EAC, symSize: 0x62C }
  - { offset: 0x536019, size: 0x8, addend: 0x0, symName: __Z28_hb_ot_shape_fallback_spacesPK18hb_ot_shape_plan_tP9hb_font_tP11hb_buffer_t, symObjAddr: 0x1374, symBinAddr: 0xB64D8, symSize: 0x4D8 }
  - { offset: 0x53FA68, size: 0x8, addend: 0x0, symName: __Z22_hb_ot_shape_normalizePK18hb_ot_shape_plan_tP11hb_buffer_tP9hb_font_t, symObjAddr: 0x0, symBinAddr: 0xB69B0, symSize: 0xD14 }
  - { offset: 0x54246F, size: 0x8, addend: 0x0, symName: __Z22_hb_ot_shape_normalizePK18hb_ot_shape_plan_tP11hb_buffer_tP9hb_font_t, symObjAddr: 0x0, symBinAddr: 0xB69B0, symSize: 0xD14 }
  - { offset: 0x542FCD, size: 0x8, addend: 0x0, symName: __ZL27decompose_current_characterPK31hb_ot_shape_normalize_context_tb, symObjAddr: 0xD84, symBinAddr: 0xB7734, symSize: 0x3CC }
  - { offset: 0x5434A2, size: 0x8, addend: 0x0, symName: __ZL32_hb_glyph_info_set_unicode_propsP15hb_glyph_info_tP11hb_buffer_t, symObjAddr: 0x11CC, symBinAddr: 0xB7B3C, symSize: 0x184 }
  - { offset: 0x543706, size: 0x8, addend: 0x0, symName: __ZN31hb_ot_shape_normalize_context_t17decompose_unicodeEPKS_jPjS2_, symObjAddr: 0xD14, symBinAddr: 0xB76C4, symSize: 0x30 }
  - { offset: 0x5437EC, size: 0x8, addend: 0x0, symName: __ZN31hb_ot_shape_normalize_context_t15compose_unicodeEPKS_jjPj, symObjAddr: 0xD44, symBinAddr: 0xB76F4, symSize: 0x40 }
  - { offset: 0x54391E, size: 0x8, addend: 0x0, symName: __ZL9decomposePK31hb_ot_shape_normalize_context_tbj, symObjAddr: 0x1350, symBinAddr: 0xB7CC0, symSize: 0x364 }
  - { offset: 0x543CE4, size: 0x8, addend: 0x0, symName: __ZL23compare_combining_classPK15hb_glyph_info_tS1_, symObjAddr: 0x1190, symBinAddr: 0xB7B00, symSize: 0x3C }
  - { offset: 0x545FA7, size: 0x8, addend: 0x0, symName: __ZN21hb_ot_shape_planner_tC2EP9hb_face_tRK23hb_segment_properties_t, symObjAddr: 0x0, symBinAddr: 0xB8024, symSize: 0xA54 }
  - { offset: 0x54EAA7, size: 0x8, addend: 0x0, symName: __ZN21hb_ot_shape_planner_tC2EP9hb_face_tRK23hb_segment_properties_t, symObjAddr: 0x0, symBinAddr: 0xB8024, symSize: 0xA54 }
  - { offset: 0x54EB94, size: 0x8, addend: 0x0, symName: __ZN21hb_ot_shape_planner_tC1EP9hb_face_tRK23hb_segment_properties_t, symObjAddr: 0xA54, symBinAddr: 0xB8A78, symSize: 0x4 }
  - { offset: 0x54EBC7, size: 0x8, addend: 0x0, symName: __ZN21hb_ot_shape_planner_tC1EP9hb_face_tRK23hb_segment_properties_t, symObjAddr: 0xA54, symBinAddr: 0xB8A78, symSize: 0x4 }
  - { offset: 0x54EF15, size: 0x8, addend: 0x0, symName: __ZN21hb_ot_shape_planner_t7compileER18hb_ot_shape_plan_tRK22hb_ot_shape_plan_key_t, symObjAddr: 0xA58, symBinAddr: 0xB8A7C, symSize: 0x61C }
  - { offset: 0x54FCC4, size: 0x8, addend: 0x0, symName: __ZN18hb_ot_shape_plan_t5init0EP9hb_face_tPK19hb_shape_plan_key_t, symObjAddr: 0x1074, symBinAddr: 0xB9098, symSize: 0x424 }
  - { offset: 0x55015D, size: 0x8, addend: 0x0, symName: __ZN11hb_ot_map_t4finiEv, symObjAddr: 0x1498, symBinAddr: 0xB94BC, symSize: 0xA8 }
  - { offset: 0x5503F4, size: 0x8, addend: 0x0, symName: __ZN18hb_ot_shape_plan_t4finiEv, symObjAddr: 0x1540, symBinAddr: 0xB9564, symSize: 0x34 }
  - { offset: 0x550436, size: 0x8, addend: 0x0, symName: __ZNK18hb_ot_shape_plan_t10substituteEP9hb_font_tP11hb_buffer_t, symObjAddr: 0x1574, symBinAddr: 0xB9598, symSize: 0x14 }
  - { offset: 0x55046D, size: 0x8, addend: 0x0, symName: __ZNK18hb_ot_shape_plan_t8positionEP9hb_font_tP11hb_buffer_t, symObjAddr: 0x1588, symBinAddr: 0xB95AC, symSize: 0xA8 }
  - { offset: 0x550532, size: 0x8, addend: 0x0, symName: __hb_ot_shaper_face_data_create, symObjAddr: 0x1630, symBinAddr: 0xB9654, symSize: 0x8 }
  - { offset: 0x55055F, size: 0x8, addend: 0x0, symName: __hb_ot_shaper_face_data_destroy, symObjAddr: 0x1638, symBinAddr: 0xB965C, symSize: 0x4 }
  - { offset: 0x550586, size: 0x8, addend: 0x0, symName: __hb_ot_shaper_font_data_create, symObjAddr: 0x163C, symBinAddr: 0xB9660, symSize: 0x8 }
  - { offset: 0x5505B3, size: 0x8, addend: 0x0, symName: __hb_ot_shaper_font_data_destroy, symObjAddr: 0x1644, symBinAddr: 0xB9668, symSize: 0x4 }
  - { offset: 0x5517F2, size: 0x8, addend: 0x0, symName: __hb_ot_shape, symObjAddr: 0x1648, symBinAddr: 0xB966C, symSize: 0x1CF4 }
  - { offset: 0x553531, size: 0x8, addend: 0x0, symName: __ZL32_hb_glyph_info_set_unicode_propsP15hb_glyph_info_tP11hb_buffer_t, symObjAddr: 0x35E4, symBinAddr: 0xBB5C8, symSize: 0x184 }
  - { offset: 0x5540FC, size: 0x8, addend: 0x0, symName: _hb_ot_shape_plan_collect_lookups, symObjAddr: 0x333C, symBinAddr: 0xBB360, symSize: 0x3C }
  - { offset: 0x55416A, size: 0x8, addend: 0x0, symName: _hb_ot_shape_plan_get_feature_tags, symObjAddr: 0x3378, symBinAddr: 0xBB39C, symSize: 0x8 }
  - { offset: 0x554263, size: 0x8, addend: 0x0, symName: _hb_ot_shape_glyphs_closure, symObjAddr: 0x3380, symBinAddr: 0xBB3A4, symSize: 0x224 }
  - { offset: 0x554BC5, size: 0x8, addend: 0x0, symName: __ZL23_hb_grapheme_group_funcRK15hb_glyph_info_tS1_, symObjAddr: 0x3884, symBinAddr: 0xBB74C, symSize: 0xC }
  - { offset: 0x554D9E, size: 0x8, addend: 0x0, symName: __ZL35_hb_glyph_info_is_default_ignorablePK15hb_glyph_info_t, symObjAddr: 0x3D4C, symBinAddr: 0xBB758, symSize: 0x20 }
  - { offset: 0x557A22, size: 0x8, addend: 0x0, symName: __hb_ot_shaper_arabic, symObjAddr: 0x14EB0, symBinAddr: 0x104108, symSize: 0x0 }
  - { offset: 0x55EDA6, size: 0x8, addend: 0x0, symName: __ZN2OTL12ligate_inputEPNS_21hb_ot_apply_context_tEjPKjjjj, symObjAddr: 0xBE94, symBinAddr: 0xC2704, symSize: 0x488 }
  - { offset: 0x55F2D1, size: 0x8, addend: 0x0, symName: __ZN2OTL12match_alwaysER15hb_glyph_info_tjPKv, symObjAddr: 0xBE7C, symBinAddr: 0xC26EC, symSize: 0x8 }
  - { offset: 0x55F318, size: 0x8, addend: 0x0, symName: __ZN2OTL11match_glyphER15hb_glyph_info_tjPKv, symObjAddr: 0xBE84, symBinAddr: 0xC26F4, symSize: 0x10 }
  - { offset: 0x55F672, size: 0x8, addend: 0x0, symName: __ZN2OTL12apply_lookupEPNS_21hb_ot_apply_context_tEjPjjPKNS_12LookupRecordEj, symObjAddr: 0xD94C, symBinAddr: 0xC2CC8, symSize: 0x53C }
  - { offset: 0x55FAAB, size: 0x8, addend: 0x0, symName: __ZN2OTL18match_class_cachedER15hb_glyph_info_tjPKv, symObjAddr: 0xE280, symBinAddr: 0xC3204, symSize: 0x15C }
  - { offset: 0x55FF4C, size: 0x8, addend: 0x0, symName: __ZN2OTL11match_classER15hb_glyph_info_tjPKv, symObjAddr: 0xE3DC, symBinAddr: 0xC3360, symSize: 0x11C }
  - { offset: 0x560464, size: 0x8, addend: 0x0, symName: __ZN2OTL14match_coverageER15hb_glyph_info_tjPKv, symObjAddr: 0xECE4, symBinAddr: 0xC347C, symSize: 0x38 }
  - { offset: 0x560841, size: 0x8, addend: 0x0, symName: __ZN2OTL19match_class_cached1ER15hb_glyph_info_tjPKv, symObjAddr: 0x1091C, symBinAddr: 0xC365C, symSize: 0x154 }
  - { offset: 0x560D06, size: 0x8, addend: 0x0, symName: __ZN2OTL19match_class_cached2ER15hb_glyph_info_tjPKv, symObjAddr: 0x10A70, symBinAddr: 0xC37B0, symSize: 0x150 }
  - { offset: 0x5646E6, size: 0x8, addend: 0x0, symName: __ZL15arabic_features, symObjAddr: 0x13C54, symBinAddr: 0xE855C, symSize: 0x0 }
  - { offset: 0x56470B, size: 0x8, addend: 0x0, symName: __ZL13joining_table, symObjAddr: 0x13D1C, symBinAddr: 0xE8624, symSize: 0x0 }
  - { offset: 0x564737, size: 0x8, addend: 0x0, symName: __ZL18arabic_state_table, symObjAddr: 0x13C74, symBinAddr: 0xE857C, symSize: 0x0 }
  - { offset: 0x56479A, size: 0x8, addend: 0x0, symName: __ZL24arabic_fallback_features, symObjAddr: 0x142B8, symBinAddr: 0xE8BC0, symSize: 0x0 }
  - { offset: 0x5647BF, size: 0x8, addend: 0x0, symName: __ZL13shaping_table, symObjAddr: 0x142D4, symBinAddr: 0xE8BDC, symSize: 0x0 }
  - { offset: 0x5651B0, size: 0x8, addend: 0x0, symName: __ZL8hb_first, symObjAddr: 0x1486C, symBinAddr: 0xE9174, symSize: 0x0 }
  - { offset: 0x56531D, size: 0x8, addend: 0x0, symName: __ZL14ligature_table, symObjAddr: 0x148F0, symBinAddr: 0xE91F8, symSize: 0x0 }
  - { offset: 0x565412, size: 0x8, addend: 0x0, symName: __ZL6hb_add, symObjAddr: 0x14D04, symBinAddr: 0xE960C, symSize: 0x0 }
  - { offset: 0x565554, size: 0x8, addend: 0x0, symName: __ZL11hb_identity, symObjAddr: 0x14D05, symBinAddr: 0xE960D, symSize: 0x0 }
  - { offset: 0x56AA40, size: 0x8, addend: 0x0, symName: __Z18data_create_arabicPK18hb_ot_shape_plan_t, symObjAddr: 0x0, symBinAddr: 0xBB778, symSize: 0x1E0 }
  - { offset: 0x56AEF5, size: 0x8, addend: 0x0, symName: __Z19data_destroy_arabicPv, symObjAddr: 0x1E0, symBinAddr: 0xBB958, symSize: 0xB8 }
  - { offset: 0x56B020, size: 0x8, addend: 0x0, symName: __ZL28arabic_fallback_plan_destroyP22arabic_fallback_plan_t, symObjAddr: 0x298, symBinAddr: 0xBBA10, symSize: 0xB0 }
  - { offset: 0x56B400, size: 0x8, addend: 0x0, symName: __Z23setup_masks_arabic_planPK19arabic_shape_plan_tP11hb_buffer_t11hb_script_t, symObjAddr: 0x348, symBinAddr: 0xBBAC0, symSize: 0x6CC }
  - { offset: 0x56B97C, size: 0x8, addend: 0x0, symName: __ZL16get_joining_typej29hb_unicode_general_category_t, symObjAddr: 0x1964, symBinAddr: 0xBD0DC, symSize: 0x170 }
  - { offset: 0x56B9CC, size: 0x8, addend: 0x0, symName: __ZL16get_joining_typej29hb_unicode_general_category_t, symObjAddr: 0x1964, symBinAddr: 0xBD0DC, symSize: 0x170 }
  - { offset: 0x56BBBD, size: 0x8, addend: 0x0, symName: __ZN11hb_buffer_t22safe_to_insert_tatweelEjj, symObjAddr: 0x1AD4, symBinAddr: 0xBD24C, symSize: 0x2D8 }
  - { offset: 0x56BFB6, size: 0x8, addend: 0x0, symName: __ZL23collect_features_arabicP21hb_ot_shape_planner_t, symObjAddr: 0xA14, symBinAddr: 0xBC18C, symSize: 0x2B4 }
  - { offset: 0x56C793, size: 0x8, addend: 0x0, symName: __ZL25postprocess_glyphs_arabicPK18hb_ot_shape_plan_tP11hb_buffer_tP9hb_font_t, symObjAddr: 0xCC8, symBinAddr: 0xBC440, symSize: 0x804 }
  - { offset: 0x56D033, size: 0x8, addend: 0x0, symName: __ZL18setup_masks_arabicPK18hb_ot_shape_plan_tP11hb_buffer_tP9hb_font_t, symObjAddr: 0x14CC, symBinAddr: 0xBCC44, symSize: 0x10 }
  - { offset: 0x56D13B, size: 0x8, addend: 0x0, symName: __ZL20reorder_marks_arabicPK18hb_ot_shape_plan_tP11hb_buffer_tjj, symObjAddr: 0x14DC, symBinAddr: 0xBCC54, symSize: 0x488 }
  - { offset: 0x56D508, size: 0x8, addend: 0x0, symName: __ZL11record_stchPK18hb_ot_shape_plan_tP9hb_font_tP11hb_buffer_t, symObjAddr: 0x2530, symBinAddr: 0xBD524, symSize: 0x74 }
  - { offset: 0x56D654, size: 0x8, addend: 0x0, symName: __ZL21deallocate_buffer_varPK18hb_ot_shape_plan_tP9hb_font_tP11hb_buffer_t, symObjAddr: 0x25A4, symBinAddr: 0xBD598, symSize: 0x14 }
  - { offset: 0x56D69C, size: 0x8, addend: 0x0, symName: __ZL21deallocate_buffer_varPK18hb_ot_shape_plan_tP9hb_font_tP11hb_buffer_t, symObjAddr: 0x25A4, symBinAddr: 0xBD598, symSize: 0x14 }
  - { offset: 0x56D9FA, size: 0x8, addend: 0x0, symName: __ZL21arabic_fallback_shapePK18hb_ot_shape_plan_tP9hb_font_tP11hb_buffer_t, symObjAddr: 0x25B8, symBinAddr: 0xBD5AC, symSize: 0x1F0 }
  - { offset: 0x56E591, size: 0x8, addend: 0x0, symName: __ZL27arabic_fallback_plan_createPK18hb_ot_shape_plan_tP9hb_font_t, symObjAddr: 0x27A8, symBinAddr: 0xBD79C, symSize: 0x10DC }
  - { offset: 0x570FFE, size: 0x8, addend: 0x0, symName: __ZN22hb_serialize_context_t4pushIN2OT6Layout9GSUB_impl11SubstLookupEEEPT_v, symObjAddr: 0x4070, symBinAddr: 0xBE9F8, symSize: 0xD0 }
  - { offset: 0x57118E, size: 0x8, addend: 0x0, symName: __ZN2OT6Layout9GSUB_impl11SubstLookup16serialize_singleI17hb_sorted_array_tINS_11HBGlyphID16EE10hb_array_tIS5_ELPv0EEEbP22hb_serialize_context_tjT_T0_, symObjAddr: 0x3B74, symBinAddr: 0xBE878, symSize: 0x180 }
  - { offset: 0x571583, size: 0x8, addend: 0x0, symName: __ZN2OT6Layout9GSUB_impl11SubstLookup18serialize_ligatureEP22hb_serialize_context_tj17hb_sorted_array_tIKNS_11HBGlyphID16EE10hb_array_tIKjES9_IS7_ESB_SC_, symObjAddr: 0x7588, symBinAddr: 0xC0D8C, symSize: 0x204 }
  - { offset: 0x573894, size: 0x8, addend: 0x0, symName: __ZN2OT6Lookup9serializeEP22hb_serialize_context_tjjj, symObjAddr: 0x43EC, symBinAddr: 0xBEAC8, symSize: 0x26C }
  - { offset: 0x573F30, size: 0x8, addend: 0x0, symName: __ZN22hb_serialize_context_t4pushIN2OT6Layout9GSUB_impl19SubstLookupSubTableEEEPT_v, symObjAddr: 0x4658, symBinAddr: 0xBED34, symSize: 0xD0 }
  - { offset: 0x5740C5, size: 0x8, addend: 0x0, symName: __ZN2OT6Layout9GSUB_impl11SingleSubst9serializeI13hb_zip_iter_tI17hb_sorted_array_tINS_11HBGlyphID16EE10hb_array_tIS6_EELPv0EEEbP22hb_serialize_context_tT_, symObjAddr: 0x4728, symBinAddr: 0xBEE04, symSize: 0x244 }
  - { offset: 0x5748CB, size: 0x8, addend: 0x0, symName: __ZN22hb_serialize_context_t8add_linkIN2OT8OffsetToINS1_6Layout9GSUB_impl19SubstLookupSubTableENS1_7IntTypeItLj2EEEvLb1EEEEEvRT_jNS_8whence_tEj, symObjAddr: 0x496C, symBinAddr: 0xBF048, symSize: 0x184 }
  - { offset: 0x574B37, size: 0x8, addend: 0x0, symName: __ZN22hb_serialize_context_t21discard_stale_objectsEv, symObjAddr: 0x7134, symBinAddr: 0xC0C3C, symSize: 0x150 }
  - { offset: 0x576306, size: 0x8, addend: 0x0, symName: __ZN2OT6Layout9GSUB_impl20SingleSubstFormat2_4INS0_10SmallTypesEE9serializeI13hb_zip_iter_tI17hb_sorted_array_tINS_11HBGlyphID16EE10hb_array_tIS8_EELPv0EEEbP22hb_serialize_context_tT_, symObjAddr: 0x4F1C, symBinAddr: 0xBF1CC, symSize: 0x210 }
  - { offset: 0x576A89, size: 0x8, addend: 0x0, symName: '__ZN2OT8OffsetToINS_6Layout6Common8CoverageENS_7IntTypeItLj2EEEvLb1EE19serialize_serializeIJR13hb_map_iter_tI13hb_zip_iter_tI17hb_sorted_array_tINS_11HBGlyphID16EE10hb_array_tISB_EERK3$_8L24hb_function_sortedness_t1ELPv0EEEEEbP22hb_serialize_context_tDpOT_', symObjAddr: 0x512C, symBinAddr: 0xBF3DC, symSize: 0x720 }
  - { offset: 0x579417, size: 0x8, addend: 0x0, symName: __ZN22hb_serialize_context_t4pushIN2OT6Layout6Common8CoverageEEEPT_v, symObjAddr: 0x584C, symBinAddr: 0xBFAFC, symSize: 0xD0 }
  - { offset: 0x5795A7, size: 0x8, addend: 0x0, symName: __ZN22hb_serialize_context_t8add_linkIN2OT8OffsetToINS1_6Layout6Common8CoverageENS1_7IntTypeItLj2EEEvLb1EEEEEvRT_jNS_8whence_tEj, symObjAddr: 0x591C, symBinAddr: 0xBFBCC, symSize: 0x184 }
  - { offset: 0x579813, size: 0x8, addend: 0x0, symName: __ZL13sort_r_simpleIJEEvPvmmPFiPKvS2_DpT_ES4_, symObjAddr: 0x5B1C, symBinAddr: 0xBFDCC, symSize: 0xE70 }
  - { offset: 0x579D0E, size: 0x8, addend: 0x0, symName: __ZN2OT6Layout6Common11RangeRecordINS0_10SmallTypesEE9cmp_rangeEPKvS6_, symObjAddr: 0x5AA0, symBinAddr: 0xBFD50, symSize: 0x7C }
  - { offset: 0x579D62, size: 0x8, addend: 0x0, symName: __ZN2OT6Layout6Common11RangeRecordINS0_10SmallTypesEE9cmp_rangeEPKvS6_, symObjAddr: 0x5AA0, symBinAddr: 0xBFD50, symSize: 0x7C }
  - { offset: 0x579D7F, size: 0x8, addend: 0x0, symName: __ZN2OT6Layout6Common11RangeRecordINS0_10SmallTypesEE9cmp_rangeEPKvS6_, symObjAddr: 0x5AA0, symBinAddr: 0xBFD50, symSize: 0x7C }
  - { offset: 0x57AB7B, size: 0x8, addend: 0x0, symName: __ZN2OT6Layout9GSUB_impl22LigatureSubstFormat1_2INS0_10SmallTypesEE9serializeEP22hb_serialize_context_t17hb_sorted_array_tIKNS_11HBGlyphID16EE10hb_array_tIKjESB_IS9_ESD_SE_, symObjAddr: 0x778C, symBinAddr: 0xC0F90, symSize: 0x294 }
  - { offset: 0x57B62E, size: 0x8, addend: 0x0, symName: __ZN2OT8OffsetToINS_6Layout9GSUB_impl11LigatureSetINS1_10SmallTypesEEENS_7IntTypeItLj2EEEvLb1EE19serialize_serializeIJ10hb_array_tIKNS_11HBGlyphID16EESA_IKjERSD_EEEbP22hb_serialize_context_tDpOT_, symObjAddr: 0x7A20, symBinAddr: 0xC1224, symSize: 0x140 }
  - { offset: 0x57B933, size: 0x8, addend: 0x0, symName: __ZN2OT8OffsetToINS_6Layout6Common8CoverageENS_7IntTypeItLj2EEEvLb1EE19serialize_serializeIJR17hb_sorted_array_tIKNS_11HBGlyphID16EEEEEbP22hb_serialize_context_tDpOT_, symObjAddr: 0x7B60, symBinAddr: 0xC1364, symSize: 0x124 }
  - { offset: 0x57BC29, size: 0x8, addend: 0x0, symName: __ZN22hb_serialize_context_t4pushIN2OT6Layout9GSUB_impl11LigatureSetINS2_10SmallTypesEEEEEPT_v, symObjAddr: 0x7C84, symBinAddr: 0xC1488, symSize: 0xD0 }
  - { offset: 0x57BDB9, size: 0x8, addend: 0x0, symName: __ZN2OT6Layout9GSUB_impl11LigatureSetINS0_10SmallTypesEE9serializeEP22hb_serialize_context_t10hb_array_tIKNS_11HBGlyphID16EES7_IKjERSA_, symObjAddr: 0x7D54, symBinAddr: 0xC1558, symSize: 0x264 }
  - { offset: 0x57C3BB, size: 0x8, addend: 0x0, symName: __ZN22hb_serialize_context_t8add_linkIN2OT8OffsetToINS1_6Layout9GSUB_impl11LigatureSetINS3_10SmallTypesEEENS1_7IntTypeItLj2EEEvLb1EEEEEvRT_jNS_8whence_tEj, symObjAddr: 0x7FB8, symBinAddr: 0xC17BC, symSize: 0x184 }
  - { offset: 0x57C627, size: 0x8, addend: 0x0, symName: __ZN2OT6Layout6Common8Coverage9serializeI17hb_sorted_array_tIKNS_11HBGlyphID16EELPv0EEEbP22hb_serialize_context_tT_, symObjAddr: 0x86C0, symBinAddr: 0xC1EC4, symSize: 0x410 }
  - { offset: 0x57CE7B, size: 0x8, addend: 0x0, symName: __ZN2OT8OffsetToINS_6Layout9GSUB_impl8LigatureINS1_10SmallTypesEEENS_7IntTypeItLj2EEEvLb1EE19serialize_serializeIJRKNS_11HBGlyphID16E10hb_array_tISB_EEEEbP22hb_serialize_context_tDpOT_, symObjAddr: 0x813C, symBinAddr: 0xC1940, symSize: 0x130 }
  - { offset: 0x57D1C4, size: 0x8, addend: 0x0, symName: __ZN22hb_serialize_context_t4pushIN2OT6Layout9GSUB_impl8LigatureINS2_10SmallTypesEEEEEPT_v, symObjAddr: 0x826C, symBinAddr: 0xC1A70, symSize: 0xD0 }
  - { offset: 0x57D359, size: 0x8, addend: 0x0, symName: __ZN2OT6Layout9GSUB_impl8LigatureINS0_10SmallTypesEE9serializeI10hb_array_tIKNS_11HBGlyphID16EELPv0EEEbP22hb_serialize_context_tjT_, symObjAddr: 0x833C, symBinAddr: 0xC1B40, symSize: 0x200 }
  - { offset: 0x57D82B, size: 0x8, addend: 0x0, symName: __ZN22hb_serialize_context_t8add_linkIN2OT8OffsetToINS1_6Layout9GSUB_impl8LigatureINS3_10SmallTypesEEENS1_7IntTypeItLj2EEEvLb1EEEEEvRT_jNS_8whence_tEj, symObjAddr: 0x853C, symBinAddr: 0xC1D40, symSize: 0x184 }
  - { offset: 0x57DEE4, size: 0x8, addend: 0x0, symName: __ZN2OT6Layout6Common17CoverageFormat2_4INS0_10SmallTypesEE9serializeI17hb_sorted_array_tIKNS_11HBGlyphID16EELPv0EEEbP22hb_serialize_context_tT_, symObjAddr: 0x8AD0, symBinAddr: 0xC22D4, symSize: 0x3F8 }
  - { offset: 0x583C01, size: 0x8, addend: 0x0, symName: '__ZorI13hb_map_iter_tI10hb_array_tIKN2OT8OffsetToINS2_4RuleINS2_6Layout10SmallTypesEEENS2_7IntTypeItLj2EEEvLb1EEEE12hb_partial_tILj2EPK4$_39PKNS2_7RuleSetIS6_EEEL24hb_function_sortedness_t0ELPv0EE24hb_filter_iter_factory_tIZNKSI_5applyEPNS2_21hb_ot_apply_context_tERKNS2_25ContextApplyLookupContextEEUlRKS7_E0_RK3$_6ELSN_0EEDTclclsr3stdE7forwardIT0_Efp0_Eclsr3stdE7forwardIT_Efp_EEEOS13_OS12_', symObjAddr: 0xD248, symBinAddr: 0xC2C58, symSize: 0x70 }
  - { offset: 0x583C40, size: 0x8, addend: 0x0, symName: '__ZorI13hb_map_iter_tI10hb_array_tIKN2OT8OffsetToINS2_4RuleINS2_6Layout10SmallTypesEEENS2_7IntTypeItLj2EEEvLb1EEEE12hb_partial_tILj2EPK4$_39PKNS2_7RuleSetIS6_EEEL24hb_function_sortedness_t0ELPv0EE24hb_filter_iter_factory_tIZNKSI_5applyEPNS2_21hb_ot_apply_context_tERKNS2_25ContextApplyLookupContextEEUlRKS7_E0_RK3$_6ELSN_0EEDTclclsr3stdE7forwardIT0_Efp0_Eclsr3stdE7forwardIT_Efp_EEEOS13_OS12_', symObjAddr: 0xD248, symBinAddr: 0xC2C58, symSize: 0x70 }
  - { offset: 0x583C56, size: 0x8, addend: 0x0, symName: '__ZorI13hb_map_iter_tI10hb_array_tIKN2OT8OffsetToINS2_4RuleINS2_6Layout10SmallTypesEEENS2_7IntTypeItLj2EEEvLb1EEEE12hb_partial_tILj2EPK4$_39PKNS2_7RuleSetIS6_EEEL24hb_function_sortedness_t0ELPv0EE24hb_filter_iter_factory_tIZNKSI_5applyEPNS2_21hb_ot_apply_context_tERKNS2_25ContextApplyLookupContextEEUlRKS7_E0_RK3$_6ELSN_0EEDTclclsr3stdE7forwardIT0_Efp0_Eclsr3stdE7forwardIT_Efp_EEEOS13_OS12_', symObjAddr: 0xD248, symBinAddr: 0xC2C58, symSize: 0x70 }
  - { offset: 0x583C7C, size: 0x8, addend: 0x0, symName: '__ZorI13hb_map_iter_tI10hb_array_tIKN2OT8OffsetToINS2_4RuleINS2_6Layout10SmallTypesEEENS2_7IntTypeItLj2EEEvLb1EEEE12hb_partial_tILj2EPK4$_39PKNS2_7RuleSetIS6_EEEL24hb_function_sortedness_t0ELPv0EE24hb_filter_iter_factory_tIZNKSI_5applyEPNS2_21hb_ot_apply_context_tERKNS2_25ContextApplyLookupContextEEUlRKS7_E0_RK3$_6ELSN_0EEDTclclsr3stdE7forwardIT0_Efp0_Eclsr3stdE7forwardIT_Efp_EEEOS13_OS12_', symObjAddr: 0xD248, symBinAddr: 0xC2C58, symSize: 0x70 }
  - { offset: 0x583FEB, size: 0x8, addend: 0x0, symName: '__ZorI13hb_map_iter_tI16hb_filter_iter_tIS0_I10hb_array_tIKN2OT8OffsetToINS3_4RuleINS3_6Layout10SmallTypesEEENS3_7IntTypeItLj2EEEvLb1EEEE12hb_partial_tILj2EPK4$_39PKNS3_7RuleSetIS7_EEEL24hb_function_sortedness_t0ELPv0EEZNKSJ_5applyEPNS3_21hb_ot_apply_context_tERKNS3_25ContextApplyLookupContextEEUlRKS8_E0_RK3$_6LSO_0EEZNKSJ_5applyESR_SU_EUlSW_E1_LSN_0ELSO_0EERK4$_34LSO_0EEDTclclsr3stdE7forwardIT0_Efp0_Eclsr3stdE7forwardIT_Efp_EEEOS18_OS17_', symObjAddr: 0xD17C, symBinAddr: 0xC2B8C, symSize: 0xCC }
  - { offset: 0x585617, size: 0x8, addend: 0x0, symName: '__ZorI13hb_map_iter_tI10hb_array_tIKN2OT8OffsetToINS2_9ChainRuleINS2_6Layout10SmallTypesEEENS2_7IntTypeItLj2EEEvLb1EEEE12hb_partial_tILj2EPK4$_39PKNS2_12ChainRuleSetIS6_EEEL24hb_function_sortedness_t0ELPv0EE24hb_filter_iter_factory_tIZNKSI_5applyEPNS2_21hb_ot_apply_context_tERKNS2_30ChainContextApplyLookupContextEEUlRKS7_E0_RK3$_6ELSN_0EEDTclclsr3stdE7forwardIT0_Efp0_Eclsr3stdE7forwardIT_Efp_EEEOS13_OS12_', symObjAddr: 0xF9DC, symBinAddr: 0xC35BC, symSize: 0xA0 }
  - { offset: 0x585656, size: 0x8, addend: 0x0, symName: '__ZorI13hb_map_iter_tI10hb_array_tIKN2OT8OffsetToINS2_9ChainRuleINS2_6Layout10SmallTypesEEENS2_7IntTypeItLj2EEEvLb1EEEE12hb_partial_tILj2EPK4$_39PKNS2_12ChainRuleSetIS6_EEEL24hb_function_sortedness_t0ELPv0EE24hb_filter_iter_factory_tIZNKSI_5applyEPNS2_21hb_ot_apply_context_tERKNS2_30ChainContextApplyLookupContextEEUlRKS7_E0_RK3$_6ELSN_0EEDTclclsr3stdE7forwardIT0_Efp0_Eclsr3stdE7forwardIT_Efp_EEEOS13_OS12_', symObjAddr: 0xF9DC, symBinAddr: 0xC35BC, symSize: 0xA0 }
  - { offset: 0x58566C, size: 0x8, addend: 0x0, symName: '__ZorI13hb_map_iter_tI10hb_array_tIKN2OT8OffsetToINS2_9ChainRuleINS2_6Layout10SmallTypesEEENS2_7IntTypeItLj2EEEvLb1EEEE12hb_partial_tILj2EPK4$_39PKNS2_12ChainRuleSetIS6_EEEL24hb_function_sortedness_t0ELPv0EE24hb_filter_iter_factory_tIZNKSI_5applyEPNS2_21hb_ot_apply_context_tERKNS2_30ChainContextApplyLookupContextEEUlRKS7_E0_RK3$_6ELSN_0EEDTclclsr3stdE7forwardIT0_Efp0_Eclsr3stdE7forwardIT_Efp_EEEOS13_OS12_', symObjAddr: 0xF9DC, symBinAddr: 0xC35BC, symSize: 0xA0 }
  - { offset: 0x585692, size: 0x8, addend: 0x0, symName: '__ZorI13hb_map_iter_tI10hb_array_tIKN2OT8OffsetToINS2_9ChainRuleINS2_6Layout10SmallTypesEEENS2_7IntTypeItLj2EEEvLb1EEEE12hb_partial_tILj2EPK4$_39PKNS2_12ChainRuleSetIS6_EEEL24hb_function_sortedness_t0ELPv0EE24hb_filter_iter_factory_tIZNKSI_5applyEPNS2_21hb_ot_apply_context_tERKNS2_30ChainContextApplyLookupContextEEUlRKS7_E0_RK3$_6ELSN_0EEDTclclsr3stdE7forwardIT0_Efp0_Eclsr3stdE7forwardIT_Efp_EEEOS13_OS12_', symObjAddr: 0xF9DC, symBinAddr: 0xC35BC, symSize: 0xA0 }
  - { offset: 0x585B4C, size: 0x8, addend: 0x0, symName: '__ZorI13hb_map_iter_tI16hb_filter_iter_tIS0_I10hb_array_tIKN2OT8OffsetToINS3_9ChainRuleINS3_6Layout10SmallTypesEEENS3_7IntTypeItLj2EEEvLb1EEEE12hb_partial_tILj2EPK4$_39PKNS3_12ChainRuleSetIS7_EEEL24hb_function_sortedness_t0ELPv0EEZNKSJ_5applyEPNS3_21hb_ot_apply_context_tERKNS3_30ChainContextApplyLookupContextEEUlRKS8_E0_RK3$_6LSO_0EEZNKSJ_5applyESR_SU_EUlSW_E1_LSN_0ELSO_0EERK4$_34LSO_0EEDTclclsr3stdE7forwardIT0_Efp0_Eclsr3stdE7forwardIT_Efp_EEEOS18_OS17_', symObjAddr: 0xF8D4, symBinAddr: 0xC34B4, symSize: 0x108 }
  - { offset: 0x58FA50, size: 0x8, addend: 0x0, symName: __hb_ot_shaper_default, symObjAddr: 0x0, symBinAddr: 0xE9610, symSize: 0x0 }
  - { offset: 0x5907F1, size: 0x8, addend: 0x0, symName: __hb_ot_shaper_dumber, symObjAddr: 0x60, symBinAddr: 0xE9670, symSize: 0x0 }
  - { offset: 0x59265D, size: 0x8, addend: 0x0, symName: __ZL23collect_features_hangulP21hb_ot_shape_planner_t, symObjAddr: 0x0, symBinAddr: 0xC3900, symSize: 0x60 }
  - { offset: 0x592678, size: 0x8, addend: 0x0, symName: __hb_ot_shaper_hangul, symObjAddr: 0x1A50, symBinAddr: 0x1041A8, symSize: 0x0 }
  - { offset: 0x5934C9, size: 0x8, addend: 0x0, symName: __ZL23collect_features_hangulP21hb_ot_shape_planner_t, symObjAddr: 0x0, symBinAddr: 0xC3900, symSize: 0x60 }
  - { offset: 0x593549, size: 0x8, addend: 0x0, symName: __ZL24override_features_hangulP21hb_ot_shape_planner_t, symObjAddr: 0x60, symBinAddr: 0xC3960, symSize: 0x18 }
  - { offset: 0x593840, size: 0x8, addend: 0x0, symName: __ZL18data_create_hangulPK18hb_ot_shape_plan_t, symObjAddr: 0x78, symBinAddr: 0xC3978, symSize: 0x1A4 }
  - { offset: 0x5939C0, size: 0x8, addend: 0x0, symName: __ZL19data_destroy_hangulPv, symObjAddr: 0x21C, symBinAddr: 0xC3B1C, symSize: 0x4 }
  - { offset: 0x5939EB, size: 0x8, addend: 0x0, symName: __ZL19data_destroy_hangulPv, symObjAddr: 0x21C, symBinAddr: 0xC3B1C, symSize: 0x4 }
  - { offset: 0x593F19, size: 0x8, addend: 0x0, symName: __ZL22preprocess_text_hangulPK18hb_ot_shape_plan_tP11hb_buffer_tP9hb_font_t, symObjAddr: 0x220, symBinAddr: 0xC3B20, symSize: 0x1064 }
  - { offset: 0x5955CF, size: 0x8, addend: 0x0, symName: __ZL18setup_masks_hangulPK18hb_ot_shape_plan_tP11hb_buffer_tP9hb_font_t, symObjAddr: 0x1284, symBinAddr: 0xC4B84, symSize: 0x48 }
  - { offset: 0x5974FF, size: 0x8, addend: 0x0, symName: __ZL14compose_hebrewPK31hb_ot_shape_normalize_context_tjjPj, symObjAddr: 0x0, symBinAddr: 0xC4BCC, symSize: 0x1CC }
  - { offset: 0x597519, size: 0x8, addend: 0x0, symName: __hb_ot_shaper_hebrew, symObjAddr: 0x360, symBinAddr: 0x104208, symSize: 0x0 }
  - { offset: 0x598329, size: 0x8, addend: 0x0, symName: __ZL14compose_hebrewPK31hb_ot_shape_normalize_context_tjjPj, symObjAddr: 0x0, symBinAddr: 0xC4BCC, symSize: 0x1CC }
  - { offset: 0x598353, size: 0x8, addend: 0x0, symName: __ZZL14compose_hebrewPK31hb_ot_shape_normalize_context_tjjPjE12sDageshForms, symObjAddr: 0x2F0, symBinAddr: 0xE96E0, symSize: 0x0 }
  - { offset: 0x5984F9, size: 0x8, addend: 0x0, symName: __ZL20reorder_marks_hebrewPK18hb_ot_shape_plan_tP11hb_buffer_tjj, symObjAddr: 0x1CC, symBinAddr: 0xC4D98, symSize: 0x114 }
  - { offset: 0x59855E, size: 0x8, addend: 0x0, symName: __ZL20reorder_marks_hebrewPK18hb_ot_shape_plan_tP11hb_buffer_tjj, symObjAddr: 0x1CC, symBinAddr: 0xC4D98, symSize: 0x114 }
  - { offset: 0x59A500, size: 0x8, addend: 0x0, symName: __Z23hb_indic_get_categoriesj, symObjAddr: 0x0, symBinAddr: 0xC4EAC, symSize: 0x1D8 }
  - { offset: 0x59A519, size: 0x8, addend: 0x0, symName: __ZL11indic_table, symObjAddr: 0x1EA, symBinAddr: 0xE975E, symSize: 0x0 }
  - { offset: 0x59A599, size: 0x8, addend: 0x0, symName: __Z23hb_indic_get_categoriesj, symObjAddr: 0x0, symBinAddr: 0xC4EAC, symSize: 0x1D8 }
  - { offset: 0x59D39F, size: 0x8, addend: 0x0, symName: __ZL22collect_features_indicP21hb_ot_shape_planner_t, symObjAddr: 0x0, symBinAddr: 0xC5084, symSize: 0x2F0 }
  - { offset: 0x59D3BA, size: 0x8, addend: 0x0, symName: __hb_ot_shaper_indic, symObjAddr: 0x6090, symBinAddr: 0x104268, symSize: 0x0 }
  - { offset: 0x59E834, size: 0x8, addend: 0x0, symName: __ZL42_indic_syllable_machine_from_state_actions, symObjAddr: 0x5E88, symBinAddr: 0xEC418, symSize: 0x0 }
  - { offset: 0x59E85E, size: 0x8, addend: 0x0, symName: __ZL32_indic_syllable_machine_indicies, symObjAddr: 0x4040, symBinAddr: 0xEA5D0, symSize: 0x0 }
  - { offset: 0x59E885, size: 0x8, addend: 0x0, symName: __ZL37_indic_syllable_machine_index_offsets, symObjAddr: 0x5AA8, symBinAddr: 0xEC038, symSize: 0x0 }
  - { offset: 0x59E8AF, size: 0x8, addend: 0x0, symName: __ZL33_indic_syllable_machine_key_spans, symObjAddr: 0x5BBC, symBinAddr: 0xEC14C, symSize: 0x0 }
  - { offset: 0x59E8CA, size: 0x8, addend: 0x0, symName: __ZL35_indic_syllable_machine_trans_targs, symObjAddr: 0x5C46, symBinAddr: 0xEC1D6, symSize: 0x0 }
  - { offset: 0x59E8F1, size: 0x8, addend: 0x0, symName: __ZL37_indic_syllable_machine_trans_actions, symObjAddr: 0x5CDD, symBinAddr: 0xEC26D, symSize: 0x0 }
  - { offset: 0x59E918, size: 0x8, addend: 0x0, symName: __ZL40_indic_syllable_machine_to_state_actions, symObjAddr: 0x5F12, symBinAddr: 0xEC4A2, symSize: 0x0 }
  - { offset: 0x59E933, size: 0x8, addend: 0x0, symName: __ZL33_indic_syllable_machine_eof_trans, symObjAddr: 0x5D74, symBinAddr: 0xEC304, symSize: 0x0 }
  - { offset: 0x59E956, size: 0x8, addend: 0x0, symName: __ZL14indic_features, symObjAddr: 0x3FB8, symBinAddr: 0xEA548, symSize: 0x0 }
  - { offset: 0x59E97B, size: 0x8, addend: 0x0, symName: __ZL13indic_configs, symObjAddr: 0x5F9C, symBinAddr: 0xEC52C, symSize: 0x0 }
  - { offset: 0x59ECD2, size: 0x8, addend: 0x0, symName: __ZL22collect_features_indicP21hb_ot_shape_planner_t, symObjAddr: 0x0, symBinAddr: 0xC5084, symSize: 0x2F0 }
  - { offset: 0x59EE7C, size: 0x8, addend: 0x0, symName: __ZL23override_features_indicP21hb_ot_shape_planner_t, symObjAddr: 0x2F0, symBinAddr: 0xC5374, symSize: 0x44 }
  - { offset: 0x59F3E7, size: 0x8, addend: 0x0, symName: __ZL17data_create_indicPK18hb_ot_shape_plan_t, symObjAddr: 0x334, symBinAddr: 0xC53B8, symSize: 0x78C }
  - { offset: 0x5A030E, size: 0x8, addend: 0x0, symName: __ZL18data_destroy_indicPv, symObjAddr: 0xAC0, symBinAddr: 0xC5B44, symSize: 0x4 }
  - { offset: 0x5A033B, size: 0x8, addend: 0x0, symName: __ZL18data_destroy_indicPv, symObjAddr: 0xAC0, symBinAddr: 0xC5B44, symSize: 0x4 }
  - { offset: 0x5A035C, size: 0x8, addend: 0x0, symName: __ZL21preprocess_text_indicPK18hb_ot_shape_plan_tP11hb_buffer_tP9hb_font_t, symObjAddr: 0xAC4, symBinAddr: 0xC5B48, symSize: 0x14 }
  - { offset: 0x5A0419, size: 0x8, addend: 0x0, symName: __ZL15decompose_indicPK31hb_ot_shape_normalize_context_tjPjS2_, symObjAddr: 0xAD8, symBinAddr: 0xC5B5C, symSize: 0x58 }
  - { offset: 0x5A051C, size: 0x8, addend: 0x0, symName: __ZL13compose_indicPK31hb_ot_shape_normalize_context_tjjPj, symObjAddr: 0xB30, symBinAddr: 0xC5BB4, symSize: 0xE4 }
  - { offset: 0x5A06C2, size: 0x8, addend: 0x0, symName: __ZL17setup_masks_indicPK18hb_ot_shape_plan_tP11hb_buffer_tP9hb_font_t, symObjAddr: 0xC14, symBinAddr: 0xC5C98, symSize: 0x4C }
  - { offset: 0x5A0A68, size: 0x8, addend: 0x0, symName: __ZL21setup_syllables_indicPK18hb_ot_shape_plan_tP9hb_font_tP11hb_buffer_t, symObjAddr: 0xC60, symBinAddr: 0xC5CE4, symSize: 0x238 }
  - { offset: 0x5A0D40, size: 0x8, addend: 0x0, symName: __Z20find_syllables_indicP11hb_buffer_t, symObjAddr: 0x2194, symBinAddr: 0xC7218, symSize: 0xAE4 }
  - { offset: 0x5A14A2, size: 0x8, addend: 0x0, symName: __ZL24initial_reordering_indicPK18hb_ot_shape_plan_tP9hb_font_tP11hb_buffer_t, symObjAddr: 0xE98, symBinAddr: 0xC5F1C, symSize: 0x4A4 }
  - { offset: 0x5A1F04, size: 0x8, addend: 0x0, symName: __ZL37initial_reordering_consonant_syllablePK18hb_ot_shape_plan_tP9hb_face_tP11hb_buffer_tjj, symObjAddr: 0x2DE4, symBinAddr: 0xC7CFC, symSize: 0x119C }
  - { offset: 0x5A2EA9, size: 0x8, addend: 0x0, symName: __ZL22final_reordering_indicPK18hb_ot_shape_plan_tP9hb_font_tP11hb_buffer_t, symObjAddr: 0x133C, symBinAddr: 0xC63C0, symSize: 0xE58 }
  - { offset: 0x5A5734, size: 0x8, addend: 0x0, symName: __ZL22collect_features_khmerP21hb_ot_shape_planner_t, symObjAddr: 0x0, symBinAddr: 0xC8E98, symSize: 0x17C }
  - { offset: 0x5A574F, size: 0x8, addend: 0x0, symName: __hb_ot_shaper_khmer, symObjAddr: 0x1A18, symBinAddr: 0x1042C8, symSize: 0x0 }
  - { offset: 0x5A65A2, size: 0x8, addend: 0x0, symName: __ZL42_khmer_syllable_machine_from_state_actions, symObjAddr: 0x19C0, symBinAddr: 0xECB34, symSize: 0x0 }
  - { offset: 0x5A65CC, size: 0x8, addend: 0x0, symName: __ZL32_khmer_syllable_machine_indicies, symObjAddr: 0x14C8, symBinAddr: 0xEC63C, symSize: 0x0 }
  - { offset: 0x5A65F3, size: 0x8, addend: 0x0, symName: __ZL37_khmer_syllable_machine_index_offsets, symObjAddr: 0x1886, symBinAddr: 0xEC9FA, symSize: 0x0 }
  - { offset: 0x5A661D, size: 0x8, addend: 0x0, symName: __ZL33_khmer_syllable_machine_key_spans, symObjAddr: 0x18DC, symBinAddr: 0xECA50, symSize: 0x0 }
  - { offset: 0x5A6636, size: 0x8, addend: 0x0, symName: __ZL35_khmer_syllable_machine_trans_targs, symObjAddr: 0x1907, symBinAddr: 0xECA7B, symSize: 0x0 }
  - { offset: 0x5A665B, size: 0x8, addend: 0x0, symName: __ZL37_khmer_syllable_machine_trans_actions, symObjAddr: 0x1938, symBinAddr: 0xECAAC, symSize: 0x0 }
  - { offset: 0x5A6674, size: 0x8, addend: 0x0, symName: __ZL40_khmer_syllable_machine_to_state_actions, symObjAddr: 0x19EB, symBinAddr: 0xECB5F, symSize: 0x0 }
  - { offset: 0x5A668F, size: 0x8, addend: 0x0, symName: __ZL33_khmer_syllable_machine_eof_trans, symObjAddr: 0x196A, symBinAddr: 0xECADE, symSize: 0x0 }
  - { offset: 0x5A6775, size: 0x8, addend: 0x0, symName: __ZL22collect_features_khmerP21hb_ot_shape_planner_t, symObjAddr: 0x0, symBinAddr: 0xC8E98, symSize: 0x17C }
  - { offset: 0x5A6978, size: 0x8, addend: 0x0, symName: __ZL23override_features_khmerP21hb_ot_shape_planner_t, symObjAddr: 0x17C, symBinAddr: 0xC9014, symSize: 0x84 }
  - { offset: 0x5A6DA4, size: 0x8, addend: 0x0, symName: __ZL17data_create_khmerPK18hb_ot_shape_plan_t, symObjAddr: 0x200, symBinAddr: 0xC9098, symSize: 0x2BC }
  - { offset: 0x5A6F5C, size: 0x8, addend: 0x0, symName: __ZL18data_destroy_khmerPv, symObjAddr: 0x4BC, symBinAddr: 0xC9354, symSize: 0x4 }
  - { offset: 0x5A6F87, size: 0x8, addend: 0x0, symName: __ZL18data_destroy_khmerPv, symObjAddr: 0x4BC, symBinAddr: 0xC9354, symSize: 0x4 }
  - { offset: 0x5A6FE2, size: 0x8, addend: 0x0, symName: __ZL15decompose_khmerPK31hb_ot_shape_normalize_context_tjPjS2_, symObjAddr: 0x4C0, symBinAddr: 0xC9358, symSize: 0xE4 }
  - { offset: 0x5A70E5, size: 0x8, addend: 0x0, symName: __ZL13compose_khmerPK31hb_ot_shape_normalize_context_tjjPj, symObjAddr: 0x5A4, symBinAddr: 0xC943C, symSize: 0xB8 }
  - { offset: 0x5A728B, size: 0x8, addend: 0x0, symName: __ZL17setup_masks_khmerPK18hb_ot_shape_plan_tP11hb_buffer_tP9hb_font_t, symObjAddr: 0x65C, symBinAddr: 0xC94F4, symSize: 0x48 }
  - { offset: 0x5A75EE, size: 0x8, addend: 0x0, symName: __ZL21setup_syllables_khmerPK18hb_ot_shape_plan_tP9hb_font_tP11hb_buffer_t, symObjAddr: 0x6A4, symBinAddr: 0xC953C, symSize: 0x238 }
  - { offset: 0x5A78BB, size: 0x8, addend: 0x0, symName: __Z20find_syllables_khmerP11hb_buffer_t, symObjAddr: 0xCFC, symBinAddr: 0xC9B94, symSize: 0x640 }
  - { offset: 0x5A7E7C, size: 0x8, addend: 0x0, symName: __ZL13reorder_khmerPK18hb_ot_shape_plan_tP9hb_font_tP11hb_buffer_t, symObjAddr: 0x8DC, symBinAddr: 0xC9774, symSize: 0x420 }
  - { offset: 0x5AA071, size: 0x8, addend: 0x0, symName: __ZL24collect_features_myanmarP21hb_ot_shape_planner_t, symObjAddr: 0x0, symBinAddr: 0xCA1D4, symSize: 0x198 }
  - { offset: 0x5AA08C, size: 0x8, addend: 0x0, symName: __hb_ot_shaper_myanmar, symObjAddr: 0x2090, symBinAddr: 0x104328, symSize: 0x0 }
  - { offset: 0x5AAF00, size: 0x8, addend: 0x0, symName: __hb_ot_shaper_myanmar_zawgyi, symObjAddr: 0x1328, symBinAddr: 0xECBA0, symSize: 0x0 }
  - { offset: 0x5AAF25, size: 0x8, addend: 0x0, symName: __ZL44_myanmar_syllable_machine_from_state_actions, symObjAddr: 0x2022, symBinAddr: 0xED89A, symSize: 0x0 }
  - { offset: 0x5AAF4F, size: 0x8, addend: 0x0, symName: __ZL34_myanmar_syllable_machine_indicies, symObjAddr: 0x1388, symBinAddr: 0xECC00, symSize: 0x0 }
  - { offset: 0x5AAF76, size: 0x8, addend: 0x0, symName: __ZL39_myanmar_syllable_machine_index_offsets, symObjAddr: 0x1E9E, symBinAddr: 0xED716, symSize: 0x0 }
  - { offset: 0x5AAFA0, size: 0x8, addend: 0x0, symName: __ZL35_myanmar_syllable_machine_key_spans, symObjAddr: 0x1F08, symBinAddr: 0xED780, symSize: 0x0 }
  - { offset: 0x5AAFBB, size: 0x8, addend: 0x0, symName: __ZL37_myanmar_syllable_machine_trans_targs, symObjAddr: 0x1F3D, symBinAddr: 0xED7B5, symSize: 0x0 }
  - { offset: 0x5AAFE2, size: 0x8, addend: 0x0, symName: __ZL39_myanmar_syllable_machine_trans_actions, symObjAddr: 0x1F7A, symBinAddr: 0xED7F2, symSize: 0x0 }
  - { offset: 0x5AAFFD, size: 0x8, addend: 0x0, symName: __ZL42_myanmar_syllable_machine_to_state_actions, symObjAddr: 0x2057, symBinAddr: 0xED8CF, symSize: 0x0 }
  - { offset: 0x5AB018, size: 0x8, addend: 0x0, symName: __ZL35_myanmar_syllable_machine_eof_trans, symObjAddr: 0x1FB8, symBinAddr: 0xED830, symSize: 0x0 }
  - { offset: 0x5AB0B0, size: 0x8, addend: 0x0, symName: __ZL24collect_features_myanmarP21hb_ot_shape_planner_t, symObjAddr: 0x0, symBinAddr: 0xCA1D4, symSize: 0x198 }
  - { offset: 0x5AB308, size: 0x8, addend: 0x0, symName: __ZL19setup_masks_myanmarPK18hb_ot_shape_plan_tP11hb_buffer_tP9hb_font_t, symObjAddr: 0x198, symBinAddr: 0xCA36C, symSize: 0x48 }
  - { offset: 0x5AB6A6, size: 0x8, addend: 0x0, symName: __ZL23setup_syllables_myanmarPK18hb_ot_shape_plan_tP9hb_font_tP11hb_buffer_t, symObjAddr: 0x1E0, symBinAddr: 0xCA3B4, symSize: 0x238 }
  - { offset: 0x5AB973, size: 0x8, addend: 0x0, symName: __Z22find_syllables_myanmarP11hb_buffer_t, symObjAddr: 0xAE0, symBinAddr: 0xCACB4, symSize: 0x6B8 }
  - { offset: 0x5AC0C4, size: 0x8, addend: 0x0, symName: __ZL15reorder_myanmarPK18hb_ot_shape_plan_tP9hb_font_tP11hb_buffer_t, symObjAddr: 0x418, symBinAddr: 0xCA5EC, symSize: 0x6C8 }
  - { offset: 0x5AC6F9, size: 0x8, addend: 0x0, symName: __ZL21compare_myanmar_orderPK15hb_glyph_info_tS1_, symObjAddr: 0x1304, symBinAddr: 0xCB36C, symSize: 0x10 }
  - { offset: 0x5AE5BD, size: 0x8, addend: 0x0, symName: __Z33hb_syllabic_insert_dotted_circlesP9hb_font_tP11hb_buffer_tjjii, symObjAddr: 0x0, symBinAddr: 0xCB37C, symSize: 0x2B4 }
  - { offset: 0x5AF3F4, size: 0x8, addend: 0x0, symName: __Z33hb_syllabic_insert_dotted_circlesP9hb_font_tP11hb_buffer_tjjii, symObjAddr: 0x0, symBinAddr: 0xCB37C, symSize: 0x2B4 }
  - { offset: 0x5AF6B6, size: 0x8, addend: 0x0, symName: __ZN11hb_buffer_t10next_glyphEv, symObjAddr: 0x2F4, symBinAddr: 0xCB630, symSize: 0x98 }
  - { offset: 0x5AF6DD, size: 0x8, addend: 0x0, symName: __ZN11hb_buffer_t11output_infoERK15hb_glyph_info_t, symObjAddr: 0x38C, symBinAddr: 0xCB6C8, symSize: 0x5C }
  - { offset: 0x5AF75B, size: 0x8, addend: 0x0, symName: __Z21hb_syllabic_clear_varPK18hb_ot_shape_plan_tP9hb_font_tP11hb_buffer_t, symObjAddr: 0x3E8, symBinAddr: 0xCB724, symSize: 0x14 }
  - { offset: 0x5AF7A9, size: 0x8, addend: 0x0, symName: __Z21hb_syllabic_clear_varPK18hb_ot_shape_plan_tP9hb_font_tP11hb_buffer_t, symObjAddr: 0x3E8, symBinAddr: 0xCB724, symSize: 0x14 }
  - { offset: 0x5B1642, size: 0x8, addend: 0x0, symName: __ZL20preprocess_text_thaiPK18hb_ot_shape_plan_tP11hb_buffer_tP9hb_font_t, symObjAddr: 0x0, symBinAddr: 0xCB738, symSize: 0x6CC }
  - { offset: 0x5B165D, size: 0x8, addend: 0x0, symName: __hb_ot_shaper_thai, symObjAddr: 0xAB8, symBinAddr: 0x104388, symSize: 0x0 }
  - { offset: 0x5B2446, size: 0x8, addend: 0x0, symName: __ZL22thai_above_start_state, symObjAddr: 0x928, symBinAddr: 0xED908, symSize: 0x0 }
  - { offset: 0x5B2496, size: 0x8, addend: 0x0, symName: __ZL22thai_below_start_state, symObjAddr: 0x93C, symBinAddr: 0xED91C, symSize: 0x0 }
  - { offset: 0x5B24E0, size: 0x8, addend: 0x0, symName: __ZL24thai_above_state_machine, symObjAddr: 0x950, symBinAddr: 0xED930, symSize: 0x0 }
  - { offset: 0x5B255D, size: 0x8, addend: 0x0, symName: __ZL24thai_below_state_machine, symObjAddr: 0x9B0, symBinAddr: 0xED990, symSize: 0x0 }
  - { offset: 0x5B25B7, size: 0x8, addend: 0x0, symName: __ZZL14thai_pua_shapej13thai_action_tP9hb_font_tE11SD_mappings, symObjAddr: 0x9F8, symBinAddr: 0xED9D8, symSize: 0x0 }
  - { offset: 0x5B25FB, size: 0x8, addend: 0x0, symName: __ZZL14thai_pua_shapej13thai_action_tP9hb_font_tE12SDL_mappings, symObjAddr: 0xA2E, symBinAddr: 0xEDA0E, symSize: 0x0 }
  - { offset: 0x5B2611, size: 0x8, addend: 0x0, symName: __ZZL14thai_pua_shapej13thai_action_tP9hb_font_tE11SL_mappings, symObjAddr: 0xA52, symBinAddr: 0xEDA32, symSize: 0x0 }
  - { offset: 0x5B2627, size: 0x8, addend: 0x0, symName: __ZZL14thai_pua_shapej13thai_action_tP9hb_font_tE11RD_mappings, symObjAddr: 0xAA0, symBinAddr: 0xEDA80, symSize: 0x0 }
  - { offset: 0x5B2C01, size: 0x8, addend: 0x0, symName: __ZL20preprocess_text_thaiPK18hb_ot_shape_plan_tP11hb_buffer_tP9hb_font_t, symObjAddr: 0x0, symBinAddr: 0xCB738, symSize: 0x6CC }
  - { offset: 0x5B3240, size: 0x8, addend: 0x0, symName: __ZN11hb_buffer_t12output_glyphEj, symObjAddr: 0x6CC, symBinAddr: 0xCBE04, symSize: 0x90 }
  - { offset: 0x5B3316, size: 0x8, addend: 0x0, symName: __ZN11hb_buffer_t13replace_glyphEj, symObjAddr: 0x75C, symBinAddr: 0xCBE94, symSize: 0x9C }
  - { offset: 0x5B540D, size: 0x8, addend: 0x0, symName: __ZL20collect_features_useP21hb_ot_shape_planner_t, symObjAddr: 0x0, symBinAddr: 0xCBF30, symSize: 0x2E8 }
  - { offset: 0x5B5428, size: 0x8, addend: 0x0, symName: __hb_ot_shaper_use, symObjAddr: 0x6FC8, symBinAddr: 0x1043E8, symSize: 0x0 }
  - { offset: 0x5B63E5, size: 0x8, addend: 0x0, symName: __ZL9hb_second, symObjAddr: 0x4502, symBinAddr: 0xEDAD2, symSize: 0x0 }
  - { offset: 0x5B6403, size: 0x8, addend: 0x0, symName: __ZL11hb_identity, symObjAddr: 0x4503, symBinAddr: 0xEDAD3, symSize: 0x0 }
  - { offset: 0x5B645E, size: 0x8, addend: 0x0, symName: __ZL40_use_syllable_machine_from_state_actions, symObjAddr: 0x5B08, symBinAddr: 0xEF0D8, symSize: 0x0 }
  - { offset: 0x5B6483, size: 0x8, addend: 0x0, symName: __ZL32_use_syllable_machine_trans_keys, symObjAddr: 0x4504, symBinAddr: 0xEDAD4, symSize: 0x0 }
  - { offset: 0x5B64AD, size: 0x8, addend: 0x0, symName: __ZL30_use_syllable_machine_indicies, symObjAddr: 0x4603, symBinAddr: 0xEDBD3, symSize: 0x0 }
  - { offset: 0x5B64D4, size: 0x8, addend: 0x0, symName: __ZL35_use_syllable_machine_index_offsets, symObjAddr: 0x5766, symBinAddr: 0xEED36, symSize: 0x0 }
  - { offset: 0x5B64FE, size: 0x8, addend: 0x0, symName: __ZL31_use_syllable_machine_key_spans, symObjAddr: 0x5864, symBinAddr: 0xEEE34, symSize: 0x0 }
  - { offset: 0x5B6519, size: 0x8, addend: 0x0, symName: __ZL33_use_syllable_machine_trans_targs, symObjAddr: 0x58E3, symBinAddr: 0xEEEB3, symSize: 0x0 }
  - { offset: 0x5B6540, size: 0x8, addend: 0x0, symName: __ZL35_use_syllable_machine_trans_actions, symObjAddr: 0x5976, symBinAddr: 0xEEF46, symSize: 0x0 }
  - { offset: 0x5B655B, size: 0x8, addend: 0x0, symName: __ZL38_use_syllable_machine_to_state_actions, symObjAddr: 0x5B87, symBinAddr: 0xEF157, symSize: 0x0 }
  - { offset: 0x5B6576, size: 0x8, addend: 0x0, symName: __ZL31_use_syllable_machine_eof_trans, symObjAddr: 0x5A0A, symBinAddr: 0xEEFDA, symSize: 0x0 }
  - { offset: 0x5B658F, size: 0x8, addend: 0x0, symName: __ZL9hb_use_u8, symObjAddr: 0x5C06, symBinAddr: 0xEF1D6, symSize: 0x0 }
  - { offset: 0x5B65BD, size: 0x8, addend: 0x0, symName: __ZL10hb_use_u16, symObjAddr: 0x6918, symBinAddr: 0xEFEE8, symSize: 0x0 }
  - { offset: 0x5B8B25, size: 0x8, addend: 0x0, symName: __ZL20collect_features_useP21hb_ot_shape_planner_t, symObjAddr: 0x0, symBinAddr: 0xCBF30, symSize: 0x2E8 }
  - { offset: 0x5B914F, size: 0x8, addend: 0x0, symName: __ZL15data_create_usePK18hb_ot_shape_plan_t, symObjAddr: 0x2E8, symBinAddr: 0xCC218, symSize: 0x208 }
  - { offset: 0x5B9380, size: 0x8, addend: 0x0, symName: __ZL16data_destroy_usePv, symObjAddr: 0x4F0, symBinAddr: 0xCC420, symSize: 0x2C }
  - { offset: 0x5B93E7, size: 0x8, addend: 0x0, symName: __ZL19preprocess_text_usePK18hb_ot_shape_plan_tP11hb_buffer_tP9hb_font_t, symObjAddr: 0x51C, symBinAddr: 0xCC44C, symSize: 0x4 }
  - { offset: 0x5B9432, size: 0x8, addend: 0x0, symName: __ZL19preprocess_text_usePK18hb_ot_shape_plan_tP11hb_buffer_tP9hb_font_t, symObjAddr: 0x51C, symBinAddr: 0xCC44C, symSize: 0x4 }
  - { offset: 0x5B94CB, size: 0x8, addend: 0x0, symName: __ZL11compose_usePK31hb_ot_shape_normalize_context_tjjPj, symObjAddr: 0x520, symBinAddr: 0xCC450, symSize: 0xB8 }
  - { offset: 0x5B9691, size: 0x8, addend: 0x0, symName: __ZL15setup_masks_usePK18hb_ot_shape_plan_tP11hb_buffer_tP9hb_font_t, symObjAddr: 0x5D8, symBinAddr: 0xCC508, symSize: 0xEC }
  - { offset: 0x5BAFB1, size: 0x8, addend: 0x0, symName: __ZL19setup_syllables_usePK18hb_ot_shape_plan_tP9hb_font_tP11hb_buffer_t, symObjAddr: 0x6C4, symBinAddr: 0xCC5F4, symSize: 0x3484 }
  - { offset: 0x5C5B67, size: 0x8, addend: 0x0, symName: '__ZN15machine_index_tI13hb_zip_iter_tI14hb_iota_iter_tIjjE16hb_filter_iter_tIS3_IS0_IS2_10hb_array_tI15hb_glyph_info_tEEZL18find_syllables_useP11hb_buffer_tEUlRKS5_E_RK4$_30LPv0EEZL18find_syllables_useS9_EUl9hb_pair_tIjSB_EE_RK4$_17LSG_0EEEEaSERKSQ_', symObjAddr: 0x4140, symBinAddr: 0xD0070, symSize: 0x218 }
  - { offset: 0x5C6633, size: 0x8, addend: 0x0, symName: __ZL28_hb_clear_substitution_flagsPK18hb_ot_shape_plan_tP9hb_font_tP11hb_buffer_t, symObjAddr: 0x3B48, symBinAddr: 0xCFA78, symSize: 0x98 }
  - { offset: 0x5C66CB, size: 0x8, addend: 0x0, symName: __ZL15record_rphf_usePK18hb_ot_shape_plan_tP9hb_font_tP11hb_buffer_t, symObjAddr: 0x3BE0, symBinAddr: 0xCFB10, symSize: 0xFC }
  - { offset: 0x5C6805, size: 0x8, addend: 0x0, symName: __ZL15record_pref_usePK18hb_ot_shape_plan_tP9hb_font_tP11hb_buffer_t, symObjAddr: 0x3CDC, symBinAddr: 0xCFC0C, symSize: 0xE4 }
  - { offset: 0x5C6ACC, size: 0x8, addend: 0x0, symName: __ZL11reorder_usePK18hb_ot_shape_plan_tP9hb_font_tP11hb_buffer_t, symObjAddr: 0x3DC0, symBinAddr: 0xCFCF0, symSize: 0x380 }
  - { offset: 0x5C8CD9, size: 0x8, addend: 0x0, symName: __Z37_hb_preprocess_text_vowel_constraintsPK18hb_ot_shape_plan_tP11hb_buffer_tP9hb_font_t, symObjAddr: 0x0, symBinAddr: 0xD0288, symSize: 0x1ED4 }
  - { offset: 0x5C9AD3, size: 0x8, addend: 0x0, symName: __Z37_hb_preprocess_text_vowel_constraintsPK18hb_ot_shape_plan_tP11hb_buffer_tP9hb_font_t, symObjAddr: 0x0, symBinAddr: 0xD0288, symSize: 0x1ED4 }
  - { offset: 0x5CA901, size: 0x8, addend: 0x0, symName: __ZL26_output_with_dotted_circleP11hb_buffer_t, symObjAddr: 0x1F6C, symBinAddr: 0xD215C, symSize: 0x130 }
  - { offset: 0x5CC9A5, size: 0x8, addend: 0x0, symName: _hb_ot_tags_from_script, symObjAddr: 0x0, symBinAddr: 0xD228C, symSize: 0x9C }
  - { offset: 0x5CC9C6, size: 0x8, addend: 0x0, symName: __ZL24hb_ot_tags_from_languagePKcS0_PjS1_, symObjAddr: 0xF1C, symBinAddr: 0xD31A8, symSize: 0x1CCC }
  - { offset: 0x5CC9EE, size: 0x8, addend: 0x0, symName: __ZZL24hb_ot_tags_from_languagePKcS0_PjS1_E12last_tag_idx.0, symObjAddr: 0x1D72C, symBinAddr: 0x1099D0, symSize: 0x0 }
  - { offset: 0x5CEC97, size: 0x8, addend: 0x0, symName: __ZL13ot_languages2, symObjAddr: 0x39A4, symBinAddr: 0xF0614, symSize: 0x0 }
  - { offset: 0x5CED28, size: 0x8, addend: 0x0, symName: __ZL13ot_languages3, symObjAddr: 0x4004, symBinAddr: 0xF0C74, symSize: 0x0 }
  - { offset: 0x5CED6C, size: 0x8, addend: 0x0, symName: _hb_ot_tags_from_script, symObjAddr: 0x0, symBinAddr: 0xD228C, symSize: 0x9C }
  - { offset: 0x5CEE02, size: 0x8, addend: 0x0, symName: _hb_ot_tags_from_script_and_language, symObjAddr: 0x9C, symBinAddr: 0xD2328, symSize: 0xC50 }
  - { offset: 0x5CF4BF, size: 0x8, addend: 0x0, symName: _hb_ot_tag_to_script, symObjAddr: 0xCEC, symBinAddr: 0xD2F78, symSize: 0x80 }
  - { offset: 0x5CF515, size: 0x8, addend: 0x0, symName: __ZL23hb_ot_new_tag_to_scriptj, symObjAddr: 0xD6C, symBinAddr: 0xD2FF8, symSize: 0x158 }
  - { offset: 0x5CF544, size: 0x8, addend: 0x0, symName: _hb_ot_tag_from_language, symObjAddr: 0xEC4, symBinAddr: 0xD3150, symSize: 0x58 }
  - { offset: 0x5D0C4E, size: 0x8, addend: 0x0, symName: __ZL14subtag_matchesPKcS0_S0_j, symObjAddr: 0x38EC, symBinAddr: 0xD5B78, symSize: 0x84 }
  - { offset: 0x5D0D6E, size: 0x8, addend: 0x0, symName: _hb_ot_tag_to_language, symObjAddr: 0x2BE8, symBinAddr: 0xD4E74, symSize: 0xAB4 }
  - { offset: 0x5D0FC0, size: 0x8, addend: 0x0, symName: _hb_ot_tags_to_script_and_language, symObjAddr: 0x369C, symBinAddr: 0xD5928, symSize: 0x250 }
  - { offset: 0x5D6142, size: 0x8, addend: 0x0, symName: _hb_ot_var_has_data, symObjAddr: 0x0, symBinAddr: 0xD5BFC, symSize: 0xBC }
  - { offset: 0x5D65F2, size: 0x8, addend: 0x0, symName: _hb_ot_var_get_axis_count, symObjAddr: 0xBC, symBinAddr: 0xD5CB8, symSize: 0xB4 }
  - { offset: 0x5D68FD, size: 0x8, addend: 0x0, symName: _hb_ot_var_get_axes, symObjAddr: 0x170, symBinAddr: 0xD5D6C, symSize: 0xD4 }
  - { offset: 0x5D6BF4, size: 0x8, addend: 0x0, symName: __ZNK2OT4fvar19get_axes_deprecatedEjPjP16hb_ot_var_axis_t, symObjAddr: 0x244, symBinAddr: 0xD5E40, symSize: 0xE0 }
  - { offset: 0x5D710C, size: 0x8, addend: 0x0, symName: _hb_ot_var_find_axis, symObjAddr: 0x324, symBinAddr: 0xD5F20, symSize: 0xD8 }
  - { offset: 0x5D7416, size: 0x8, addend: 0x0, symName: __ZNK2OT4fvar20find_axis_deprecatedEjPjP16hb_ot_var_axis_t, symObjAddr: 0x3FC, symBinAddr: 0xD5FF8, symSize: 0x11C }
  - { offset: 0x5D79F0, size: 0x8, addend: 0x0, symName: _hb_ot_var_get_axis_infos, symObjAddr: 0x518, symBinAddr: 0xD6114, symSize: 0xD4 }
  - { offset: 0x5D7CE7, size: 0x8, addend: 0x0, symName: __ZNK2OT4fvar14get_axis_infosEjPjP21hb_ot_var_axis_info_t, symObjAddr: 0x5EC, symBinAddr: 0xD61E8, symSize: 0xF8 }
  - { offset: 0x5D8082, size: 0x8, addend: 0x0, symName: _hb_ot_var_find_axis_info, symObjAddr: 0x6E4, symBinAddr: 0xD62E0, symSize: 0xC8 }
  - { offset: 0x5D8376, size: 0x8, addend: 0x0, symName: __ZNK2OT4fvar14find_axis_infoEjP21hb_ot_var_axis_info_t, symObjAddr: 0x7AC, symBinAddr: 0xD63A8, symSize: 0x118 }
  - { offset: 0x5D83E0, size: 0x8, addend: 0x0, symName: __ZNK2OT4fvar14find_axis_infoEjP21hb_ot_var_axis_info_t, symObjAddr: 0x7AC, symBinAddr: 0xD63A8, symSize: 0x118 }
  - { offset: 0x5D83FE, size: 0x8, addend: 0x0, symName: __ZNK2OT4fvar14find_axis_infoEjP21hb_ot_var_axis_info_t, symObjAddr: 0x7AC, symBinAddr: 0xD63A8, symSize: 0x118 }
  - { offset: 0x5D841E, size: 0x8, addend: 0x0, symName: __ZNK2OT4fvar14find_axis_infoEjP21hb_ot_var_axis_info_t, symObjAddr: 0x7AC, symBinAddr: 0xD63A8, symSize: 0x118 }
  - { offset: 0x5D8446, size: 0x8, addend: 0x0, symName: __ZNK2OT4fvar14find_axis_infoEjP21hb_ot_var_axis_info_t, symObjAddr: 0x7AC, symBinAddr: 0xD63A8, symSize: 0x118 }
  - { offset: 0x5D8466, size: 0x8, addend: 0x0, symName: __ZNK2OT4fvar14find_axis_infoEjP21hb_ot_var_axis_info_t, symObjAddr: 0x7AC, symBinAddr: 0xD63A8, symSize: 0x118 }
  - { offset: 0x5D8486, size: 0x8, addend: 0x0, symName: __ZNK2OT4fvar14find_axis_infoEjP21hb_ot_var_axis_info_t, symObjAddr: 0x7AC, symBinAddr: 0xD63A8, symSize: 0x118 }
  - { offset: 0x5D8810, size: 0x8, addend: 0x0, symName: _hb_ot_var_get_named_instance_count, symObjAddr: 0x8C4, symBinAddr: 0xD64C0, symSize: 0xB4 }
  - { offset: 0x5D8BD7, size: 0x8, addend: 0x0, symName: _hb_ot_var_named_instance_get_subfamily_name_id, symObjAddr: 0x978, symBinAddr: 0xD6574, symSize: 0x11C }
  - { offset: 0x5D9113, size: 0x8, addend: 0x0, symName: _hb_ot_var_named_instance_get_postscript_name_id, symObjAddr: 0xA94, symBinAddr: 0xD6690, symSize: 0x13C }
  - { offset: 0x5D9633, size: 0x8, addend: 0x0, symName: _hb_ot_var_named_instance_get_design_coords, symObjAddr: 0xBD0, symBinAddr: 0xD67CC, symSize: 0x3DC }
  - { offset: 0x5D9CC7, size: 0x8, addend: 0x0, symName: _hb_ot_var_normalize_variations, symObjAddr: 0xFAC, symBinAddr: 0xD6BA8, symSize: 0x1C8 }
  - { offset: 0x5DA305, size: 0x8, addend: 0x0, symName: __ZNK2OT4fvar20normalize_axis_valueEjf, symObjAddr: 0x1174, symBinAddr: 0xD6D70, symSize: 0xCC }
  - { offset: 0x5DA34F, size: 0x8, addend: 0x0, symName: __ZNK2OT4fvar20normalize_axis_valueEjf, symObjAddr: 0x1174, symBinAddr: 0xD6D70, symSize: 0xCC }
  - { offset: 0x5DA36D, size: 0x8, addend: 0x0, symName: __ZNK2OT4fvar20normalize_axis_valueEjf, symObjAddr: 0x1174, symBinAddr: 0xD6D70, symSize: 0xCC }
  - { offset: 0x5DA38D, size: 0x8, addend: 0x0, symName: __ZNK2OT4fvar20normalize_axis_valueEjf, symObjAddr: 0x1174, symBinAddr: 0xD6D70, symSize: 0xCC }
  - { offset: 0x5DA3B5, size: 0x8, addend: 0x0, symName: __ZNK2OT4fvar20normalize_axis_valueEjf, symObjAddr: 0x1174, symBinAddr: 0xD6D70, symSize: 0xCC }
  - { offset: 0x5DA3D5, size: 0x8, addend: 0x0, symName: __ZNK2OT4fvar20normalize_axis_valueEjf, symObjAddr: 0x1174, symBinAddr: 0xD6D70, symSize: 0xCC }
  - { offset: 0x5DA3F5, size: 0x8, addend: 0x0, symName: __ZNK2OT4fvar20normalize_axis_valueEjf, symObjAddr: 0x1174, symBinAddr: 0xD6D70, symSize: 0xCC }
  - { offset: 0x5DA72A, size: 0x8, addend: 0x0, symName: __ZNK2OT4avar10map_coordsEPij, symObjAddr: 0x1240, symBinAddr: 0xD6E3C, symSize: 0x3CC }
  - { offset: 0x5DBDF7, size: 0x8, addend: 0x0, symName: _hb_ot_var_normalize_coords, symObjAddr: 0x160C, symBinAddr: 0xD7208, symSize: 0x188 }
  - { offset: 0x5E1009, size: 0x8, addend: 0x0, symName: __ZNK12hb_outline_t6replayEP15hb_draw_funcs_tPv, symObjAddr: 0x0, symBinAddr: 0xD7390, symSize: 0x480 }
  - { offset: 0x5E1024, size: 0x8, addend: 0x0, symName: __ZL34static_outline_recording_pen_funcs, symObjAddr: 0x21AB0, symBinAddr: 0x1099D8, symSize: 0x0 }
  - { offset: 0x5E3B66, size: 0x8, addend: 0x0, symName: __ZNK12hb_outline_t6replayEP15hb_draw_funcs_tPv, symObjAddr: 0x0, symBinAddr: 0xD7390, symSize: 0x480 }
  - { offset: 0x5E4426, size: 0x8, addend: 0x0, symName: __ZNK12hb_outline_t12control_areaEv, symObjAddr: 0x480, symBinAddr: 0xD7810, symSize: 0xCC }
  - { offset: 0x5E4459, size: 0x8, addend: 0x0, symName: __ZNK12hb_outline_t12control_areaEv, symObjAddr: 0x480, symBinAddr: 0xD7810, symSize: 0xCC }
  - { offset: 0x5E4489, size: 0x8, addend: 0x0, symName: __ZNK12hb_outline_t12control_areaEv, symObjAddr: 0x480, symBinAddr: 0xD7810, symSize: 0xCC }
  - { offset: 0x5E478C, size: 0x8, addend: 0x0, symName: __ZN12hb_outline_t8emboldenEffff, symObjAddr: 0x54C, symBinAddr: 0xD78DC, symSize: 0x50C }
  - { offset: 0x5E4D64, size: 0x8, addend: 0x0, symName: __Z34hb_outline_recording_pen_get_funcsv, symObjAddr: 0xA58, symBinAddr: 0xD7DE8, symSize: 0xC }
  - { offset: 0x5E4D91, size: 0x8, addend: 0x0, symName: __ZNK16hb_lazy_loader_tI15hb_draw_funcs_t44hb_outline_recording_pen_funcs_lazy_loader_tvLj0ES0_E11get_unconstEv, symObjAddr: 0xA64, symBinAddr: 0xD7DF4, symSize: 0x12C }
  - { offset: 0x5E5368, size: 0x8, addend: 0x0, symName: __ZL32hb_outline_recording_pen_move_toP15hb_draw_funcs_tPvP15hb_draw_state_tffS1_, symObjAddr: 0xB90, symBinAddr: 0xD7F20, symSize: 0xF0 }
  - { offset: 0x5E5503, size: 0x8, addend: 0x0, symName: __ZL32hb_outline_recording_pen_line_toP15hb_draw_funcs_tPvP15hb_draw_state_tffS1_, symObjAddr: 0xC80, symBinAddr: 0xD8010, symSize: 0xF4 }
  - { offset: 0x5E5680, size: 0x8, addend: 0x0, symName: __ZL37hb_outline_recording_pen_quadratic_toP15hb_draw_funcs_tPvP15hb_draw_state_tffffS1_, symObjAddr: 0xD74, symBinAddr: 0xD8104, symSize: 0x1E0 }
  - { offset: 0x5E591C, size: 0x8, addend: 0x0, symName: __ZL33hb_outline_recording_pen_cubic_toP15hb_draw_funcs_tPvP15hb_draw_state_tffffffS1_, symObjAddr: 0xF54, symBinAddr: 0xD82E4, symSize: 0x2A8 }
  - { offset: 0x5E5DF2, size: 0x8, addend: 0x0, symName: __ZL35hb_outline_recording_pen_close_pathP15hb_draw_funcs_tPvP15hb_draw_state_tS1_, symObjAddr: 0x11FC, symBinAddr: 0xD858C, symSize: 0xC0 }
  - { offset: 0x5E7DAE, size: 0x8, addend: 0x0, symName: __Z26hb_paint_extents_get_funcsv, symObjAddr: 0x0, symBinAddr: 0xD864C, symSize: 0x80 }
  - { offset: 0x5E7DC9, size: 0x8, addend: 0x0, symName: __ZL26static_paint_extents_funcs, symObjAddr: 0x23820, symBinAddr: 0x1099E0, symSize: 0x0 }
  - { offset: 0x5E82AA, size: 0x8, addend: 0x0, symName: __ZL25static_draw_extents_funcs, symObjAddr: 0x23828, symBinAddr: 0x1099E8, symSize: 0x0 }
  - { offset: 0x5EA172, size: 0x8, addend: 0x0, symName: __Z26hb_paint_extents_get_funcsv, symObjAddr: 0x0, symBinAddr: 0xD864C, symSize: 0x80 }
  - { offset: 0x5EA34F, size: 0x8, addend: 0x0, symName: __ZN36hb_paint_extents_funcs_lazy_loader_t6createEv, symObjAddr: 0x80, symBinAddr: 0xD86CC, symSize: 0x148 }
  - { offset: 0x5EA773, size: 0x8, addend: 0x0, symName: __ZL31hb_paint_extents_push_transformP16hb_paint_funcs_tPvffffffS1_, symObjAddr: 0x1C8, symBinAddr: 0xD8814, symSize: 0x30 }
  - { offset: 0x5EA8ED, size: 0x8, addend: 0x0, symName: __ZN26hb_paint_extents_context_t14push_transformERK14hb_transform_t, symObjAddr: 0x938, symBinAddr: 0xD8F84, symSize: 0x1B8 }
  - { offset: 0x5EAB0B, size: 0x8, addend: 0x0, symName: __ZL30hb_paint_extents_pop_transformP16hb_paint_funcs_tPvS1_, symObjAddr: 0x1F8, symBinAddr: 0xD8844, symSize: 0x14 }
  - { offset: 0x5EAB5D, size: 0x8, addend: 0x0, symName: __ZL30hb_paint_extents_pop_transformP16hb_paint_funcs_tPvS1_, symObjAddr: 0x1F8, symBinAddr: 0xD8844, symSize: 0x14 }
  - { offset: 0x5EAB7A, size: 0x8, addend: 0x0, symName: __ZL30hb_paint_extents_pop_transformP16hb_paint_funcs_tPvS1_, symObjAddr: 0x1F8, symBinAddr: 0xD8844, symSize: 0x14 }
  - { offset: 0x5EABDB, size: 0x8, addend: 0x0, symName: __ZL32hb_paint_extents_push_clip_glyphP16hb_paint_funcs_tPvjP9hb_font_tS1_, symObjAddr: 0x20C, symBinAddr: 0xD8858, symSize: 0x70 }
  - { offset: 0x5EACFF, size: 0x8, addend: 0x0, symName: __ZNK16hb_lazy_loader_tI15hb_draw_funcs_t35hb_draw_extents_funcs_lazy_loader_tvLj0ES0_E11get_unconstEv, symObjAddr: 0xDF0, symBinAddr: 0xD943C, symSize: 0x108 }
  - { offset: 0x5EAF97, size: 0x8, addend: 0x0, symName: __ZN26hb_paint_extents_context_t9push_clipE12hb_extents_t, symObjAddr: 0xAF0, symBinAddr: 0xD913C, symSize: 0x300 }
  - { offset: 0x5EB328, size: 0x8, addend: 0x0, symName: __ZL36hb_paint_extents_push_clip_rectangleP16hb_paint_funcs_tPvffffS1_, symObjAddr: 0x27C, symBinAddr: 0xD88C8, symSize: 0x8 }
  - { offset: 0x5EB43E, size: 0x8, addend: 0x0, symName: __ZL25hb_paint_extents_pop_clipP16hb_paint_funcs_tPvS1_, symObjAddr: 0x284, symBinAddr: 0xD88D0, symSize: 0x14 }
  - { offset: 0x5EB490, size: 0x8, addend: 0x0, symName: __ZL25hb_paint_extents_pop_clipP16hb_paint_funcs_tPvS1_, symObjAddr: 0x284, symBinAddr: 0xD88D0, symSize: 0x14 }
  - { offset: 0x5EB4AD, size: 0x8, addend: 0x0, symName: __ZL25hb_paint_extents_pop_clipP16hb_paint_funcs_tPvS1_, symObjAddr: 0x284, symBinAddr: 0xD88D0, symSize: 0x14 }
  - { offset: 0x5EB623, size: 0x8, addend: 0x0, symName: __ZL27hb_paint_extents_push_groupP16hb_paint_funcs_tPvS1_, symObjAddr: 0x298, symBinAddr: 0xD88E4, symSize: 0xE8 }
  - { offset: 0x5EB79A, size: 0x8, addend: 0x0, symName: __ZL26hb_paint_extents_pop_groupP16hb_paint_funcs_tPv25hb_paint_composite_mode_tS1_, symObjAddr: 0x380, symBinAddr: 0xD89CC, symSize: 0xC }
  - { offset: 0x5EB819, size: 0x8, addend: 0x0, symName: __ZN26hb_paint_extents_context_t9pop_groupE25hb_paint_composite_mode_t, symObjAddr: 0x10EC, symBinAddr: 0xD9738, symSize: 0x170 }
  - { offset: 0x5EBB31, size: 0x8, addend: 0x0, symName: __ZL28hb_paint_extents_paint_colorP16hb_paint_funcs_tPvijS1_, symObjAddr: 0x38C, symBinAddr: 0xD89D8, symSize: 0x110 }
  - { offset: 0x5EBDAA, size: 0x8, addend: 0x0, symName: __ZL28hb_paint_extents_paint_imageP16hb_paint_funcs_tPvP9hb_blob_tjjjfP18hb_glyph_extents_tS1_, symObjAddr: 0x49C, symBinAddr: 0xD8AE8, symSize: 0x16C }
  - { offset: 0x5EC0B6, size: 0x8, addend: 0x0, symName: __ZL38hb_paint_extents_paint_linear_gradientP16hb_paint_funcs_tPvP15hb_color_line_tffffffS1_, symObjAddr: 0x608, symBinAddr: 0xD8C54, symSize: 0x110 }
  - { offset: 0x5EC36D, size: 0x8, addend: 0x0, symName: __ZL38hb_paint_extents_paint_radial_gradientP16hb_paint_funcs_tPvP15hb_color_line_tffffffS1_, symObjAddr: 0x718, symBinAddr: 0xD8D64, symSize: 0x110 }
  - { offset: 0x5EC62F, size: 0x8, addend: 0x0, symName: __ZL37hb_paint_extents_paint_sweep_gradientP16hb_paint_funcs_tPvP15hb_color_line_tffffS1_, symObjAddr: 0x828, symBinAddr: 0xD8E74, symSize: 0x110 }
  - { offset: 0x5ECF07, size: 0x8, addend: 0x0, symName: __ZL23hb_draw_extents_move_toP15hb_draw_funcs_tPvP15hb_draw_state_tffS1_, symObjAddr: 0xEF8, symBinAddr: 0xD9544, symSize: 0x50 }
  - { offset: 0x5ECFAE, size: 0x8, addend: 0x0, symName: __ZL23hb_draw_extents_move_toP15hb_draw_funcs_tPvP15hb_draw_state_tffS1_, symObjAddr: 0xEF8, symBinAddr: 0xD9544, symSize: 0x50 }
  - { offset: 0x5ECFF4, size: 0x8, addend: 0x0, symName: __ZL23hb_draw_extents_line_toP15hb_draw_funcs_tPvP15hb_draw_state_tffS1_, symObjAddr: 0xF48, symBinAddr: 0xD9594, symSize: 0x50 }
  - { offset: 0x5ED09B, size: 0x8, addend: 0x0, symName: __ZL23hb_draw_extents_line_toP15hb_draw_funcs_tPvP15hb_draw_state_tffS1_, symObjAddr: 0xF48, symBinAddr: 0xD9594, symSize: 0x50 }
  - { offset: 0x5ED0E1, size: 0x8, addend: 0x0, symName: __ZL28hb_draw_extents_quadratic_toP15hb_draw_funcs_tPvP15hb_draw_state_tffffS1_, symObjAddr: 0xF98, symBinAddr: 0xD95E4, symSize: 0x8C }
  - { offset: 0x5ED17D, size: 0x8, addend: 0x0, symName: __ZL28hb_draw_extents_quadratic_toP15hb_draw_funcs_tPvP15hb_draw_state_tffffS1_, symObjAddr: 0xF98, symBinAddr: 0xD95E4, symSize: 0x8C }
  - { offset: 0x5ED1AD, size: 0x8, addend: 0x0, symName: __ZL28hb_draw_extents_quadratic_toP15hb_draw_funcs_tPvP15hb_draw_state_tffffS1_, symObjAddr: 0xF98, symBinAddr: 0xD95E4, symSize: 0x8C }
  - { offset: 0x5ED235, size: 0x8, addend: 0x0, symName: __ZL24hb_draw_extents_cubic_toP15hb_draw_funcs_tPvP15hb_draw_state_tffffffS1_, symObjAddr: 0x1024, symBinAddr: 0xD9670, symSize: 0xC8 }
  - { offset: 0x5ED2F1, size: 0x8, addend: 0x0, symName: __ZL24hb_draw_extents_cubic_toP15hb_draw_funcs_tPvP15hb_draw_state_tffffffS1_, symObjAddr: 0x1024, symBinAddr: 0xD9670, symSize: 0xC8 }
  - { offset: 0x5ED321, size: 0x8, addend: 0x0, symName: __ZL24hb_draw_extents_cubic_toP15hb_draw_funcs_tPvP15hb_draw_state_tffffffS1_, symObjAddr: 0x1024, symBinAddr: 0xD9670, symSize: 0xC8 }
  - { offset: 0x5EF253, size: 0x8, addend: 0x0, symName: _hb_paint_funcs_set_push_transform_func, symObjAddr: 0x0, symBinAddr: 0xD98A8, symSize: 0x13C }
  - { offset: 0x5EF26D, size: 0x8, addend: 0x0, symName: __hb_Null_hb_paint_funcs_t, symObjAddr: 0x1C48, symBinAddr: 0x108A10, symSize: 0x0 }
  - { offset: 0x5F0171, size: 0x8, addend: 0x0, symName: _hb_paint_funcs_set_push_transform_func, symObjAddr: 0x0, symBinAddr: 0xD98A8, symSize: 0x13C }
  - { offset: 0x5F02E8, size: 0x8, addend: 0x0, symName: __ZL27hb_paint_push_transform_nilP16hb_paint_funcs_tPvffffffS1_, symObjAddr: 0x13C, symBinAddr: 0xD99E4, symSize: 0x4 }
  - { offset: 0x5F036F, size: 0x8, addend: 0x0, symName: _hb_paint_funcs_set_pop_transform_func, symObjAddr: 0x140, symBinAddr: 0xD99E8, symSize: 0x13C }
  - { offset: 0x5F04C8, size: 0x8, addend: 0x0, symName: __ZL26hb_paint_pop_transform_nilP16hb_paint_funcs_tPvS1_, symObjAddr: 0x27C, symBinAddr: 0xD9B24, symSize: 0x4 }
  - { offset: 0x5F0507, size: 0x8, addend: 0x0, symName: _hb_paint_funcs_set_color_glyph_func, symObjAddr: 0x280, symBinAddr: 0xD9B28, symSize: 0x13C }
  - { offset: 0x5F0660, size: 0x8, addend: 0x0, symName: __ZL24hb_paint_color_glyph_nilP16hb_paint_funcs_tPvjP9hb_font_tS1_, symObjAddr: 0x3BC, symBinAddr: 0xD9C64, symSize: 0x8 }
  - { offset: 0x5F06BB, size: 0x8, addend: 0x0, symName: _hb_paint_funcs_set_push_clip_glyph_func, symObjAddr: 0x3C4, symBinAddr: 0xD9C6C, symSize: 0x13C }
  - { offset: 0x5F0814, size: 0x8, addend: 0x0, symName: __ZL28hb_paint_push_clip_glyph_nilP16hb_paint_funcs_tPvjP9hb_font_tS1_, symObjAddr: 0x500, symBinAddr: 0xD9DA8, symSize: 0x4 }
  - { offset: 0x5F086B, size: 0x8, addend: 0x0, symName: _hb_paint_funcs_set_push_clip_rectangle_func, symObjAddr: 0x504, symBinAddr: 0xD9DAC, symSize: 0x13C }
  - { offset: 0x5F09C4, size: 0x8, addend: 0x0, symName: __ZL32hb_paint_push_clip_rectangle_nilP16hb_paint_funcs_tPvffffS1_, symObjAddr: 0x640, symBinAddr: 0xD9EE8, symSize: 0x4 }
  - { offset: 0x5F0A33, size: 0x8, addend: 0x0, symName: _hb_paint_funcs_set_pop_clip_func, symObjAddr: 0x644, symBinAddr: 0xD9EEC, symSize: 0x13C }
  - { offset: 0x5F0B8C, size: 0x8, addend: 0x0, symName: __ZL21hb_paint_pop_clip_nilP16hb_paint_funcs_tPvS1_, symObjAddr: 0x780, symBinAddr: 0xDA028, symSize: 0x4 }
  - { offset: 0x5F0BCB, size: 0x8, addend: 0x0, symName: _hb_paint_funcs_set_color_func, symObjAddr: 0x784, symBinAddr: 0xDA02C, symSize: 0x13C }
  - { offset: 0x5F0D24, size: 0x8, addend: 0x0, symName: __ZL18hb_paint_color_nilP16hb_paint_funcs_tPvijS1_, symObjAddr: 0x8C0, symBinAddr: 0xDA168, symSize: 0x4 }
  - { offset: 0x5F0D7B, size: 0x8, addend: 0x0, symName: _hb_paint_funcs_set_image_func, symObjAddr: 0x8C4, symBinAddr: 0xDA16C, symSize: 0x13C }
  - { offset: 0x5F0ED4, size: 0x8, addend: 0x0, symName: __ZL18hb_paint_image_nilP16hb_paint_funcs_tPvP9hb_blob_tjjjfP18hb_glyph_extents_tS1_, symObjAddr: 0xA00, symBinAddr: 0xDA2A8, symSize: 0x8 }
  - { offset: 0x5F0F5F, size: 0x8, addend: 0x0, symName: _hb_paint_funcs_set_linear_gradient_func, symObjAddr: 0xA08, symBinAddr: 0xDA2B0, symSize: 0x13C }
  - { offset: 0x5F10B8, size: 0x8, addend: 0x0, symName: __ZL28hb_paint_linear_gradient_nilP16hb_paint_funcs_tPvP15hb_color_line_tffffffS1_, symObjAddr: 0xB44, symBinAddr: 0xDA3EC, symSize: 0x4 }
  - { offset: 0x5F114B, size: 0x8, addend: 0x0, symName: _hb_paint_funcs_set_radial_gradient_func, symObjAddr: 0xB48, symBinAddr: 0xDA3F0, symSize: 0x13C }
  - { offset: 0x5F12A4, size: 0x8, addend: 0x0, symName: __ZL28hb_paint_radial_gradient_nilP16hb_paint_funcs_tPvP15hb_color_line_tffffffS1_, symObjAddr: 0xC84, symBinAddr: 0xDA52C, symSize: 0x4 }
  - { offset: 0x5F1337, size: 0x8, addend: 0x0, symName: _hb_paint_funcs_set_sweep_gradient_func, symObjAddr: 0xC88, symBinAddr: 0xDA530, symSize: 0x13C }
  - { offset: 0x5F1490, size: 0x8, addend: 0x0, symName: __ZL27hb_paint_sweep_gradient_nilP16hb_paint_funcs_tPvP15hb_color_line_tffffS1_, symObjAddr: 0xDC4, symBinAddr: 0xDA66C, symSize: 0x4 }
  - { offset: 0x5F150B, size: 0x8, addend: 0x0, symName: _hb_paint_funcs_set_push_group_func, symObjAddr: 0xDC8, symBinAddr: 0xDA670, symSize: 0x13C }
  - { offset: 0x5F1664, size: 0x8, addend: 0x0, symName: __ZL23hb_paint_push_group_nilP16hb_paint_funcs_tPvS1_, symObjAddr: 0xF04, symBinAddr: 0xDA7AC, symSize: 0x4 }
  - { offset: 0x5F16A3, size: 0x8, addend: 0x0, symName: _hb_paint_funcs_set_pop_group_func, symObjAddr: 0xF08, symBinAddr: 0xDA7B0, symSize: 0x13C }
  - { offset: 0x5F17FC, size: 0x8, addend: 0x0, symName: __ZL22hb_paint_pop_group_nilP16hb_paint_funcs_tPv25hb_paint_composite_mode_tS1_, symObjAddr: 0x1044, symBinAddr: 0xDA8EC, symSize: 0x4 }
  - { offset: 0x5F1847, size: 0x8, addend: 0x0, symName: _hb_paint_funcs_set_custom_palette_color_func, symObjAddr: 0x1048, symBinAddr: 0xDA8F0, symSize: 0x13C }
  - { offset: 0x5F19A0, size: 0x8, addend: 0x0, symName: __ZL33hb_paint_custom_palette_color_nilP16hb_paint_funcs_tPvjPjS1_, symObjAddr: 0x1184, symBinAddr: 0xDAA2C, symSize: 0x8 }
  - { offset: 0x5F1B4D, size: 0x8, addend: 0x0, symName: _hb_paint_funcs_create, symObjAddr: 0x118C, symBinAddr: 0xDAA34, symSize: 0x78 }
  - { offset: 0x5F1D55, size: 0x8, addend: 0x0, symName: _hb_paint_funcs_get_empty, symObjAddr: 0x1204, symBinAddr: 0xDAAAC, symSize: 0xC }
  - { offset: 0x5F1DE0, size: 0x8, addend: 0x0, symName: _hb_paint_funcs_reference, symObjAddr: 0x1210, symBinAddr: 0xDAAB8, symSize: 0x1C }
  - { offset: 0x5F1E0E, size: 0x8, addend: 0x0, symName: _hb_paint_funcs_reference, symObjAddr: 0x1210, symBinAddr: 0xDAAB8, symSize: 0x1C }
  - { offset: 0x5F1E2C, size: 0x8, addend: 0x0, symName: _hb_paint_funcs_reference, symObjAddr: 0x1210, symBinAddr: 0xDAAB8, symSize: 0x1C }
  - { offset: 0x5F2042, size: 0x8, addend: 0x0, symName: _hb_paint_funcs_destroy, symObjAddr: 0x122C, symBinAddr: 0xDAAD4, symSize: 0x28C }
  - { offset: 0x5F26DE, size: 0x8, addend: 0x0, symName: _hb_paint_funcs_set_user_data, symObjAddr: 0x14B8, symBinAddr: 0xDAD60, symSize: 0xE0 }
  - { offset: 0x5F2D9F, size: 0x8, addend: 0x0, symName: _hb_paint_funcs_get_user_data, symObjAddr: 0x1598, symBinAddr: 0xDAE40, symSize: 0xCC }
  - { offset: 0x5F304D, size: 0x8, addend: 0x0, symName: _hb_paint_funcs_make_immutable, symObjAddr: 0x1664, symBinAddr: 0xDAF0C, symSize: 0x10 }
  - { offset: 0x5F3077, size: 0x8, addend: 0x0, symName: _hb_paint_funcs_make_immutable, symObjAddr: 0x1664, symBinAddr: 0xDAF0C, symSize: 0x10 }
  - { offset: 0x5F3095, size: 0x8, addend: 0x0, symName: _hb_paint_funcs_make_immutable, symObjAddr: 0x1664, symBinAddr: 0xDAF0C, symSize: 0x10 }
  - { offset: 0x5F30B5, size: 0x8, addend: 0x0, symName: _hb_paint_funcs_make_immutable, symObjAddr: 0x1664, symBinAddr: 0xDAF0C, symSize: 0x10 }
  - { offset: 0x5F312E, size: 0x8, addend: 0x0, symName: _hb_paint_funcs_is_immutable, symObjAddr: 0x1674, symBinAddr: 0xDAF1C, symSize: 0x10 }
  - { offset: 0x5F315E, size: 0x8, addend: 0x0, symName: _hb_paint_funcs_is_immutable, symObjAddr: 0x1674, symBinAddr: 0xDAF1C, symSize: 0x10 }
  - { offset: 0x5F317C, size: 0x8, addend: 0x0, symName: _hb_paint_funcs_is_immutable, symObjAddr: 0x1674, symBinAddr: 0xDAF1C, symSize: 0x10 }
  - { offset: 0x5F319C, size: 0x8, addend: 0x0, symName: _hb_paint_funcs_is_immutable, symObjAddr: 0x1674, symBinAddr: 0xDAF1C, symSize: 0x10 }
  - { offset: 0x5F31BB, size: 0x8, addend: 0x0, symName: _hb_color_line_get_color_stops, symObjAddr: 0x1684, symBinAddr: 0xDAF2C, symSize: 0x18 }
  - { offset: 0x5F3242, size: 0x8, addend: 0x0, symName: _hb_color_line_get_extend, symObjAddr: 0x169C, symBinAddr: 0xDAF44, symSize: 0xC }
  - { offset: 0x5F32EB, size: 0x8, addend: 0x0, symName: _hb_paint_push_transform, symObjAddr: 0x16A8, symBinAddr: 0xDAF50, symSize: 0x1C }
  - { offset: 0x5F3384, size: 0x8, addend: 0x0, symName: _hb_paint_push_transform, symObjAddr: 0x16A8, symBinAddr: 0xDAF50, symSize: 0x1C }
  - { offset: 0x5F341D, size: 0x8, addend: 0x0, symName: _hb_paint_pop_transform, symObjAddr: 0x16C4, symBinAddr: 0xDAF6C, symSize: 0x1C }
  - { offset: 0x5F3456, size: 0x8, addend: 0x0, symName: _hb_paint_pop_transform, symObjAddr: 0x16C4, symBinAddr: 0xDAF6C, symSize: 0x1C }
  - { offset: 0x5F34D1, size: 0x8, addend: 0x0, symName: _hb_paint_color_glyph, symObjAddr: 0x16E0, symBinAddr: 0xDAF88, symSize: 0x44 }
  - { offset: 0x5F35BF, size: 0x8, addend: 0x0, symName: _hb_paint_push_clip_glyph, symObjAddr: 0x1724, symBinAddr: 0xDAFCC, symSize: 0x1C }
  - { offset: 0x5F3616, size: 0x8, addend: 0x0, symName: _hb_paint_push_clip_glyph, symObjAddr: 0x1724, symBinAddr: 0xDAFCC, symSize: 0x1C }
  - { offset: 0x5F36B9, size: 0x8, addend: 0x0, symName: _hb_paint_push_clip_rectangle, symObjAddr: 0x1740, symBinAddr: 0xDAFE8, symSize: 0x1C }
  - { offset: 0x5F3732, size: 0x8, addend: 0x0, symName: _hb_paint_push_clip_rectangle, symObjAddr: 0x1740, symBinAddr: 0xDAFE8, symSize: 0x1C }
  - { offset: 0x5F37B9, size: 0x8, addend: 0x0, symName: _hb_paint_pop_clip, symObjAddr: 0x175C, symBinAddr: 0xDB004, symSize: 0x1C }
  - { offset: 0x5F37F2, size: 0x8, addend: 0x0, symName: _hb_paint_pop_clip, symObjAddr: 0x175C, symBinAddr: 0xDB004, symSize: 0x1C }
  - { offset: 0x5F386D, size: 0x8, addend: 0x0, symName: _hb_paint_color, symObjAddr: 0x1778, symBinAddr: 0xDB020, symSize: 0x1C }
  - { offset: 0x5F38C4, size: 0x8, addend: 0x0, symName: _hb_paint_color, symObjAddr: 0x1778, symBinAddr: 0xDB020, symSize: 0x1C }
  - { offset: 0x5F397F, size: 0x8, addend: 0x0, symName: _hb_paint_image, symObjAddr: 0x1794, symBinAddr: 0xDB03C, symSize: 0x1C }
  - { offset: 0x5F3A13, size: 0x8, addend: 0x0, symName: _hb_paint_image, symObjAddr: 0x1794, symBinAddr: 0xDB03C, symSize: 0x1C }
  - { offset: 0x5F3AFB, size: 0x8, addend: 0x0, symName: _hb_paint_linear_gradient, symObjAddr: 0x17B0, symBinAddr: 0xDB058, symSize: 0x1C }
  - { offset: 0x5F3BA3, size: 0x8, addend: 0x0, symName: _hb_paint_linear_gradient, symObjAddr: 0x17B0, symBinAddr: 0xDB058, symSize: 0x1C }
  - { offset: 0x5F3C98, size: 0x8, addend: 0x0, symName: _hb_paint_radial_gradient, symObjAddr: 0x17CC, symBinAddr: 0xDB074, symSize: 0x2C }
  - { offset: 0x5F3E1F, size: 0x8, addend: 0x0, symName: _hb_paint_sweep_gradient, symObjAddr: 0x17F8, symBinAddr: 0xDB0A0, symSize: 0x1C }
  - { offset: 0x5F3EA7, size: 0x8, addend: 0x0, symName: _hb_paint_sweep_gradient, symObjAddr: 0x17F8, symBinAddr: 0xDB0A0, symSize: 0x1C }
  - { offset: 0x5F3F36, size: 0x8, addend: 0x0, symName: _hb_paint_push_group, symObjAddr: 0x1814, symBinAddr: 0xDB0BC, symSize: 0x1C }
  - { offset: 0x5F3F6F, size: 0x8, addend: 0x0, symName: _hb_paint_push_group, symObjAddr: 0x1814, symBinAddr: 0xDB0BC, symSize: 0x1C }
  - { offset: 0x5F3FDE, size: 0x8, addend: 0x0, symName: _hb_paint_pop_group, symObjAddr: 0x1830, symBinAddr: 0xDB0D8, symSize: 0x1C }
  - { offset: 0x5F4026, size: 0x8, addend: 0x0, symName: _hb_paint_pop_group, symObjAddr: 0x1830, symBinAddr: 0xDB0D8, symSize: 0x1C }
  - { offset: 0x5F40A9, size: 0x8, addend: 0x0, symName: _hb_paint_custom_palette_color, symObjAddr: 0x184C, symBinAddr: 0xDB0F4, symSize: 0x40 }
  - { offset: 0x5F9D85, size: 0x8, addend: 0x0, symName: _hb_set_create, symObjAddr: 0x0, symBinAddr: 0xDB134, symSize: 0x68 }
  - { offset: 0x5FA1C8, size: 0x8, addend: 0x0, symName: _hb_set_get_empty, symObjAddr: 0x68, symBinAddr: 0xDB19C, symSize: 0xC }
  - { offset: 0x5FA252, size: 0x8, addend: 0x0, symName: _hb_set_reference, symObjAddr: 0x74, symBinAddr: 0xDB1A8, symSize: 0x1C }
  - { offset: 0x5FA27E, size: 0x8, addend: 0x0, symName: _hb_set_reference, symObjAddr: 0x74, symBinAddr: 0xDB1A8, symSize: 0x1C }
  - { offset: 0x5FA29B, size: 0x8, addend: 0x0, symName: _hb_set_reference, symObjAddr: 0x74, symBinAddr: 0xDB1A8, symSize: 0x1C }
  - { offset: 0x5FA4E5, size: 0x8, addend: 0x0, symName: _hb_set_destroy, symObjAddr: 0x90, symBinAddr: 0xDB1C4, symSize: 0x84 }
  - { offset: 0x5FAD94, size: 0x8, addend: 0x0, symName: _hb_set_set_user_data, symObjAddr: 0x114, symBinAddr: 0xDB248, symSize: 0xE0 }
  - { offset: 0x5FB44E, size: 0x8, addend: 0x0, symName: _hb_set_get_user_data, symObjAddr: 0x1F4, symBinAddr: 0xDB328, symSize: 0xCC }
  - { offset: 0x5FB71A, size: 0x8, addend: 0x0, symName: _hb_set_allocation_successful, symObjAddr: 0x2C0, symBinAddr: 0xDB3F4, symSize: 0x8 }
  - { offset: 0x5FB748, size: 0x8, addend: 0x0, symName: _hb_set_allocation_successful, symObjAddr: 0x2C0, symBinAddr: 0xDB3F4, symSize: 0x8 }
  - { offset: 0x5FB765, size: 0x8, addend: 0x0, symName: _hb_set_allocation_successful, symObjAddr: 0x2C0, symBinAddr: 0xDB3F4, symSize: 0x8 }
  - { offset: 0x5FB784, size: 0x8, addend: 0x0, symName: _hb_set_allocation_successful, symObjAddr: 0x2C0, symBinAddr: 0xDB3F4, symSize: 0x8 }
  - { offset: 0x5FB801, size: 0x8, addend: 0x0, symName: _hb_set_copy, symObjAddr: 0x2C8, symBinAddr: 0xDB3FC, symSize: 0x9C }
  - { offset: 0x5FBFC8, size: 0x8, addend: 0x0, symName: _hb_set_clear, symObjAddr: 0x364, symBinAddr: 0xDB498, symSize: 0x40 }
  - { offset: 0x5FC1AB, size: 0x8, addend: 0x0, symName: _hb_set_is_empty, symObjAddr: 0x3A4, symBinAddr: 0xDB4D8, symSize: 0x18 }
  - { offset: 0x5FC6A3, size: 0x8, addend: 0x0, symName: _hb_set_has, symObjAddr: 0x3BC, symBinAddr: 0xDB4F0, symSize: 0xCC }
  - { offset: 0x5FC7C2, size: 0x8, addend: 0x0, symName: _hb_set_has, symObjAddr: 0x3BC, symBinAddr: 0xDB4F0, symSize: 0xCC }
  - { offset: 0x5FC9D2, size: 0x8, addend: 0x0, symName: _hb_set_add, symObjAddr: 0x488, symBinAddr: 0xDB5BC, symSize: 0x4 }
  - { offset: 0x5FCA07, size: 0x8, addend: 0x0, symName: _hb_set_add, symObjAddr: 0x488, symBinAddr: 0xDB5BC, symSize: 0x4 }
  - { offset: 0x5FCF8A, size: 0x8, addend: 0x0, symName: _hb_set_add_sorted_array, symObjAddr: 0x5C8, symBinAddr: 0xDB5C0, symSize: 0xC }
  - { offset: 0x5FCFD4, size: 0x8, addend: 0x0, symName: _hb_set_add_sorted_array, symObjAddr: 0x5C8, symBinAddr: 0xDB5C0, symSize: 0xC }
  - { offset: 0x5FD02A, size: 0x8, addend: 0x0, symName: __ZN23hb_bit_set_invertible_t16add_sorted_arrayIjEEbPKT_jj, symObjAddr: 0x221C, symBinAddr: 0xDBDE8, symSize: 0x12C }
  - { offset: 0x5FD300, size: 0x8, addend: 0x0, symName: _hb_set_add_range, symObjAddr: 0x5D4, symBinAddr: 0xDB5CC, symSize: 0x18 }
  - { offset: 0x5FDAB1, size: 0x8, addend: 0x0, symName: _hb_set_del, symObjAddr: 0x5EC, symBinAddr: 0xDB5E4, symSize: 0x4 }
  - { offset: 0x5FDAE9, size: 0x8, addend: 0x0, symName: _hb_set_del, symObjAddr: 0x5EC, symBinAddr: 0xDB5E4, symSize: 0x4 }
  - { offset: 0x5FDD9F, size: 0x8, addend: 0x0, symName: _hb_set_del_range, symObjAddr: 0x734, symBinAddr: 0xDB5E8, symSize: 0x18 }
  - { offset: 0x5FDE4F, size: 0x8, addend: 0x0, symName: _hb_set_is_equal, symObjAddr: 0x74C, symBinAddr: 0xDB600, symSize: 0x14 }
  - { offset: 0x5FDEA9, size: 0x8, addend: 0x0, symName: __ZNK14hb_sparseset_tI23hb_bit_set_invertible_tE8is_equalERKS1_, symObjAddr: 0x760, symBinAddr: 0xDB614, symSize: 0xFC }
  - { offset: 0x5FE511, size: 0x8, addend: 0x0, symName: __ZNK12hb_bit_set_t8is_equalERKS_, symObjAddr: 0x2D0C, symBinAddr: 0xDC098, symSize: 0x410 }
  - { offset: 0x5FEA12, size: 0x8, addend: 0x0, symName: _hb_set_hash, symObjAddr: 0x85C, symBinAddr: 0xDB710, symSize: 0x2C }
  - { offset: 0x5FEA8B, size: 0x8, addend: 0x0, symName: __ZNK12hb_bit_set_t4hashEv, symObjAddr: 0x3398, symBinAddr: 0xDC4A8, symSize: 0x130 }
  - { offset: 0x5FEC78, size: 0x8, addend: 0x0, symName: _hb_set_is_subset, symObjAddr: 0x888, symBinAddr: 0xDB73C, symSize: 0x14 }
  - { offset: 0x5FF723, size: 0x8, addend: 0x0, symName: _hb_set_set, symObjAddr: 0xA58, symBinAddr: 0xDB750, symSize: 0x40 }
  - { offset: 0x5FF87B, size: 0x8, addend: 0x0, symName: _hb_set_union, symObjAddr: 0xA98, symBinAddr: 0xDB790, symSize: 0xA8 }
  - { offset: 0x5FF99C, size: 0x8, addend: 0x0, symName: '__ZN23hb_bit_set_invertible_t7processI3$_8EEvRKT_RKS_', symObjAddr: 0x3C24, symBinAddr: 0xDC898, symSize: 0x348 }
  - { offset: 0x60007B, size: 0x8, addend: 0x0, symName: '__ZN23hb_bit_set_invertible_t7processI3$_9EEvRKT_RKS_', symObjAddr: 0x3964, symBinAddr: 0xDC5D8, symSize: 0x2C0 }
  - { offset: 0x600612, size: 0x8, addend: 0x0, symName: '__ZN23hb_bit_set_invertible_t7processI4$_10EEvRKT_RKS_', symObjAddr: 0x3F6C, symBinAddr: 0xDCBE0, symSize: 0x280 }
  - { offset: 0x60094F, size: 0x8, addend: 0x0, symName: _hb_set_intersect, symObjAddr: 0xB40, symBinAddr: 0xDB838, symSize: 0xA8 }
  - { offset: 0x600AAE, size: 0x8, addend: 0x0, symName: _hb_set_subtract, symObjAddr: 0xBE8, symBinAddr: 0xDB8E0, symSize: 0xA8 }
  - { offset: 0x600C83, size: 0x8, addend: 0x0, symName: _hb_set_symmetric_difference, symObjAddr: 0xC90, symBinAddr: 0xDB988, symSize: 0x58 }
  - { offset: 0x600D9E, size: 0x8, addend: 0x0, symName: _hb_set_invert, symObjAddr: 0xCE8, symBinAddr: 0xDB9E0, symSize: 0x18 }
  - { offset: 0x600DC8, size: 0x8, addend: 0x0, symName: _hb_set_invert, symObjAddr: 0xCE8, symBinAddr: 0xDB9E0, symSize: 0x18 }
  - { offset: 0x600DE6, size: 0x8, addend: 0x0, symName: _hb_set_invert, symObjAddr: 0xCE8, symBinAddr: 0xDB9E0, symSize: 0x18 }
  - { offset: 0x600E30, size: 0x8, addend: 0x0, symName: _hb_set_is_inverted, symObjAddr: 0xD00, symBinAddr: 0xDB9F8, symSize: 0x8 }
  - { offset: 0x600E60, size: 0x8, addend: 0x0, symName: _hb_set_is_inverted, symObjAddr: 0xD00, symBinAddr: 0xDB9F8, symSize: 0x8 }
  - { offset: 0x600E7E, size: 0x8, addend: 0x0, symName: _hb_set_is_inverted, symObjAddr: 0xD00, symBinAddr: 0xDB9F8, symSize: 0x8 }
  - { offset: 0x600EB2, size: 0x8, addend: 0x0, symName: _hb_set_get_population, symObjAddr: 0xD08, symBinAddr: 0xDBA00, symSize: 0x8 }
  - { offset: 0x600EE2, size: 0x8, addend: 0x0, symName: _hb_set_get_population, symObjAddr: 0xD08, symBinAddr: 0xDBA00, symSize: 0x8 }
  - { offset: 0x600FBD, size: 0x8, addend: 0x0, symName: _hb_set_get_min, symObjAddr: 0xD10, symBinAddr: 0xDBA08, symSize: 0xCC }
  - { offset: 0x6010FA, size: 0x8, addend: 0x0, symName: _hb_set_get_max, symObjAddr: 0xDDC, symBinAddr: 0xDBAD4, symSize: 0x8 }
  - { offset: 0x60112A, size: 0x8, addend: 0x0, symName: _hb_set_get_max, symObjAddr: 0xDDC, symBinAddr: 0xDBAD4, symSize: 0x8 }
  - { offset: 0x60122D, size: 0x8, addend: 0x0, symName: _hb_set_next, symObjAddr: 0xDE4, symBinAddr: 0xDBADC, symSize: 0x14 }
  - { offset: 0x601336, size: 0x8, addend: 0x0, symName: _hb_set_previous, symObjAddr: 0xF0C, symBinAddr: 0xDBAF0, symSize: 0x14 }
  - { offset: 0x601390, size: 0x8, addend: 0x0, symName: __ZNK14hb_sparseset_tI23hb_bit_set_invertible_tE8previousEPj, symObjAddr: 0xF20, symBinAddr: 0xDBB04, symSize: 0x128 }
  - { offset: 0x6016E8, size: 0x8, addend: 0x0, symName: _hb_set_next_range, symObjAddr: 0x1048, symBinAddr: 0xDBC2C, symSize: 0x14 }
  - { offset: 0x60175A, size: 0x8, addend: 0x0, symName: __ZNK14hb_sparseset_tI23hb_bit_set_invertible_tE10next_rangeEPjS2_, symObjAddr: 0x105C, symBinAddr: 0xDBC40, symSize: 0x178 }
  - { offset: 0x60194E, size: 0x8, addend: 0x0, symName: _hb_set_previous_range, symObjAddr: 0x11D4, symBinAddr: 0xDBDB8, symSize: 0x18 }
  - { offset: 0x6019EA, size: 0x8, addend: 0x0, symName: __ZNK23hb_bit_set_invertible_t14previous_rangeEPjS0_, symObjAddr: 0x4E60, symBinAddr: 0xDD054, symSize: 0x114 }
  - { offset: 0x601B65, size: 0x8, addend: 0x0, symName: _hb_set_next_many, symObjAddr: 0x11EC, symBinAddr: 0xDBDD0, symSize: 0x18 }
  - { offset: 0x601C30, size: 0x8, addend: 0x0, symName: __ZNK12hb_bit_set_t18next_many_invertedEjPjj, symObjAddr: 0x4F74, symBinAddr: 0xDD168, symSize: 0x3F0 }
  - { offset: 0x601FF7, size: 0x8, addend: 0x0, symName: __ZNK12hb_bit_set_t9next_manyEjPjj, symObjAddr: 0x5364, symBinAddr: 0xDD558, symSize: 0x398 }
  - { offset: 0x6036B4, size: 0x8, addend: 0x0, symName: __ZN12hb_bit_set_t16del_sorted_arrayIjEEbPKT_jj, symObjAddr: 0x2348, symBinAddr: 0xDBF14, symSize: 0x184 }
  - { offset: 0x604EB0, size: 0x8, addend: 0x0, symName: '__ZN12hb_bit_set_t3op_I4$_21EE16hb_vector_size_tIyLj64EERKS3_S5_', symObjAddr: 0x46F4, symBinAddr: 0xDCE60, symSize: 0x2C }
  - { offset: 0x604EE6, size: 0x8, addend: 0x0, symName: '__ZN12hb_bit_set_t3op_I4$_21EE16hb_vector_size_tIyLj64EERKS3_S5_', symObjAddr: 0x46F4, symBinAddr: 0xDCE60, symSize: 0x2C }
  - { offset: 0x605090, size: 0x8, addend: 0x0, symName: '__ZN12hb_bit_set_t3op_I4$_12EE16hb_vector_size_tIyLj64EERKS3_S5_', symObjAddr: 0x4720, symBinAddr: 0xDCE8C, symSize: 0x2C }
  - { offset: 0x6050C6, size: 0x8, addend: 0x0, symName: '__ZN12hb_bit_set_t3op_I4$_12EE16hb_vector_size_tIyLj64EERKS3_S5_', symObjAddr: 0x4720, symBinAddr: 0xDCE8C, symSize: 0x2C }
  - { offset: 0x6050EC, size: 0x8, addend: 0x0, symName: '__ZN12hb_bit_set_t3op_I4$_12EE16hb_vector_size_tIyLj64EERKS3_S5_', symObjAddr: 0x4720, symBinAddr: 0xDCE8C, symSize: 0x2C }
  - { offset: 0x605112, size: 0x8, addend: 0x0, symName: '__ZN12hb_bit_set_t3op_I4$_12EE16hb_vector_size_tIyLj64EERKS3_S5_', symObjAddr: 0x4720, symBinAddr: 0xDCE8C, symSize: 0x2C }
  - { offset: 0x60513B, size: 0x8, addend: 0x0, symName: '__ZN12hb_bit_set_t3op_I4$_12EE16hb_vector_size_tIyLj64EERKS3_S5_', symObjAddr: 0x4720, symBinAddr: 0xDCE8C, symSize: 0x2C }
  - { offset: 0x60516E, size: 0x8, addend: 0x0, symName: __ZNK23hb_bit_set_invertible_t8previousEPj, symObjAddr: 0x4834, symBinAddr: 0xDCEB8, symSize: 0xE4 }
  - { offset: 0x6051F6, size: 0x8, addend: 0x0, symName: __ZNK12hb_bit_set_t14previous_rangeEPjS0_, symObjAddr: 0x4C18, symBinAddr: 0xDCF9C, symSize: 0xB8 }
  - { offset: 0x609212, size: 0x8, addend: 0x0, symName: __ZN19hb_shape_plan_key_t4initEbP9hb_face_tPK23hb_segment_properties_tPK12hb_feature_tjPKijPKPKc, symObjAddr: 0x0, symBinAddr: 0xDD8F0, symSize: 0x344 }
  - { offset: 0x60987B, size: 0x8, addend: 0x0, symName: __ZNK16hb_lazy_loader_tI17hb_ot_face_data_t23hb_shaper_lazy_loader_tI9hb_face_tLj1ES0_ES2_Lj1ES0_EcvbEv, symObjAddr: 0x344, symBinAddr: 0xDDC34, symSize: 0x88 }
  - { offset: 0x609A59, size: 0x8, addend: 0x0, symName: __ZNK16hb_lazy_loader_tI23hb_fallback_face_data_t23hb_shaper_lazy_loader_tI9hb_face_tLj2ES0_ES2_Lj2ES0_EcvbEv, symObjAddr: 0x3CC, symBinAddr: 0xDDCBC, symSize: 0x88 }
  - { offset: 0x609C60, size: 0x8, addend: 0x0, symName: __ZN19hb_shape_plan_key_t19user_features_matchEPKS_, symObjAddr: 0x454, symBinAddr: 0xDDD44, symSize: 0xDC }
  - { offset: 0x609CFD, size: 0x8, addend: 0x0, symName: __ZN19hb_shape_plan_key_t5equalEPKS_, symObjAddr: 0x530, symBinAddr: 0xDDE20, symSize: 0x13C }
  - { offset: 0x609DC5, size: 0x8, addend: 0x0, symName: _hb_shape_plan_create, symObjAddr: 0x66C, symBinAddr: 0xDDF5C, symSize: 0x10 }
  - { offset: 0x609E63, size: 0x8, addend: 0x0, symName: _hb_shape_plan_create2, symObjAddr: 0x67C, symBinAddr: 0xDDF6C, symSize: 0x114 }
  - { offset: 0x60A34E, size: 0x8, addend: 0x0, symName: _hb_shape_plan_get_empty, symObjAddr: 0x790, symBinAddr: 0xDE080, symSize: 0xC }
  - { offset: 0x60A3D9, size: 0x8, addend: 0x0, symName: _hb_shape_plan_reference, symObjAddr: 0x79C, symBinAddr: 0xDE08C, symSize: 0x1C }
  - { offset: 0x60A3F9, size: 0x8, addend: 0x0, symName: _hb_shape_plan_reference, symObjAddr: 0x79C, symBinAddr: 0xDE08C, symSize: 0x1C }
  - { offset: 0x60A417, size: 0x8, addend: 0x0, symName: _hb_shape_plan_reference, symObjAddr: 0x79C, symBinAddr: 0xDE08C, symSize: 0x1C }
  - { offset: 0x60A680, size: 0x8, addend: 0x0, symName: _hb_shape_plan_destroy, symObjAddr: 0x7B8, symBinAddr: 0xDE0A8, symSize: 0x94 }
  - { offset: 0x60ABA4, size: 0x8, addend: 0x0, symName: __ZN18hb_ot_shape_plan_tD2Ev, symObjAddr: 0xF30, symBinAddr: 0xDE73C, symSize: 0xB4 }
  - { offset: 0x60AF2A, size: 0x8, addend: 0x0, symName: _hb_shape_plan_set_user_data, symObjAddr: 0x84C, symBinAddr: 0xDE13C, symSize: 0xE0 }
  - { offset: 0x60B5EB, size: 0x8, addend: 0x0, symName: _hb_shape_plan_get_user_data, symObjAddr: 0x92C, symBinAddr: 0xDE21C, symSize: 0xCC }
  - { offset: 0x60B874, size: 0x8, addend: 0x0, symName: _hb_shape_plan_get_shaper, symObjAddr: 0x9F8, symBinAddr: 0xDE2E8, symSize: 0x8 }
  - { offset: 0x60BBD6, size: 0x8, addend: 0x0, symName: _hb_shape_plan_execute, symObjAddr: 0xA00, symBinAddr: 0xDE2F0, symSize: 0x168 }
  - { offset: 0x60C111, size: 0x8, addend: 0x0, symName: _hb_shape_plan_create_cached, symObjAddr: 0xB68, symBinAddr: 0xDE458, symSize: 0x10 }
  - { offset: 0x60C1B5, size: 0x8, addend: 0x0, symName: _hb_shape_plan_create_cached2, symObjAddr: 0xB78, symBinAddr: 0xDE468, symSize: 0x2D4 }
  - { offset: 0x60ED44, size: 0x8, addend: 0x0, symName: _hb_shape_list_shapers, symObjAddr: 0x0, symBinAddr: 0xDE7F0, symSize: 0xB0 }
  - { offset: 0x60ED5D, size: 0x8, addend: 0x0, symName: __ZL18static_shaper_list, symObjAddr: 0x50030, symBinAddr: 0x1099F0, symSize: 0x0 }
  - { offset: 0x60F183, size: 0x8, addend: 0x0, symName: __ZL15nil_shaper_list, symObjAddr: 0x1F0, symBinAddr: 0xF3320, symSize: 0x0 }
  - { offset: 0x6100B5, size: 0x8, addend: 0x0, symName: _hb_shape_list_shapers, symObjAddr: 0x0, symBinAddr: 0xDE7F0, symSize: 0xB0 }
  - { offset: 0x6102A9, size: 0x8, addend: 0x0, symName: _hb_shape_full, symObjAddr: 0xB0, symBinAddr: 0xDE8A0, symSize: 0x134 }
  - { offset: 0x610485, size: 0x8, addend: 0x0, symName: _hb_shape, symObjAddr: 0x1E4, symBinAddr: 0xDE9D4, symSize: 0x8 }
  - { offset: 0x612342, size: 0x8, addend: 0x0, symName: __Z15_hb_shapers_getv, symObjAddr: 0x0, symBinAddr: 0xDE9DC, symSize: 0x68 }
  - { offset: 0x61235B, size: 0x8, addend: 0x0, symName: __ZL14static_shapers, symObjAddr: 0x8010, symBinAddr: 0x1099F8, symSize: 0x0 }
  - { offset: 0x612785, size: 0x8, addend: 0x0, symName: __ZL15_hb_all_shapers, symObjAddr: 0x230, symBinAddr: 0x104448, symSize: 0x0 }
  - { offset: 0x612902, size: 0x8, addend: 0x0, symName: __Z15_hb_shapers_getv, symObjAddr: 0x0, symBinAddr: 0xDE9DC, symSize: 0x68 }
  - { offset: 0x612A7A, size: 0x8, addend: 0x0, symName: __ZN24hb_shapers_lazy_loader_t6createEv, symObjAddr: 0x68, symBinAddr: 0xDEA44, symSize: 0x1C8 }
